---
triple:          'arm64-apple-darwin'
binary-path:     '/Users/christos/Desktop/Experimental/EKF-SLAM/testing eigen'
relocations:
  - { offsetInCU: 0x44, offset: 0x44, size: 0x8, addend: 0x0, symName: __ZN5EigenL4lastE, symObjAddr: 0x4131C, symBinAddr: 0x10000C000, symSize: 0x0 }
  - { offsetInCU: 0xD7B, offset: 0xD7B, size: 0x8, addend: 0x0, symName: __ZN5Eigen8internal28check_static_allocation_sizeIdLi69EEEvv, symObjAddr: 0xDF4, symBinAddr: 0x100004B8C, symSize: 0x4 }
  - { offsetInCU: 0xDA9, offset: 0xDA9, size: 0x8, addend: 0x0, symName: __ZN5Eigen8internal24call_assignment_no_aliasINS_6MatrixIdLi1ELi69ELi1ELi1ELi69EEENS_14CwiseNullaryOpINS0_18scalar_constant_opIdEES3_EENS0_9assign_opIddEEEEvRT_RKT0_RKT1_, symObjAddr: 0xF68, symBinAddr: 0x100004D00, symSize: 0x3C }
  - { offsetInCU: 0xED7, offset: 0xED7, size: 0x8, addend: 0x0, symName: __ZN5Eigen8internal18check_for_aliasingINS_6MatrixIdLi1ELi69ELi1ELi1ELi69EEENS_14CwiseNullaryOpINS0_18scalar_constant_opIdEES3_EEEEvRKT_RKT0_, symObjAddr: 0x1024, symBinAddr: 0x100004DBC, symSize: 0x14 }
  - { offsetInCU: 0xF22, offset: 0xF22, size: 0x8, addend: 0x0, symName: __ZN5Eigen8internal26call_dense_assignment_loopINS_6MatrixIdLi1ELi69ELi1ELi1ELi69EEEEEvRT_RKNS_14CwiseNullaryOpINS0_18scalar_constant_opINS4_6ScalarEEES4_EERKNS0_9assign_opIS8_S8_EE, symObjAddr: 0x1038, symBinAddr: 0x100004DD0, symSize: 0x6C }
  - { offsetInCU: 0xF73, offset: 0xF73, size: 0x8, addend: 0x0, symName: __ZN5Eigen8internal17resize_if_allowedINS_6MatrixIdLi1ELi69ELi1ELi1ELi69EEENS_14CwiseNullaryOpINS0_18scalar_constant_opIdEES3_EEddEEvRT_RKT0_RKNS0_9assign_opIT1_T2_EE, symObjAddr: 0x10A4, symBinAddr: 0x100004E3C, symSize: 0xF8 }
  - { offsetInCU: 0xFF9, offset: 0xFF9, size: 0x8, addend: 0x0, symName: __ZN5Eigen8internal22ignore_unused_variableIlEEvRKT_, symObjAddr: 0x16A4, symBinAddr: 0x10000543C, symSize: 0x10 }
  - { offsetInCU: 0x1028, offset: 0x1028, size: 0x8, addend: 0x0, symName: __ZN5Eigen8internal12print_matrixINS_6MatrixIdLi1ELi69ELi1ELi1ELi69EEEEERNSt3__113basic_ostreamIcNS4_11char_traitsIcEEEES9_RKT_RKNS_8IOFormatE, symObjAddr: 0x2218, symBinAddr: 0x100005FB0, symSize: 0x580 }
  - { offsetInCU: 0x124B, offset: 0x124B, size: 0x8, addend: 0x0, symName: __ZN5EigenL6lastp1E, symObjAddr: 0x4131D, symBinAddr: 0x10000C001, symSize: 0x0 }
  - { offsetInCU: 0x1264, offset: 0x1264, size: 0x8, addend: 0x0, symName: __ZN5EigenL3allE, symObjAddr: 0x41320, symBinAddr: 0x10000C004, symSize: 0x0 }
  - { offsetInCU: 0x127D, offset: 0x127D, size: 0x8, addend: 0x0, symName: __ZN5EigenL3fixILi1EEE, symObjAddr: 0x4131F, symBinAddr: 0x10000C003, symSize: 0x0 }
  - { offsetInCU: 0x53FF, offset: 0x53FF, size: 0x8, addend: 0x0, symName: __ZN5EigenlsINS_6MatrixIdLi1ELi69ELi1ELi1ELi69EEEEERNSt3__113basic_ostreamIcNS3_11char_traitsIcEEEES8_RKNS_9DenseBaseIT_EE, symObjAddr: 0x324, symBinAddr: 0x1000040BC, symSize: 0x208 }
  - { offsetInCU: 0x9025, offset: 0x9025, size: 0x8, addend: 0x0, symName: __ZNSt3__124__put_character_sequenceB7v160006IcNS_11char_traitsIcEEEERNS_13basic_ostreamIT_T0_EES7_PKS4_m, symObjAddr: 0x1720, symBinAddr: 0x1000054B8, symSize: 0x1EC }
  - { offsetInCU: 0xA975, offset: 0xA975, size: 0x8, addend: 0x0, symName: __ZNSt3__1lsB7v160006INS_11char_traitsIcEEEERNS_13basic_ostreamIcT_EES6_PKc, symObjAddr: 0x52C, symBinAddr: 0x1000042C4, symSize: 0x48 }
  - { offsetInCU: 0xA9BB, offset: 0xA9BB, size: 0x8, addend: 0x0, symName: __ZNSt3__14endlB7v160006IcNS_11char_traitsIcEEEERNS_13basic_ostreamIT_T0_EES7_, symObjAddr: 0x5A0, symBinAddr: 0x100004338, symSize: 0x58 }
  - { offsetInCU: 0xA9FB, offset: 0xA9FB, size: 0x8, addend: 0x0, symName: __ZNSt3__16fill_nB7v160006IPdldEET_S2_T0_RKT1_, symObjAddr: 0x119C, symBinAddr: 0x100004F34, symSize: 0x44 }
  - { offsetInCU: 0xAA5E, offset: 0xAA5E, size: 0x8, addend: 0x0, symName: __ZNSt3__18__fill_nB7v160006IPdldEET_S2_T0_RKT1_, symObjAddr: 0x12C8, symBinAddr: 0x100005060, symSize: 0x64 }
  - { offsetInCU: 0xAAC1, offset: 0xAAC1, size: 0x8, addend: 0x0, symName: __ZNSt3__121__convert_to_integralB7v160006El, symObjAddr: 0x132C, symBinAddr: 0x1000050C4, symSize: 0x14 }
  - { offsetInCU: 0xAAED, offset: 0xAAED, size: 0x8, addend: 0x0, symName: __ZNSt3__116__pad_and_outputB7v160006IcNS_11char_traitsIcEEEENS_19ostreambuf_iteratorIT_T0_EES6_PKS4_S8_S8_RNS_8ios_baseES4_, symObjAddr: 0x195C, symBinAddr: 0x1000056F4, symSize: 0x240 }
  - { offsetInCU: 0xABBC, offset: 0xABBC, size: 0x8, addend: 0x0, symName: __ZNSt3__119__debug_db_insert_cB7v160006INS_12basic_stringIcNS_11char_traitsIcEENS_9allocatorIcEEEEEEvPT_, symObjAddr: 0x1E10, symBinAddr: 0x100005BA8, symSize: 0x10 }
  - { offsetInCU: 0xABED, offset: 0xABED, size: 0x8, addend: 0x0, symName: __ZNSt3__112__to_addressB7v160006IKcEEPT_S3_, symObjAddr: 0x1EDC, symBinAddr: 0x100005C74, symSize: 0x14 }
  - { offsetInCU: 0xAC55, offset: 0xAC55, size: 0x8, addend: 0x0, symName: __ZNSt3__19use_facetB7v160006INS_5ctypeIcEEEERKT_RKNS_6localeE, symObjAddr: 0x215C, symBinAddr: 0x100005EF4, symSize: 0x2C }
  - { offsetInCU: 0xB124, offset: 0xB124, size: 0x8, addend: 0x0, symName: __ZNSt3__118__constexpr_strlenB7v160006EPKc, symObjAddr: 0x21F4, symBinAddr: 0x100005F8C, symSize: 0x24 }
  - { offsetInCU: 0xB150, offset: 0xB150, size: 0x8, addend: 0x0, symName: __ZNSt3__1lsB7v160006IcNS_11char_traitsIcEENS_9allocatorIcEEEERNS_13basic_ostreamIT_T0_EES9_RKNS_12basic_stringIS6_S7_T1_EE, symObjAddr: 0x28A4, symBinAddr: 0x10000663C, symSize: 0x4C }
  - { offsetInCU: 0xBAAA, offset: 0xBAAA, size: 0x8, addend: 0x0, symName: __ZNSt3__13maxB7v160006IlEERKT_S3_S3_, symObjAddr: 0x2A94, symBinAddr: 0x10000682C, symSize: 0x2C }
  - { offsetInCU: 0xBAF8, offset: 0xBAF8, size: 0x8, addend: 0x0, symName: __ZNSt3__13maxB7v160006IlNS_6__lessIllEEEERKT_S5_S5_T0_, symObjAddr: 0x300C, symBinAddr: 0x100006DA4, symSize: 0x54 }
  - { offsetInCU: 0xE7B5, offset: 0xE7B5, size: 0x8, addend: 0x0, symName: __ZN5Eigen8symbolic10SymbolExprINS_8internal17symbolic_last_tagEEC1Ev, symObjAddr: 0x0, symBinAddr: 0x100003D98, symSize: 0x2C }
  - { offsetInCU: 0xE7DF, offset: 0xE7DF, size: 0x8, addend: 0x0, symName: __ZNK5Eigen8symbolic8BaseExprINS0_10SymbolExprINS_8internal17symbolic_last_tagEEEEplILi1EEENS0_7AddExprIS5_NS0_9ValueExprINS3_8FixedIntIXT_EEEEEEESB_, symObjAddr: 0x2C, symBinAddr: 0x100003DC4, symSize: 0x48 }
  - { offsetInCU: 0xE81A, offset: 0xE81A, size: 0x8, addend: 0x0, symName: __ZNK5Eigen8internal8FixedIntILi1EEclEv, symObjAddr: 0x74, symBinAddr: 0x100003E0C, symSize: 0x10 }
  - { offsetInCU: 0xE840, offset: 0xE840, size: 0x8, addend: 0x0, symName: __ZN5Eigen8internal5all_tC1Ev, symObjAddr: 0x84, symBinAddr: 0x100003E1C, symSize: 0x2C }
  - { offsetInCU: 0xE86A, offset: 0xE86A, size: 0x8, addend: 0x0, symName: _main, symObjAddr: 0xB0, symBinAddr: 0x100003E48, symSize: 0x11C }
  - { offsetInCU: 0xE8BE, offset: 0xE8BE, size: 0x8, addend: 0x0, symName: __ZN5Eigen9DenseBaseINS_6MatrixIdLi1ELi69ELi1ELi1ELi69EEEE4ZeroEv, symObjAddr: 0x1CC, symBinAddr: 0x100003F64, symSize: 0x30 }
  - { offsetInCU: 0xE8DA, offset: 0xE8DA, size: 0x8, addend: 0x0, symName: __ZN5Eigen6MatrixIdLi1ELi69ELi1ELi1ELi69EEC1INS_14CwiseNullaryOpINS_8internal18scalar_constant_opIdEES1_EEEERKNS_9EigenBaseIT_EE, symObjAddr: 0x1FC, symBinAddr: 0x100003F94, symSize: 0x34 }
  - { offsetInCU: 0xE91C, offset: 0xE91C, size: 0x8, addend: 0x0, symName: __ZN5Eigen15DenseCoeffsBaseINS_6MatrixIdLi1ELi69ELi1ELi1ELi69EEELi1EEclEll, symObjAddr: 0x230, symBinAddr: 0x100003FC8, symSize: 0xF4 }
  - { offsetInCU: 0xE960, offset: 0xE960, size: 0x8, addend: 0x0, symName: __ZNSt3__113basic_ostreamIcNS_11char_traitsIcEEElsB7v160006EPFRS3_S4_E, symObjAddr: 0x574, symBinAddr: 0x10000430C, symSize: 0x2C }
  - { offsetInCU: 0xE994, offset: 0xE994, size: 0x8, addend: 0x0, symName: __ZN5Eigen8internal8FixedIntILi1EEC1Ev, symObjAddr: 0x5F8, symBinAddr: 0x100004390, symSize: 0x2C }
  - { offsetInCU: 0xE9BE, offset: 0xE9BE, size: 0x8, addend: 0x0, symName: __ZN5Eigen8internal5all_tC2Ev, symObjAddr: 0x624, symBinAddr: 0x1000043BC, symSize: 0x14 }
  - { offsetInCU: 0xE9E8, offset: 0xE9E8, size: 0x8, addend: 0x0, symName: __ZN5Eigen8symbolic10SymbolExprINS_8internal17symbolic_last_tagEEC2Ev, symObjAddr: 0x638, symBinAddr: 0x1000043D0, symSize: 0x14 }
  - { offsetInCU: 0xEA12, offset: 0xEA12, size: 0x8, addend: 0x0, symName: __ZN5Eigen8internal8FixedIntILi1EEC2Ev, symObjAddr: 0x64C, symBinAddr: 0x1000043E4, symSize: 0x14 }
  - { offsetInCU: 0xEA3C, offset: 0xEA3C, size: 0x8, addend: 0x0, symName: __ZNK5Eigen8symbolic8BaseExprINS0_10SymbolExprINS_8internal17symbolic_last_tagEEEE7derivedEv, symObjAddr: 0x660, symBinAddr: 0x1000043F8, symSize: 0x14 }
  - { offsetInCU: 0xEA62, offset: 0xEA62, size: 0x8, addend: 0x0, symName: __ZN5Eigen8symbolic9ValueExprINS_8internal8FixedIntILi1EEEEC1Ev, symObjAddr: 0x674, symBinAddr: 0x10000440C, symSize: 0x2C }
  - { offsetInCU: 0xEA8C, offset: 0xEA8C, size: 0x8, addend: 0x0, symName: __ZN5Eigen8symbolic7AddExprINS0_10SymbolExprINS_8internal17symbolic_last_tagEEENS0_9ValueExprINS3_8FixedIntILi1EEEEEEC1ERKS5_RKS9_, symObjAddr: 0x6A0, symBinAddr: 0x100004438, symSize: 0x3C }
  - { offsetInCU: 0xEAD2, offset: 0xEAD2, size: 0x8, addend: 0x0, symName: __ZN5Eigen8symbolic9ValueExprINS_8internal8FixedIntILi1EEEEC2Ev, symObjAddr: 0x6DC, symBinAddr: 0x100004474, symSize: 0x14 }
  - { offsetInCU: 0xEAFC, offset: 0xEAFC, size: 0x8, addend: 0x0, symName: __ZN5Eigen8symbolic7AddExprINS0_10SymbolExprINS_8internal17symbolic_last_tagEEENS0_9ValueExprINS3_8FixedIntILi1EEEEEEC2ERKS5_RKS9_, symObjAddr: 0x6F0, symBinAddr: 0x100004488, symSize: 0x1C }
  - { offsetInCU: 0xEB42, offset: 0xEB42, size: 0x8, addend: 0x0, symName: __ZN5Eigen9DenseBaseINS_6MatrixIdLi1ELi69ELi1ELi1ELi69EEEE8ConstantERKd, symObjAddr: 0x70C, symBinAddr: 0x1000044A4, symSize: 0x48 }
  - { offsetInCU: 0xEB68, offset: 0xEB68, size: 0x8, addend: 0x0, symName: __ZN5Eigen9DenseBaseINS_6MatrixIdLi1ELi69ELi1ELi1ELi69EEEE11NullaryExprINS_8internal18scalar_constant_opIdEEEEKNS_14CwiseNullaryOpIT_S2_EEllRKS9_, symObjAddr: 0x754, symBinAddr: 0x1000044EC, symSize: 0x48 }
  - { offsetInCU: 0xEBB5, offset: 0xEBB5, size: 0x8, addend: 0x0, symName: __ZN5Eigen8internal18scalar_constant_opIdEC1ERKd, symObjAddr: 0x79C, symBinAddr: 0x100004534, symSize: 0x34 }
  - { offsetInCU: 0xEBED, offset: 0xEBED, size: 0x8, addend: 0x0, symName: __ZN5Eigen14CwiseNullaryOpINS_8internal18scalar_constant_opIdEENS_6MatrixIdLi1ELi69ELi1ELi1ELi69EEEEC1EllRKS3_, symObjAddr: 0x7D0, symBinAddr: 0x100004568, symSize: 0x44 }
  - { offsetInCU: 0xEC41, offset: 0xEC41, size: 0x8, addend: 0x0, symName: __ZN5Eigen14CwiseNullaryOpINS_8internal18scalar_constant_opIdEENS_6MatrixIdLi1ELi69ELi1ELi1ELi69EEEEC2EllRKS3_, symObjAddr: 0x814, symBinAddr: 0x1000045AC, symSize: 0x108 }
  - { offsetInCU: 0xEC95, offset: 0xEC95, size: 0x8, addend: 0x0, symName: __ZN5Eigen10MatrixBaseINS_14CwiseNullaryOpINS_8internal18scalar_constant_opIdEENS_6MatrixIdLi1ELi69ELi1ELi1ELi69EEEEEEC2Ev, symObjAddr: 0x91C, symBinAddr: 0x1000046B4, symSize: 0x2C }
  - { offsetInCU: 0xECBF, offset: 0xECBF, size: 0x8, addend: 0x0, symName: __ZN5Eigen8internal19variable_if_dynamicIlLi1EEC1El, symObjAddr: 0x948, symBinAddr: 0x1000046E0, symSize: 0x34 }
  - { offsetInCU: 0xECF7, offset: 0xECF7, size: 0x8, addend: 0x0, symName: __ZN5Eigen8internal19variable_if_dynamicIlLi69EEC1El, symObjAddr: 0x97C, symBinAddr: 0x100004714, symSize: 0x34 }
  - { offsetInCU: 0xED2F, offset: 0xED2F, size: 0x8, addend: 0x0, symName: __ZN5Eigen8internal18scalar_constant_opIdEC1ERKS2_, symObjAddr: 0x9B0, symBinAddr: 0x100004748, symSize: 0x34 }
  - { offsetInCU: 0xED67, offset: 0xED67, size: 0x8, addend: 0x0, symName: __ZN5Eigen9DenseBaseINS_14CwiseNullaryOpINS_8internal18scalar_constant_opIdEENS_6MatrixIdLi1ELi69ELi1ELi1ELi69EEEEEEC2Ev, symObjAddr: 0x9E4, symBinAddr: 0x10000477C, symSize: 0x14 }
  - { offsetInCU: 0xED91, offset: 0xED91, size: 0x8, addend: 0x0, symName: __ZN5Eigen8internal19variable_if_dynamicIlLi1EEC2El, symObjAddr: 0x9F8, symBinAddr: 0x100004790, symSize: 0x64 }
  - { offsetInCU: 0xEDC9, offset: 0xEDC9, size: 0x8, addend: 0x0, symName: __ZN5Eigen8internal19variable_if_dynamicIlLi69EEC2El, symObjAddr: 0xA5C, symBinAddr: 0x1000047F4, symSize: 0x64 }
  - { offsetInCU: 0xEE01, offset: 0xEE01, size: 0x8, addend: 0x0, symName: __ZN5Eigen8internal18scalar_constant_opIdEC2ERKS2_, symObjAddr: 0xAC0, symBinAddr: 0x100004858, symSize: 0x24 }
  - { offsetInCU: 0xEE39, offset: 0xEE39, size: 0x8, addend: 0x0, symName: __ZN5Eigen8internal18scalar_constant_opIdEC2ERKd, symObjAddr: 0xAE4, symBinAddr: 0x10000487C, symSize: 0x24 }
  - { offsetInCU: 0xEE71, offset: 0xEE71, size: 0x8, addend: 0x0, symName: __ZN5Eigen6MatrixIdLi1ELi69ELi1ELi1ELi69EEC2INS_14CwiseNullaryOpINS_8internal18scalar_constant_opIdEES1_EEEERKNS_9EigenBaseIT_EE, symObjAddr: 0xB08, symBinAddr: 0x1000048A0, symSize: 0x40 }
  - { offsetInCU: 0xEEB3, offset: 0xEEB3, size: 0x8, addend: 0x0, symName: __ZNK5Eigen9EigenBaseINS_14CwiseNullaryOpINS_8internal18scalar_constant_opIdEENS_6MatrixIdLi1ELi69ELi1ELi1ELi69EEEEEE7derivedEv, symObjAddr: 0xB48, symBinAddr: 0x1000048E0, symSize: 0x14 }
  - { offsetInCU: 0xEED9, offset: 0xEED9, size: 0x8, addend: 0x0, symName: __ZN5Eigen15PlainObjectBaseINS_6MatrixIdLi1ELi69ELi1ELi1ELi69EEEEC2INS_14CwiseNullaryOpINS_8internal18scalar_constant_opIdEES2_EEEERKNS_9DenseBaseIT_EE, symObjAddr: 0xB5C, symBinAddr: 0x1000048F4, symSize: 0x54 }
  - { offsetInCU: 0xEF1B, offset: 0xEF1B, size: 0x8, addend: 0x0, symName: __ZN5Eigen10MatrixBaseINS_6MatrixIdLi1ELi69ELi1ELi1ELi69EEEEC2Ev, symObjAddr: 0xBB0, symBinAddr: 0x100004948, symSize: 0x2C }
  - { offsetInCU: 0xEF45, offset: 0xEF45, size: 0x8, addend: 0x0, symName: __ZN5Eigen12DenseStorageIdLi69ELi1ELi69ELi1EEC1Ev, symObjAddr: 0xBDC, symBinAddr: 0x100004974, symSize: 0x2C }
  - { offsetInCU: 0xEF6F, offset: 0xEF6F, size: 0x8, addend: 0x0, symName: __ZN5Eigen15PlainObjectBaseINS_6MatrixIdLi1ELi69ELi1ELi1ELi69EEEE22_check_template_paramsEv, symObjAddr: 0xC08, symBinAddr: 0x1000049A0, symSize: 0x4 }
  - { offsetInCU: 0xEF83, offset: 0xEF83, size: 0x8, addend: 0x0, symName: __ZN5Eigen15PlainObjectBaseINS_6MatrixIdLi1ELi69ELi1ELi1ELi69EEEE10resizeLikeINS_14CwiseNullaryOpINS_8internal18scalar_constant_opIdEES2_EEEEvRKNS_9EigenBaseIT_EE, symObjAddr: 0xC0C, symBinAddr: 0x1000049A4, symSize: 0xF0 }
  - { offsetInCU: 0xEFDF, offset: 0xEFDF, size: 0x8, addend: 0x0, symName: __ZN5Eigen15PlainObjectBaseINS_6MatrixIdLi1ELi69ELi1ELi1ELi69EEEE12_set_noaliasINS_14CwiseNullaryOpINS_8internal18scalar_constant_opIdEES2_EEEERS2_RKNS_9DenseBaseIT_EE, symObjAddr: 0xCFC, symBinAddr: 0x100004A94, symSize: 0x60 }
  - { offsetInCU: 0xF01D, offset: 0xF01D, size: 0x8, addend: 0x0, symName: __ZN5Eigen9DenseBaseINS_6MatrixIdLi1ELi69ELi1ELi1ELi69EEEEC2Ev, symObjAddr: 0xD5C, symBinAddr: 0x100004AF4, symSize: 0x14 }
  - { offsetInCU: 0xF047, offset: 0xF047, size: 0x8, addend: 0x0, symName: __ZN5Eigen12DenseStorageIdLi69ELi1ELi69ELi1EEC2Ev, symObjAddr: 0xD70, symBinAddr: 0x100004B08, symSize: 0x2C }
  - { offsetInCU: 0xF071, offset: 0xF071, size: 0x8, addend: 0x0, symName: __ZN5Eigen8internal11plain_arrayIdLi69ELi1ELi0EEC1Ev, symObjAddr: 0xD9C, symBinAddr: 0x100004B34, symSize: 0x2C }
  - { offsetInCU: 0xF09B, offset: 0xF09B, size: 0x8, addend: 0x0, symName: __ZN5Eigen8internal11plain_arrayIdLi69ELi1ELi0EEC2Ev, symObjAddr: 0xDC8, symBinAddr: 0x100004B60, symSize: 0x2C }
  - { offsetInCU: 0xF0C5, offset: 0xF0C5, size: 0x8, addend: 0x0, symName: __ZNK5Eigen14CwiseNullaryOpINS_8internal18scalar_constant_opIdEENS_6MatrixIdLi1ELi69ELi1ELi1ELi69EEEE4rowsEv, symObjAddr: 0xDF8, symBinAddr: 0x100004B90, symSize: 0x20 }
  - { offsetInCU: 0xF0EB, offset: 0xF0EB, size: 0x8, addend: 0x0, symName: __ZNK5Eigen14CwiseNullaryOpINS_8internal18scalar_constant_opIdEENS_6MatrixIdLi1ELi69ELi1ELi1ELi69EEEE4colsEv, symObjAddr: 0xE18, symBinAddr: 0x100004BB0, symSize: 0x20 }
  - { offsetInCU: 0xF111, offset: 0xF111, size: 0x8, addend: 0x0, symName: __ZN5Eigen15PlainObjectBaseINS_6MatrixIdLi1ELi69ELi1ELi1ELi69EEEE6resizeEll, symObjAddr: 0xE38, symBinAddr: 0x100004BD0, symSize: 0x104 }
  - { offsetInCU: 0xF155, offset: 0xF155, size: 0x8, addend: 0x0, symName: __ZN5Eigen8internal19variable_if_dynamicIlLi1EE5valueEv, symObjAddr: 0xF3C, symBinAddr: 0x100004CD4, symSize: 0x8 }
  - { offsetInCU: 0xF169, offset: 0xF169, size: 0x8, addend: 0x0, symName: __ZN5Eigen8internal19variable_if_dynamicIlLi69EE5valueEv, symObjAddr: 0xF44, symBinAddr: 0x100004CDC, symSize: 0x8 }
  - { offsetInCU: 0xF17D, offset: 0xF17D, size: 0x8, addend: 0x0, symName: __ZN5Eigen12DenseStorageIdLi69ELi1ELi69ELi1EE6resizeElll, symObjAddr: 0xF4C, symBinAddr: 0x100004CE4, symSize: 0x1C }
  - { offsetInCU: 0xF1C4, offset: 0xF1C4, size: 0x8, addend: 0x0, symName: __ZN5Eigen9EigenBaseINS_6MatrixIdLi1ELi69ELi1ELi1ELi69EEEE7derivedEv, symObjAddr: 0xFA4, symBinAddr: 0x100004D3C, symSize: 0x14 }
  - { offsetInCU: 0xF203, offset: 0xF203, size: 0x8, addend: 0x0, symName: __ZN5Eigen8internal9assign_opIddEC1Ev, symObjAddr: 0xFB8, symBinAddr: 0x100004D50, symSize: 0x2C }
  - { offsetInCU: 0xF22D, offset: 0xF22D, size: 0x8, addend: 0x0, symName: __ZN5Eigen8internal10AssignmentINS_6MatrixIdLi1ELi69ELi1ELi1ELi69EEENS_14CwiseNullaryOpINS0_18scalar_constant_opIdEES3_EENS0_9assign_opIddEENS0_11Dense2DenseEvE3runERS3_RKS7_RKS9_, symObjAddr: 0xFE4, symBinAddr: 0x100004D7C, symSize: 0x40 }
  - { offsetInCU: 0xF26F, offset: 0xF26F, size: 0x8, addend: 0x0, symName: __ZN5Eigen15PlainObjectBaseINS_6MatrixIdLi1ELi69ELi1ELi1ELi69EEEE4dataEv, symObjAddr: 0x11E0, symBinAddr: 0x100004F78, symSize: 0x24 }
  - { offsetInCU: 0xF295, offset: 0xF295, size: 0x8, addend: 0x0, symName: __ZNK5Eigen9EigenBaseINS_6MatrixIdLi1ELi69ELi1ELi1ELi69EEEE4sizeEv, symObjAddr: 0x1204, symBinAddr: 0x100004F9C, symSize: 0x44 }
  - { offsetInCU: 0xF2BB, offset: 0xF2BB, size: 0x8, addend: 0x0, symName: __ZNK5Eigen14CwiseNullaryOpINS_8internal18scalar_constant_opIdEENS_6MatrixIdLi1ELi69ELi1ELi1ELi69EEEE7functorEv, symObjAddr: 0x1248, symBinAddr: 0x100004FE0, symSize: 0x18 }
  - { offsetInCU: 0xF2E1, offset: 0xF2E1, size: 0x8, addend: 0x0, symName: __ZNK5Eigen8internal18scalar_constant_opIdEclEv, symObjAddr: 0x1260, symBinAddr: 0x100004FF8, symSize: 0x18 }
  - { offsetInCU: 0xF307, offset: 0xF307, size: 0x8, addend: 0x0, symName: __ZNK5Eigen15PlainObjectBaseINS_6MatrixIdLi1ELi69ELi1ELi1ELi69EEEE4rowsEv, symObjAddr: 0x1278, symBinAddr: 0x100005010, symSize: 0x20 }
  - { offsetInCU: 0xF32D, offset: 0xF32D, size: 0x8, addend: 0x0, symName: __ZNK5Eigen15PlainObjectBaseINS_6MatrixIdLi1ELi69ELi1ELi1ELi69EEEE4colsEv, symObjAddr: 0x1298, symBinAddr: 0x100005030, symSize: 0x20 }
  - { offsetInCU: 0xF353, offset: 0xF353, size: 0x8, addend: 0x0, symName: __ZN5Eigen12DenseStorageIdLi69ELi1ELi69ELi1EE4rowsEv, symObjAddr: 0x12B8, symBinAddr: 0x100005050, symSize: 0x8 }
  - { offsetInCU: 0xF367, offset: 0xF367, size: 0x8, addend: 0x0, symName: __ZN5Eigen12DenseStorageIdLi69ELi1ELi69ELi1EE4colsEv, symObjAddr: 0x12C0, symBinAddr: 0x100005058, symSize: 0x8 }
  - { offsetInCU: 0xF37B, offset: 0xF37B, size: 0x8, addend: 0x0, symName: __ZN5Eigen12DenseStorageIdLi69ELi1ELi69ELi1EE4dataEv, symObjAddr: 0x1340, symBinAddr: 0x1000050D8, symSize: 0x14 }
  - { offsetInCU: 0xF3A1, offset: 0xF3A1, size: 0x8, addend: 0x0, symName: __ZNK5Eigen9EigenBaseINS_6MatrixIdLi1ELi69ELi1ELi1ELi69EEEE4rowsEv, symObjAddr: 0x1354, symBinAddr: 0x1000050EC, symSize: 0x38 }
  - { offsetInCU: 0xF3C7, offset: 0xF3C7, size: 0x8, addend: 0x0, symName: __ZNK5Eigen9EigenBaseINS_6MatrixIdLi1ELi69ELi1ELi1ELi69EEEE4colsEv, symObjAddr: 0x138C, symBinAddr: 0x100005124, symSize: 0x28 }
  - { offsetInCU: 0xF3ED, offset: 0xF3ED, size: 0x8, addend: 0x0, symName: __ZNK5Eigen9EigenBaseINS_6MatrixIdLi1ELi69ELi1ELi1ELi69EEEE7derivedEv, symObjAddr: 0x13B4, symBinAddr: 0x10000514C, symSize: 0x14 }
  - { offsetInCU: 0xF413, offset: 0xF413, size: 0x8, addend: 0x0, symName: __ZN5Eigen8internal9assign_opIddEC2Ev, symObjAddr: 0x13D4, symBinAddr: 0x10000516C, symSize: 0x14 }
  - { offsetInCU: 0xF43D, offset: 0xF43D, size: 0x8, addend: 0x0, symName: __ZN5Eigen15DenseCoeffsBaseINS_6MatrixIdLi1ELi69ELi1ELi1ELi69EEELi1EE8coeffRefEll, symObjAddr: 0x13E8, symBinAddr: 0x100005180, symSize: 0x80 }
  - { offsetInCU: 0xF481, offset: 0xF481, size: 0x8, addend: 0x0, symName: __ZN5Eigen8internal9evaluatorINS_6MatrixIdLi1ELi69ELi1ELi1ELi69EEEEC1ERKS3_, symObjAddr: 0x1468, symBinAddr: 0x100005200, symSize: 0x34 }
  - { offsetInCU: 0xF4BA, offset: 0xF4BA, size: 0x8, addend: 0x0, symName: __ZN5Eigen8internal9evaluatorINS_15PlainObjectBaseINS_6MatrixIdLi1ELi69ELi1ELi1ELi69EEEEEE8coeffRefEll, symObjAddr: 0x149C, symBinAddr: 0x100005234, symSize: 0x54 }
  - { offsetInCU: 0xF4FC, offset: 0xF4FC, size: 0x8, addend: 0x0, symName: __ZN5Eigen8internal9evaluatorINS_6MatrixIdLi1ELi69ELi1ELi1ELi69EEEED1Ev, symObjAddr: 0x14F0, symBinAddr: 0x100005288, symSize: 0x2C }
  - { offsetInCU: 0xF529, offset: 0xF529, size: 0x8, addend: 0x0, symName: __ZN5Eigen8internal9evaluatorINS_6MatrixIdLi1ELi69ELi1ELi1ELi69EEEEC2ERKS3_, symObjAddr: 0x151C, symBinAddr: 0x1000052B4, symSize: 0x34 }
  - { offsetInCU: 0xF562, offset: 0xF562, size: 0x8, addend: 0x0, symName: __ZN5Eigen8internal9evaluatorINS_15PlainObjectBaseINS_6MatrixIdLi1ELi69ELi1ELi1ELi69EEEEEEC2ERKS5_, symObjAddr: 0x1550, symBinAddr: 0x1000052E8, symSize: 0x78 }
  - { offsetInCU: 0xF59A, offset: 0xF59A, size: 0x8, addend: 0x0, symName: __ZN5Eigen8internal14evaluator_baseINS_6MatrixIdLi1ELi69ELi1ELi1ELi69EEEEC2Ev, symObjAddr: 0x15C8, symBinAddr: 0x100005360, symSize: 0x14 }
  - { offsetInCU: 0xF5C4, offset: 0xF5C4, size: 0x8, addend: 0x0, symName: __ZNK5Eigen15PlainObjectBaseINS_6MatrixIdLi1ELi69ELi1ELi1ELi69EEEE4dataEv, symObjAddr: 0x15DC, symBinAddr: 0x100005374, symSize: 0x24 }
  - { offsetInCU: 0xF5EA, offset: 0xF5EA, size: 0x8, addend: 0x0, symName: __ZN5Eigen8internal30plainobjectbase_evaluator_dataIdLi0EEC1EPKdl, symObjAddr: 0x1600, symBinAddr: 0x100005398, symSize: 0x3C }
  - { offsetInCU: 0xF630, offset: 0xF630, size: 0x8, addend: 0x0, symName: __ZN5Eigen8internal14evaluator_baseINS_6MatrixIdLi1ELi69ELi1ELi1ELi69EEEED2Ev, symObjAddr: 0x163C, symBinAddr: 0x1000053D4, symSize: 0x14 }
  - { offsetInCU: 0xF65A, offset: 0xF65A, size: 0x8, addend: 0x0, symName: __ZNK5Eigen12DenseStorageIdLi69ELi1ELi69ELi1EE4dataEv, symObjAddr: 0x1650, symBinAddr: 0x1000053E8, symSize: 0x14 }
  - { offsetInCU: 0xF680, offset: 0xF680, size: 0x8, addend: 0x0, symName: __ZN5Eigen8internal30plainobjectbase_evaluator_dataIdLi0EEC2EPKdl, symObjAddr: 0x1664, symBinAddr: 0x1000053FC, symSize: 0x40 }
  - { offsetInCU: 0xF6C6, offset: 0xF6C6, size: 0x8, addend: 0x0, symName: __ZNK5Eigen8internal30plainobjectbase_evaluator_dataIdLi0EE11outerStrideEv, symObjAddr: 0x16B4, symBinAddr: 0x10000544C, symSize: 0x14 }
  - { offsetInCU: 0xF6EC, offset: 0xF6EC, size: 0x8, addend: 0x0, symName: __ZN5Eigen8internal9evaluatorINS_6MatrixIdLi1ELi69ELi1ELi1ELi69EEEED2Ev, symObjAddr: 0x16C8, symBinAddr: 0x100005460, symSize: 0x2C }
  - { offsetInCU: 0xF719, offset: 0xF719, size: 0x8, addend: 0x0, symName: __ZN5Eigen8internal9evaluatorINS_15PlainObjectBaseINS_6MatrixIdLi1ELi69ELi1ELi1ELi69EEEEEED2Ev, symObjAddr: 0x16F4, symBinAddr: 0x10000548C, symSize: 0x2C }
  - { offsetInCU: 0xF745, offset: 0xF745, size: 0x8, addend: 0x0, symName: __ZNSt3__111char_traitsIcE6lengthEPKc, symObjAddr: 0x190C, symBinAddr: 0x1000056A4, symSize: 0x34 }
  - { offsetInCU: 0xF786, offset: 0xF786, size: 0x8, addend: 0x0, symName: __ZNKSt3__113basic_ostreamIcNS_11char_traitsIcEEE6sentrycvbB7v160006Ev, symObjAddr: 0x1940, symBinAddr: 0x1000056D8, symSize: 0x1C }
  - { offsetInCU: 0xF7AC, offset: 0xF7AC, size: 0x8, addend: 0x0, symName: __ZNSt3__119ostreambuf_iteratorIcNS_11char_traitsIcEEEC1B7v160006ERNS_13basic_ostreamIcS2_EE, symObjAddr: 0x1B9C, symBinAddr: 0x100005934, symSize: 0x34 }
  - { offsetInCU: 0xF7E4, offset: 0xF7E4, size: 0x8, addend: 0x0, symName: __ZNKSt3__18ios_base5flagsB7v160006Ev, symObjAddr: 0x1BD0, symBinAddr: 0x100005968, symSize: 0x18 }
  - { offsetInCU: 0xF80C, offset: 0xF80C, size: 0x8, addend: 0x0, symName: __ZNKSt3__19basic_iosIcNS_11char_traitsIcEEE4fillB7v160006Ev, symObjAddr: 0x1BE8, symBinAddr: 0x100005980, symSize: 0x64 }
  - { offsetInCU: 0xF834, offset: 0xF834, size: 0x8, addend: 0x0, symName: __ZNKSt3__119ostreambuf_iteratorIcNS_11char_traitsIcEEE6failedB7v160006Ev, symObjAddr: 0x1C4C, symBinAddr: 0x1000059E4, symSize: 0x24 }
  - { offsetInCU: 0xF85A, offset: 0xF85A, size: 0x8, addend: 0x0, symName: __ZNSt3__19basic_iosIcNS_11char_traitsIcEEE8setstateB7v160006Ej, symObjAddr: 0x1C70, symBinAddr: 0x100005A08, symSize: 0x2C }
  - { offsetInCU: 0xF88F, offset: 0xF88F, size: 0x8, addend: 0x0, symName: __ZNKSt3__18ios_base5widthB7v160006Ev, symObjAddr: 0x1C9C, symBinAddr: 0x100005A34, symSize: 0x18 }
  - { offsetInCU: 0xF8B7, offset: 0xF8B7, size: 0x8, addend: 0x0, symName: __ZNSt3__115basic_streambufIcNS_11char_traitsIcEEE5sputnB7v160006EPKcl, symObjAddr: 0x1CB4, symBinAddr: 0x100005A4C, symSize: 0x3C }
  - { offsetInCU: 0xF8F9, offset: 0xF8F9, size: 0x8, addend: 0x0, symName: __ZNSt3__112basic_stringIcNS_11char_traitsIcEENS_9allocatorIcEEEC1B7v160006Emc, symObjAddr: 0x1CF0, symBinAddr: 0x100005A88, symSize: 0x3C }
  - { offsetInCU: 0xF941, offset: 0xF941, size: 0x8, addend: 0x0, symName: __ZNKSt3__112basic_stringIcNS_11char_traitsIcEENS_9allocatorIcEEE4dataB7v160006Ev, symObjAddr: 0x1D2C, symBinAddr: 0x100005AC4, symSize: 0x28 }
  - { offsetInCU: 0xF967, offset: 0xF967, size: 0x8, addend: 0x0, symName: __ZNSt3__18ios_base5widthB7v160006El, symObjAddr: 0x1D54, symBinAddr: 0x100005AEC, symSize: 0x2C }
  - { offsetInCU: 0xF9AD, offset: 0xF9AD, size: 0x8, addend: 0x0, symName: __ZNSt3__112basic_stringIcNS_11char_traitsIcEENS_9allocatorIcEEEC2B7v160006Emc, symObjAddr: 0x1D80, symBinAddr: 0x100005B18, symSize: 0x54 }
  - { offsetInCU: 0xF9FA, offset: 0xF9FA, size: 0x8, addend: 0x0, symName: __ZNSt3__117__compressed_pairINS_12basic_stringIcNS_11char_traitsIcEENS_9allocatorIcEEE5__repES5_EC1B7v160006INS_18__default_init_tagESA_EEOT_OT0_, symObjAddr: 0x1DD4, symBinAddr: 0x100005B6C, symSize: 0x3C }
  - { offsetInCU: 0xFA52, offset: 0xFA52, size: 0x8, addend: 0x0, symName: __ZNSt3__117__compressed_pairINS_12basic_stringIcNS_11char_traitsIcEENS_9allocatorIcEEE5__repES5_EC2B7v160006INS_18__default_init_tagESA_EEOT_OT0_, symObjAddr: 0x1E20, symBinAddr: 0x100005BB8, symSize: 0x3C }
  - { offsetInCU: 0xFAAA, offset: 0xFAAA, size: 0x8, addend: 0x0, symName: __ZNSt3__122__compressed_pair_elemINS_12basic_stringIcNS_11char_traitsIcEENS_9allocatorIcEEE5__repELi0ELb0EEC2B7v160006ENS_18__default_init_tagE, symObjAddr: 0x1E5C, symBinAddr: 0x100005BF4, symSize: 0x14 }
  - { offsetInCU: 0xFADF, offset: 0xFADF, size: 0x8, addend: 0x0, symName: __ZNSt3__122__compressed_pair_elemINS_9allocatorIcEELi1ELb1EEC2B7v160006ENS_18__default_init_tagE, symObjAddr: 0x1E70, symBinAddr: 0x100005C08, symSize: 0x2C }
  - { offsetInCU: 0xFB14, offset: 0xFB14, size: 0x8, addend: 0x0, symName: __ZNSt3__19allocatorIcEC2B7v160006Ev, symObjAddr: 0x1E9C, symBinAddr: 0x100005C34, symSize: 0x2C }
  - { offsetInCU: 0xFB3E, offset: 0xFB3E, size: 0x8, addend: 0x0, symName: __ZNSt3__116__non_trivial_ifILb1ENS_9allocatorIcEEEC2B7v160006Ev, symObjAddr: 0x1EC8, symBinAddr: 0x100005C60, symSize: 0x14 }
  - { offsetInCU: 0xFB68, offset: 0xFB68, size: 0x8, addend: 0x0, symName: __ZNKSt3__112basic_stringIcNS_11char_traitsIcEENS_9allocatorIcEEE13__get_pointerB7v160006Ev, symObjAddr: 0x1EF0, symBinAddr: 0x100005C88, symSize: 0x54 }
  - { offsetInCU: 0xFB8E, offset: 0xFB8E, size: 0x8, addend: 0x0, symName: __ZNKSt3__112basic_stringIcNS_11char_traitsIcEENS_9allocatorIcEEE9__is_longB7v160006Ev, symObjAddr: 0x1F44, symBinAddr: 0x100005CDC, symSize: 0x38 }
  - { offsetInCU: 0xFBB4, offset: 0xFBB4, size: 0x8, addend: 0x0, symName: __ZNKSt3__112basic_stringIcNS_11char_traitsIcEENS_9allocatorIcEEE18__get_long_pointerB7v160006Ev, symObjAddr: 0x1F7C, symBinAddr: 0x100005D14, symSize: 0x28 }
  - { offsetInCU: 0xFBDA, offset: 0xFBDA, size: 0x8, addend: 0x0, symName: __ZNKSt3__112basic_stringIcNS_11char_traitsIcEENS_9allocatorIcEEE19__get_short_pointerB7v160006Ev, symObjAddr: 0x1FA4, symBinAddr: 0x100005D3C, symSize: 0x28 }
  - { offsetInCU: 0xFC00, offset: 0xFC00, size: 0x8, addend: 0x0, symName: __ZNKSt3__117__compressed_pairINS_12basic_stringIcNS_11char_traitsIcEENS_9allocatorIcEEE5__repES5_E5firstB7v160006Ev, symObjAddr: 0x1FCC, symBinAddr: 0x100005D64, symSize: 0x24 }
  - { offsetInCU: 0xFC26, offset: 0xFC26, size: 0x8, addend: 0x0, symName: __ZNKSt3__122__compressed_pair_elemINS_12basic_stringIcNS_11char_traitsIcEENS_9allocatorIcEEE5__repELi0ELb0EE5__getB7v160006Ev, symObjAddr: 0x1FF0, symBinAddr: 0x100005D88, symSize: 0x14 }
  - { offsetInCU: 0xFC4C, offset: 0xFC4C, size: 0x8, addend: 0x0, symName: __ZNSt3__114pointer_traitsIPKcE10pointer_toB7v160006ERS1_, symObjAddr: 0x2004, symBinAddr: 0x100005D9C, symSize: 0x14 }
  - { offsetInCU: 0xFC6F, offset: 0xFC6F, size: 0x8, addend: 0x0, symName: __ZNSt3__119ostreambuf_iteratorIcNS_11char_traitsIcEEEC2B7v160006ERNS_13basic_ostreamIcS2_EE, symObjAddr: 0x2018, symBinAddr: 0x100005DB0, symSize: 0x54 }
  - { offsetInCU: 0xFCA7, offset: 0xFCA7, size: 0x8, addend: 0x0, symName: __ZNKSt3__19basic_iosIcNS_11char_traitsIcEEE5rdbufB7v160006Ev, symObjAddr: 0x206C, symBinAddr: 0x100005E04, symSize: 0x24 }
  - { offsetInCU: 0xFCCF, offset: 0xFCCF, size: 0x8, addend: 0x0, symName: __ZNKSt3__18ios_base5rdbufB7v160006Ev, symObjAddr: 0x2090, symBinAddr: 0x100005E28, symSize: 0x18 }
  - { offsetInCU: 0xFCF5, offset: 0xFCF5, size: 0x8, addend: 0x0, symName: __ZNSt3__111char_traitsIcE11eq_int_typeEii, symObjAddr: 0x20A8, symBinAddr: 0x100005E40, symSize: 0x28 }
  - { offsetInCU: 0xFD26, offset: 0xFD26, size: 0x8, addend: 0x0, symName: __ZNSt3__111char_traitsIcE3eofEv, symObjAddr: 0x20D0, symBinAddr: 0x100005E68, symSize: 0x8 }
  - { offsetInCU: 0xFD3A, offset: 0xFD3A, size: 0x8, addend: 0x0, symName: __ZNKSt3__19basic_iosIcNS_11char_traitsIcEEE5widenB7v160006Ec, symObjAddr: 0x20D8, symBinAddr: 0x100005E70, symSize: 0x84 }
  - { offsetInCU: 0xFDA8, offset: 0xFDA8, size: 0x8, addend: 0x0, symName: __ZNKSt3__15ctypeIcE5widenB7v160006Ec, symObjAddr: 0x2188, symBinAddr: 0x100005F20, symSize: 0x38 }
  - { offsetInCU: 0xFDDD, offset: 0xFDDD, size: 0x8, addend: 0x0, symName: __ZNSt3__18ios_base8setstateB7v160006Ej, symObjAddr: 0x21C0, symBinAddr: 0x100005F58, symSize: 0x34 }
  - { offsetInCU: 0xFE14, offset: 0xFE14, size: 0x8, addend: 0x0, symName: __ZNK5Eigen9DenseBaseINS_6MatrixIdLi1ELi69ELi1ELi1ELi69EEEE4evalEv, symObjAddr: 0x2798, symBinAddr: 0x100006530, symSize: 0x24 }
  - { offsetInCU: 0xFE3F, offset: 0xFE3F, size: 0x8, addend: 0x0, symName: __ZNSt3__112basic_stringIcNS_11char_traitsIcEENS_9allocatorIcEEEC1B7v160006IDnEEPKc, symObjAddr: 0x27BC, symBinAddr: 0x100006554, symSize: 0x34 }
  - { offsetInCU: 0xFE7D, offset: 0xFE7D, size: 0x8, addend: 0x0, symName: __ZN5Eigen8IOFormatC1EiiRKNSt3__112basic_stringIcNS1_11char_traitsIcEENS1_9allocatorIcEEEES9_S9_S9_S9_S9_c, symObjAddr: 0x27F0, symBinAddr: 0x100006588, symSize: 0x88 }
  - { offsetInCU: 0xFF25, offset: 0xFF25, size: 0x8, addend: 0x0, symName: __ZN5Eigen8IOFormatD1Ev, symObjAddr: 0x2878, symBinAddr: 0x100006610, symSize: 0x2C }
  - { offsetInCU: 0xFF51, offset: 0xFF51, size: 0x8, addend: 0x0, symName: __ZN5Eigen8internal25significant_decimals_implIdE3runEv, symObjAddr: 0x28F0, symBinAddr: 0x100006688, symSize: 0x14 }
  - { offsetInCU: 0xFF65, offset: 0xFF65, size: 0x8, addend: 0x0, symName: __ZNSt3__18ios_base9precisionB7v160006El, symObjAddr: 0x2904, symBinAddr: 0x10000669C, symSize: 0x2C }
  - { offsetInCU: 0x10074, offset: 0x10074, size: 0x8, addend: 0x0, symName: __ZNSt3__118basic_stringstreamIcNS_11char_traitsIcEENS_9allocatorIcEEEC1B7v160006Ev, symObjAddr: 0x2930, symBinAddr: 0x1000066C8, symSize: 0x104 }
  - { offsetInCU: 0x1009E, offset: 0x1009E, size: 0x8, addend: 0x0, symName: __ZNK5Eigen15PlainObjectBaseINS_6MatrixIdLi1ELi69ELi1ELi1ELi69EEEE5coeffEll, symObjAddr: 0x2A34, symBinAddr: 0x1000067CC, symSize: 0x60 }
  - { offsetInCU: 0x100E0, offset: 0x100E0, size: 0x8, addend: 0x0, symName: __ZNKSt3__118basic_stringstreamIcNS_11char_traitsIcEENS_9allocatorIcEEE3strB7v160006Ev, symObjAddr: 0x2AC0, symBinAddr: 0x100006858, symSize: 0x30 }
  - { offsetInCU: 0x10106, offset: 0x10106, size: 0x8, addend: 0x0, symName: __ZNKSt3__112basic_stringIcNS_11char_traitsIcEENS_9allocatorIcEEE6lengthB7v160006Ev, symObjAddr: 0x2AF0, symBinAddr: 0x100006888, symSize: 0x24 }
  - { offsetInCU: 0x10131, offset: 0x10131, size: 0x8, addend: 0x0, symName: __ZNSt3__118basic_stringstreamIcNS_11char_traitsIcEENS_9allocatorIcEEED1Ev, symObjAddr: 0x2B14, symBinAddr: 0x1000068AC, symSize: 0x40 }
  - { offsetInCU: 0x1015E, offset: 0x1015E, size: 0x8, addend: 0x0, symName: __ZNSt3__19basic_iosIcNS_11char_traitsIcEEE4fillB7v160006Ec, symObjAddr: 0x2B54, symBinAddr: 0x1000068EC, symSize: 0x74 }
  - { offsetInCU: 0x101A4, offset: 0x101A4, size: 0x8, addend: 0x0, symName: __ZNKSt3__112basic_stringIcNS_11char_traitsIcEENS_9allocatorIcEEE4sizeB7v160006Ev, symObjAddr: 0x2BC8, symBinAddr: 0x100006960, symSize: 0x54 }
  - { offsetInCU: 0x101CA, offset: 0x101CA, size: 0x8, addend: 0x0, symName: __ZNKSt3__112basic_stringIcNS_11char_traitsIcEENS_9allocatorIcEEE15__get_long_sizeB7v160006Ev, symObjAddr: 0x2C1C, symBinAddr: 0x1000069B4, symSize: 0x28 }
  - { offsetInCU: 0x101F0, offset: 0x101F0, size: 0x8, addend: 0x0, symName: __ZNKSt3__112basic_stringIcNS_11char_traitsIcEENS_9allocatorIcEEE16__get_short_sizeB7v160006Ev, symObjAddr: 0x2C44, symBinAddr: 0x1000069DC, symSize: 0x34 }
  - { offsetInCU: 0x10216, offset: 0x10216, size: 0x8, addend: 0x0, symName: __ZN5Eigen16GenericNumTraitsIdE8digits10Ev, symObjAddr: 0x2C78, symBinAddr: 0x100006A10, symSize: 0x14 }
  - { offsetInCU: 0x1022A, offset: 0x1022A, size: 0x8, addend: 0x0, symName: __ZN5Eigen8internal21default_digits10_implIdLb1ELb0EE3runEv, symObjAddr: 0x2C8C, symBinAddr: 0x100006A24, symSize: 0x8 }
  - { offsetInCU: 0x1023E, offset: 0x1023E, size: 0x8, addend: 0x0, symName: __ZNSt3__19basic_iosIcNS_11char_traitsIcEEEC2B7v160006Ev, symObjAddr: 0x2C94, symBinAddr: 0x100006A2C, symSize: 0x44 }
  - { offsetInCU: 0x10268, offset: 0x10268, size: 0x8, addend: 0x0, symName: __ZNSt3__114basic_iostreamIcNS_11char_traitsIcEEEC2B7v160006EPNS_15basic_streambufIcS2_EE, symObjAddr: 0x2CD8, symBinAddr: 0x100006A70, symSize: 0xAC }
  - { offsetInCU: 0x102AE, offset: 0x102AE, size: 0x8, addend: 0x0, symName: __ZNSt3__115basic_stringbufIcNS_11char_traitsIcEENS_9allocatorIcEEEC1B7v160006Ej, symObjAddr: 0x2D84, symBinAddr: 0x100006B1C, symSize: 0x34 }
  - { offsetInCU: 0x102E6, offset: 0x102E6, size: 0x8, addend: 0x0, symName: __ZNSt3__18ios_baseC2B7v160006Ev, symObjAddr: 0x2DB8, symBinAddr: 0x100006B50, symSize: 0x24 }
  - { offsetInCU: 0x10310, offset: 0x10310, size: 0x8, addend: 0x0, symName: __ZNSt3__113basic_istreamIcNS_11char_traitsIcEEEC2B7v160006EPNS_15basic_streambufIcS2_EE, symObjAddr: 0x2DDC, symBinAddr: 0x100006B74, symSize: 0x64 }
  - { offsetInCU: 0x10355, offset: 0x10355, size: 0x8, addend: 0x0, symName: __ZNSt3__113basic_ostreamIcNS_11char_traitsIcEEEC2B7v160006Ev, symObjAddr: 0x2E40, symBinAddr: 0x100006BD8, symSize: 0x34 }
  - { offsetInCU: 0x1038C, offset: 0x1038C, size: 0x8, addend: 0x0, symName: __ZNSt3__19basic_iosIcNS_11char_traitsIcEEE4initB7v160006EPNS_15basic_streambufIcS2_EE, symObjAddr: 0x2E74, symBinAddr: 0x100006C0C, symSize: 0x44 }
  - { offsetInCU: 0x103C3, offset: 0x103C3, size: 0x8, addend: 0x0, symName: __ZNSt3__115basic_stringbufIcNS_11char_traitsIcEENS_9allocatorIcEEEC2B7v160006Ej, symObjAddr: 0x2EB8, symBinAddr: 0x100006C50, symSize: 0x60 }
  - { offsetInCU: 0x103FB, offset: 0x103FB, size: 0x8, addend: 0x0, symName: __ZNSt3__112basic_stringIcNS_11char_traitsIcEENS_9allocatorIcEEEC1B7v160006Ev, symObjAddr: 0x2F18, symBinAddr: 0x100006CB0, symSize: 0x2C }
  - { offsetInCU: 0x10425, offset: 0x10425, size: 0x8, addend: 0x0, symName: __ZNSt3__112basic_stringIcNS_11char_traitsIcEENS_9allocatorIcEEEC2B7v160006Ev, symObjAddr: 0x2F44, symBinAddr: 0x100006CDC, symSize: 0x50 }
  - { offsetInCU: 0x1044F, offset: 0x1044F, size: 0x8, addend: 0x0, symName: __ZNSt3__112basic_stringIcNS_11char_traitsIcEENS_9allocatorIcEEE14__default_initB7v160006Ev, symObjAddr: 0x2F94, symBinAddr: 0x100006D2C, symSize: 0x40 }
  - { offsetInCU: 0x10475, offset: 0x10475, size: 0x8, addend: 0x0, symName: __ZNSt3__117__compressed_pairINS_12basic_stringIcNS_11char_traitsIcEENS_9allocatorIcEEE5__repES5_E5firstB7v160006Ev, symObjAddr: 0x2FD4, symBinAddr: 0x100006D6C, symSize: 0x24 }
  - { offsetInCU: 0x1049B, offset: 0x1049B, size: 0x8, addend: 0x0, symName: __ZNSt3__122__compressed_pair_elemINS_12basic_stringIcNS_11char_traitsIcEENS_9allocatorIcEEE5__repELi0ELb0EE5__getB7v160006Ev, symObjAddr: 0x2FF8, symBinAddr: 0x100006D90, symSize: 0x14 }
  - { offsetInCU: 0x104D5, offset: 0x104D5, size: 0x8, addend: 0x0, symName: __ZNKSt3__16__lessIllEclB7v160006ERKlS3_, symObjAddr: 0x3060, symBinAddr: 0x100006DF8, symSize: 0x34 }
  - { offsetInCU: 0x10517, offset: 0x10517, size: 0x8, addend: 0x0, symName: __ZNSt3__118basic_stringstreamIcNS_11char_traitsIcEENS_9allocatorIcEEED2Ev, symObjAddr: 0x3094, symBinAddr: 0x100006E2C, symSize: 0x6C }
  - { offsetInCU: 0x10551, offset: 0x10551, size: 0x8, addend: 0x0, symName: __ZThn16_NSt3__118basic_stringstreamIcNS_11char_traitsIcEENS_9allocatorIcEEED1Ev, symObjAddr: 0x3100, symBinAddr: 0x100006E98, symSize: 0x1C }
  - { offsetInCU: 0x10568, offset: 0x10568, size: 0x8, addend: 0x0, symName: __ZTv0_n24_NSt3__118basic_stringstreamIcNS_11char_traitsIcEENS_9allocatorIcEEED1Ev, symObjAddr: 0x311C, symBinAddr: 0x100006EB4, symSize: 0x28 }
  - { offsetInCU: 0x10584, offset: 0x10584, size: 0x8, addend: 0x0, symName: __ZNSt3__115basic_stringbufIcNS_11char_traitsIcEENS_9allocatorIcEEED1Ev, symObjAddr: 0x3144, symBinAddr: 0x100006EDC, symSize: 0x2C }
  - { offsetInCU: 0x105B1, offset: 0x105B1, size: 0x8, addend: 0x0, symName: __ZNSt3__115basic_stringbufIcNS_11char_traitsIcEENS_9allocatorIcEEED2Ev, symObjAddr: 0x3170, symBinAddr: 0x100006F08, symSize: 0x48 }
  - { offsetInCU: 0x105DE, offset: 0x105DE, size: 0x8, addend: 0x0, symName: __ZNSt3__112basic_stringIcNS_11char_traitsIcEENS_9allocatorIcEEEC2B7v160006IDnEEPKc, symObjAddr: 0x31B8, symBinAddr: 0x100006F50, symSize: 0x60 }
  - { offsetInCU: 0x1061C, offset: 0x1061C, size: 0x8, addend: 0x0, symName: __ZN5Eigen8IOFormatC2EiiRKNSt3__112basic_stringIcNS1_11char_traitsIcEENS1_9allocatorIcEEEES9_S9_S9_S9_S9_c, symObjAddr: 0x3218, symBinAddr: 0x100006FB0, symSize: 0x284 }
  - { offsetInCU: 0x106DB, offset: 0x106DB, size: 0x8, addend: 0x0, symName: __ZNSt3__112basic_stringIcNS_11char_traitsIcEENS_9allocatorIcEEEixB7v160006Em, symObjAddr: 0x349C, symBinAddr: 0x100007234, symSize: 0x30 }
  - { offsetInCU: 0x10710, offset: 0x10710, size: 0x8, addend: 0x0, symName: __ZNSt3__112basic_stringIcNS_11char_traitsIcEENS_9allocatorIcEEEpLB7v160006Ec, symObjAddr: 0x34CC, symBinAddr: 0x100007264, symSize: 0x34 }
  - { offsetInCU: 0x10745, offset: 0x10745, size: 0x8, addend: 0x0, symName: __ZNSt3__112basic_stringIcNS_11char_traitsIcEENS_9allocatorIcEEE13__get_pointerB7v160006Ev, symObjAddr: 0x3500, symBinAddr: 0x100007298, symSize: 0x54 }
  - { offsetInCU: 0x1076B, offset: 0x1076B, size: 0x8, addend: 0x0, symName: __ZNSt3__112basic_stringIcNS_11char_traitsIcEENS_9allocatorIcEEE18__get_long_pointerB7v160006Ev, symObjAddr: 0x3554, symBinAddr: 0x1000072EC, symSize: 0x28 }
  - { offsetInCU: 0x10791, offset: 0x10791, size: 0x8, addend: 0x0, symName: __ZNSt3__112basic_stringIcNS_11char_traitsIcEENS_9allocatorIcEEE19__get_short_pointerB7v160006Ev, symObjAddr: 0x357C, symBinAddr: 0x100007314, symSize: 0x28 }
  - { offsetInCU: 0x107B7, offset: 0x107B7, size: 0x8, addend: 0x0, symName: __ZNSt3__114pointer_traitsIPcE10pointer_toB7v160006ERc, symObjAddr: 0x35A4, symBinAddr: 0x10000733C, symSize: 0x14 }
  - { offsetInCU: 0x107DA, offset: 0x107DA, size: 0x8, addend: 0x0, symName: __ZN5Eigen8IOFormatD2Ev, symObjAddr: 0x35B8, symBinAddr: 0x100007350, symSize: 0x74 }
...
