---
triple:          'arm64-apple-darwin'
binary-path:     '/Users/christos/Desktop/Experimental/EKF-SLAM/test'
relocations:
  - { offsetInCU: 0x44, offset: 0x44, size: 0x8, addend: 0x0, symName: __ZN5EigenL4lastE, symObjAddr: 0xAABFED, symBinAddr: 0x10007C020, symSize: 0x0 }
  - { offsetInCU: 0x77F, offset: 0x77F, size: 0x8, addend: 0x0, symName: __ZN5Eigen8internal20manage_caching_sizesENS_6ActionEPlS2_S2_, symObjAddr: 0x1E1BC, symBinAddr: 0x10001EA6C, symSize: 0x138 }
  - { offsetInCU: 0x7A4, offset: 0x7A4, size: 0x8, addend: 0x0, symName: __ZZN5Eigen8internal20manage_caching_sizesENS_6ActionEPlS2_S2_E12m_cacheSizes, symObjAddr: 0x697A0, symBinAddr: 0x10007C000, symSize: 0x0 }
  - { offsetInCU: 0xC4A4, offset: 0xC4A4, size: 0x8, addend: 0x0, symName: __ZN5Eigen8internal37evaluateProductBlockingSizesHeuristicIddLi1ElEEvRT2_S3_S3_S2_, symObjAddr: 0x1D9CC, symBinAddr: 0x10001E27C, symSize: 0x7F0 }
  - { offsetInCU: 0x134CF, offset: 0x134CF, size: 0x8, addend: 0x0, symName: __ZN5Eigen8internal37evaluateProductBlockingSizesHeuristicIddLi4ElEEvRT2_S3_S3_S2_, symObjAddr: 0x479A4, symBinAddr: 0x100048254, symSize: 0x7EC }
  - { offsetInCU: 0x21607, offset: 0x21607, size: 0x8, addend: 0x0, symName: __ZN5Eigen8internal31conditional_aligned_delete_autoIdLb1EEEvPT_m, symObjAddr: 0x2570, symBinAddr: 0x100002E20, symSize: 0x28 }
  - { offsetInCU: 0x21653, offset: 0x21653, size: 0x8, addend: 0x0, symName: __ZN5Eigen8internal24conditional_aligned_freeILb1EEEvPv, symObjAddr: 0x25A4, symBinAddr: 0x100002E54, symSize: 0x24 }
  - { offsetInCU: 0x21687, offset: 0x21687, size: 0x8, addend: 0x0, symName: __ZN5Eigen8internal12aligned_freeEPv, symObjAddr: 0x25C8, symBinAddr: 0x100002E78, symSize: 0x24 }
  - { offsetInCU: 0x216E9, offset: 0x216E9, size: 0x8, addend: 0x0, symName: __ZN5Eigen8internal19throw_std_bad_allocEv, symObjAddr: 0x33D4, symBinAddr: 0x100003C84, symSize: 0x34 }
  - { offsetInCU: 0x21725, offset: 0x21725, size: 0x8, addend: 0x0, symName: __ZN5Eigen8internal28conditional_aligned_new_autoIdLb1EEEPT_m, symObjAddr: 0x34BC, symBinAddr: 0x100003D6C, symSize: 0x84 }
  - { offsetInCU: 0x21793, offset: 0x21793, size: 0x8, addend: 0x0, symName: __ZN5Eigen8internal26conditional_aligned_mallocILb1EEEPvm, symObjAddr: 0x3540, symBinAddr: 0x100003DF0, symSize: 0x24 }
  - { offsetInCU: 0x217C9, offset: 0x217C9, size: 0x8, addend: 0x0, symName: __ZN5Eigen8internal14aligned_mallocEm, symObjAddr: 0x3564, symBinAddr: 0x100003E14, symSize: 0xDC }
  - { offsetInCU: 0x2180A, offset: 0x2180A, size: 0x8, addend: 0x0, symName: __ZN5Eigen8internal28check_that_malloc_is_allowedEv, symObjAddr: 0x3640, symBinAddr: 0x100003EF0, symSize: 0x4 }
  - { offsetInCU: 0x21823, offset: 0x21823, size: 0x8, addend: 0x0, symName: __ZN5Eigen8internal24call_assignment_no_aliasINS_6MatrixIdLin1ELin1ELi0ELin1ELin1EEENS_13CwiseBinaryOpINS0_13scalar_sum_opIddEEKNS4_IS6_KNS_7ProductIS3_NS2_IdLin1ELi1ELi0ELin1ELi1EEELi0EEESA_EEKS3_EENS0_9assign_opIddEEEEvRT_RKT0_RKT1_, symObjAddr: 0x3644, symBinAddr: 0x100003EF4, symSize: 0x3C }
  - { offsetInCU: 0x218FB, offset: 0x218FB, size: 0x8, addend: 0x0, symName: __ZN5Eigen8internal18check_for_aliasingINS_6MatrixIdLin1ELin1ELi0ELin1ELin1EEENS_13CwiseBinaryOpINS0_13scalar_sum_opIddEEKNS4_IS6_KNS_7ProductIS3_NS2_IdLin1ELi1ELi0ELin1ELi1EEELi0EEESA_EEKS3_EEEEvRKT_RKT0_, symObjAddr: 0x3700, symBinAddr: 0x100003FB0, symSize: 0x60 }
  - { offsetInCU: 0x21946, offset: 0x21946, size: 0x8, addend: 0x0, symName: __ZN5Eigen8internal26call_dense_assignment_loopINS_6MatrixIdLin1ELin1ELi0ELin1ELin1EEENS_13CwiseBinaryOpINS0_13scalar_sum_opIddEEKNS4_IS6_KNS_7ProductIS3_NS2_IdLin1ELi1ELi0ELin1ELi1EEELi0EEESA_EEKS3_EENS0_9assign_opIddEEEEvRT_RKT0_RKT1_, symObjAddr: 0x3760, symBinAddr: 0x100004010, symSize: 0xE0 }
  - { offsetInCU: 0x21A39, offset: 0x21A39, size: 0x8, addend: 0x0, symName: __ZN5Eigen8internal17resize_if_allowedINS_6MatrixIdLin1ELin1ELi0ELin1ELin1EEENS_13CwiseBinaryOpINS0_13scalar_sum_opIddEEKNS4_IS6_KNS_7ProductIS3_NS2_IdLin1ELi1ELi0ELin1ELi1EEELi0EEESA_EEKS3_EEddEEvRT_RKT0_RKNS0_9assign_opIT1_T2_EE, symObjAddr: 0x3888, symBinAddr: 0x100004138, symSize: 0xF8 }
  - { offsetInCU: 0x21BF2, offset: 0x21BF2, size: 0x8, addend: 0x0, symName: __ZN5Eigen8internal22ignore_unused_variableIlEEvRKT_, symObjAddr: 0x43B8, symBinAddr: 0x100004C68, symSize: 0x10 }
  - { offsetInCU: 0x21C4B, offset: 0x21C4B, size: 0x8, addend: 0x0, symName: __ZN5Eigen8internal15call_assignmentINS_6MatrixIdLin1ELi1ELi0ELin1ELi1EEENS_14CwiseNullaryOpINS0_18scalar_constant_opIdEES3_EEEEvRT_RKT0_, symObjAddr: 0x4D9C, symBinAddr: 0x10000564C, symSize: 0x50 }
  - { offsetInCU: 0x21C96, offset: 0x21C96, size: 0x8, addend: 0x0, symName: __ZN5Eigen8internal15call_assignmentINS_6MatrixIdLin1ELi1ELi0ELin1ELi1EEENS_14CwiseNullaryOpINS0_18scalar_constant_opIdEES3_EENS0_9assign_opIddEEEEvRT_RKT0_RKT1_NS0_9enable_ifIXntsr25evaluator_assume_aliasingISC_EE5valueEPvE4typeE, symObjAddr: 0x4E00, symBinAddr: 0x1000056B0, symSize: 0x38 }
  - { offsetInCU: 0x21D04, offset: 0x21D04, size: 0x8, addend: 0x0, symName: __ZN5Eigen8internal24call_assignment_no_aliasINS_6MatrixIdLin1ELi1ELi0ELin1ELi1EEENS_14CwiseNullaryOpINS0_18scalar_constant_opIdEES3_EENS0_9assign_opIddEEEEvRT_RKT0_RKT1_, symObjAddr: 0x4E38, symBinAddr: 0x1000056E8, symSize: 0x3C }
  - { offsetInCU: 0x21DD2, offset: 0x21DD2, size: 0x8, addend: 0x0, symName: __ZN5Eigen8internal18check_for_aliasingINS_6MatrixIdLin1ELi1ELi0ELin1ELi1EEENS_14CwiseNullaryOpINS0_18scalar_constant_opIdEES3_EEEEvRKT_RKT0_, symObjAddr: 0x4EB4, symBinAddr: 0x100005764, symSize: 0x14 }
  - { offsetInCU: 0x21E1D, offset: 0x21E1D, size: 0x8, addend: 0x0, symName: __ZN5Eigen8internal26call_dense_assignment_loopINS_6MatrixIdLin1ELi1ELi0ELin1ELi1EEEEEvRT_RKNS_14CwiseNullaryOpINS0_18scalar_constant_opINS4_6ScalarEEES4_EERKNS0_9assign_opIS8_S8_EE, symObjAddr: 0x4EC8, symBinAddr: 0x100005778, symSize: 0x6C }
  - { offsetInCU: 0x21E6E, offset: 0x21E6E, size: 0x8, addend: 0x0, symName: __ZN5Eigen8internal17resize_if_allowedINS_6MatrixIdLin1ELi1ELi0ELin1ELi1EEENS_14CwiseNullaryOpINS0_18scalar_constant_opIdEES3_EEddEEvRT_RKT0_RKNS0_9assign_opIT1_T2_EE, symObjAddr: 0x4F34, symBinAddr: 0x1000057E4, symSize: 0xF8 }
  - { offsetInCU: 0x226BC, offset: 0x226BC, size: 0x8, addend: 0x0, symName: __ZN5Eigen8internal4pmulIdEET_RKS2_S4_, symObjAddr: 0x73E8, symBinAddr: 0x100007C98, symSize: 0x28 }
  - { offsetInCU: 0x2283B, offset: 0x2283B, size: 0x8, addend: 0x0, symName: __ZN5Eigen8internal5pset1I19__simd128_float64_tEET_RKNS0_15unpacket_traitsIS3_E4typeE, symObjAddr: 0x917C, symBinAddr: 0x100009A2C, symSize: 0x44 }
  - { offsetInCU: 0x228E5, offset: 0x228E5, size: 0x8, addend: 0x0, symName: __ZN5Eigen8internal7pstoreuId19__simd128_float64_tEEvPT_RKT0_, symObjAddr: 0x9214, symBinAddr: 0x100009AC4, symSize: 0x2C }
  - { offsetInCU: 0x2294D, offset: 0x2294D, size: 0x8, addend: 0x0, symName: __ZN5Eigen8internal5pmaddI19__simd128_float64_tEET_RKS3_S5_S5_, symObjAddr: 0x9240, symBinAddr: 0x100009AF0, symSize: 0x54 }
  - { offsetInCU: 0x229A2, offset: 0x229A2, size: 0x8, addend: 0x0, symName: __ZN5Eigen8internal6ploaduI19__simd128_float64_tEET_PKNS0_15unpacket_traitsIS3_E4typeE, symObjAddr: 0x9294, symBinAddr: 0x100009B44, symSize: 0x28 }
  - { offsetInCU: 0x22D46, offset: 0x22D46, size: 0x8, addend: 0x0, symName: __ZN5Eigen8internal6pstoreId19__simd128_float64_tEEvPT_RKT0_, symObjAddr: 0x9968, symBinAddr: 0x10000A218, symSize: 0x2C }
  - { offsetInCU: 0x22DDF, offset: 0x22DDF, size: 0x8, addend: 0x0, symName: __ZN5Eigen8internal4paddI19__simd128_float64_tEET_RKS3_S5_, symObjAddr: 0x9A84, symBinAddr: 0x10000A334, symSize: 0x40 }
  - { offsetInCU: 0x22E25, offset: 0x22E25, size: 0x8, addend: 0x0, symName: __ZN5Eigen8internal5ploadI19__simd128_float64_tEET_PKNS0_15unpacket_traitsIS3_E4typeE, symObjAddr: 0x9B14, symBinAddr: 0x10000A3C4, symSize: 0x28 }
  - { offsetInCU: 0x22E79, offset: 0x22E79, size: 0x8, addend: 0x0, symName: __ZN5Eigen8internal24call_assignment_no_aliasINS_6MatrixIdLin1ELi1ELi0ELin1ELi1EEENS_13CwiseBinaryOpINS0_13scalar_sum_opIddEEKNS_7ProductINS2_IdLin1ELin1ELi0ELin1ELin1EEES3_Li0EEEKS8_EENS0_9assign_opIddEEEEvRT_RKT0_RKT1_, symObjAddr: 0xA300, symBinAddr: 0x10000ABB0, symSize: 0x3C }
  - { offsetInCU: 0x22F47, offset: 0x22F47, size: 0x8, addend: 0x0, symName: __ZN5Eigen8internal18check_for_aliasingINS_6MatrixIdLin1ELi1ELi0ELin1ELi1EEENS_13CwiseBinaryOpINS0_13scalar_sum_opIddEEKNS_7ProductINS2_IdLin1ELin1ELi0ELin1ELin1EEES3_Li0EEEKS8_EEEEvRKT_RKT0_, symObjAddr: 0xA37C, symBinAddr: 0x10000AC2C, symSize: 0x14 }
  - { offsetInCU: 0x22F92, offset: 0x22F92, size: 0x8, addend: 0x0, symName: __ZN5Eigen8internal26call_dense_assignment_loopINS_6MatrixIdLin1ELi1ELi0ELin1ELi1EEENS_13CwiseBinaryOpINS0_13scalar_sum_opIddEEKNS_7ProductINS2_IdLin1ELin1ELi0ELin1ELin1EEES3_Li0EEEKS8_EENS0_9assign_opIddEEEEvRT_RKT0_RKT1_, symObjAddr: 0xA390, symBinAddr: 0x10000AC40, symSize: 0xE0 }
  - { offsetInCU: 0x23047, offset: 0x23047, size: 0x8, addend: 0x0, symName: __ZN5Eigen8internal17resize_if_allowedINS_6MatrixIdLin1ELi1ELi0ELin1ELi1EEENS_13CwiseBinaryOpINS0_13scalar_sum_opIddEEKNS_7ProductINS2_IdLin1ELin1ELi0ELin1ELin1EEES3_Li0EEEKS8_EEddEEvRT_RKT0_RKNS0_9assign_opIT1_T2_EE, symObjAddr: 0xA4A4, symBinAddr: 0x10000AD54, symSize: 0xF8 }
  - { offsetInCU: 0x230CD, offset: 0x230CD, size: 0x8, addend: 0x0, symName: __ZN5Eigen8internal24call_assignment_no_aliasINS_6MatrixIdLin1ELin1ELi0ELin1ELin1EEENS_13CwiseBinaryOpINS0_17scalar_product_opIddEEKNS_14CwiseNullaryOpINS0_18scalar_identity_opIdEES3_EEKNS7_INS0_18scalar_constant_opIdEEKS3_EEEENS0_9assign_opIddEEEEvRT_RKT0_RKT1_, symObjAddr: 0xB674, symBinAddr: 0x10000BF24, symSize: 0x3C }
  - { offsetInCU: 0x2319B, offset: 0x2319B, size: 0x8, addend: 0x0, symName: __ZN5Eigen8internal18check_for_aliasingINS_6MatrixIdLin1ELin1ELi0ELin1ELin1EEENS_13CwiseBinaryOpINS0_17scalar_product_opIddEEKNS_14CwiseNullaryOpINS0_18scalar_identity_opIdEES3_EEKNS7_INS0_18scalar_constant_opIdEEKS3_EEEEEEvRKT_RKT0_, symObjAddr: 0xB6F0, symBinAddr: 0x10000BFA0, symSize: 0x60 }
  - { offsetInCU: 0x231E6, offset: 0x231E6, size: 0x8, addend: 0x0, symName: __ZN5Eigen8internal26call_dense_assignment_loopINS_6MatrixIdLin1ELin1ELi0ELin1ELin1EEENS_13CwiseBinaryOpINS0_17scalar_product_opIddEEKNS_14CwiseNullaryOpINS0_18scalar_identity_opIdEES3_EEKNS7_INS0_18scalar_constant_opIdEEKS3_EEEENS0_9assign_opIddEEEEvRT_RKT0_RKT1_, symObjAddr: 0xB750, symBinAddr: 0x10000C000, symSize: 0xD8 }
  - { offsetInCU: 0x23774, offset: 0x23774, size: 0x8, addend: 0x0, symName: __ZN5Eigen8internal17resize_if_allowedINS_6MatrixIdLin1ELin1ELi0ELin1ELin1EEENS_13CwiseBinaryOpINS0_17scalar_product_opIddEEKNS_14CwiseNullaryOpINS0_18scalar_identity_opIdEES3_EEKNS7_INS0_18scalar_constant_opIdEEKS3_EEEEddEEvRT_RKT0_RKNS0_9assign_opIT1_T2_EE, symObjAddr: 0xB870, symBinAddr: 0x10000C120, symSize: 0xF8 }
  - { offsetInCU: 0x23A76, offset: 0x23A76, size: 0x8, addend: 0x0, symName: __ZN5Eigen8internal22ignore_unused_variableIbEEvRKT_, symObjAddr: 0xC544, symBinAddr: 0x10000CDF4, symSize: 0x10 }
  - { offsetInCU: 0x23AA5, offset: 0x23AA5, size: 0x8, addend: 0x0, symName: __ZN5Eigen8internal24call_assignment_no_aliasINS_6MatrixIdLin1ELin1ELi0ELin1ELin1EEENS_14CwiseNullaryOpINS0_18scalar_identity_opIdEES3_EENS0_9assign_opIddEEEEvRT_RKT0_RKT1_, symObjAddr: 0xCE1C, symBinAddr: 0x10000D6CC, symSize: 0x3C }
  - { offsetInCU: 0x23B73, offset: 0x23B73, size: 0x8, addend: 0x0, symName: __ZN5Eigen8internal18check_for_aliasingINS_6MatrixIdLin1ELin1ELi0ELin1ELin1EEENS_14CwiseNullaryOpINS0_18scalar_identity_opIdEES3_EEEEvRKT_RKT0_, symObjAddr: 0xCE98, symBinAddr: 0x10000D748, symSize: 0x60 }
  - { offsetInCU: 0x23BBE, offset: 0x23BBE, size: 0x8, addend: 0x0, symName: __ZN5Eigen8internal26call_dense_assignment_loopINS_6MatrixIdLin1ELin1ELi0ELin1ELin1EEENS_14CwiseNullaryOpINS0_18scalar_identity_opIdEES3_EENS0_9assign_opIddEEEEvRT_RKT0_RKT1_, symObjAddr: 0xCEF8, symBinAddr: 0x10000D7A8, symSize: 0xD8 }
  - { offsetInCU: 0x23CB0, offset: 0x23CB0, size: 0x8, addend: 0x0, symName: __ZN5Eigen8internal17resize_if_allowedINS_6MatrixIdLin1ELin1ELi0ELin1ELin1EEENS_14CwiseNullaryOpINS0_18scalar_identity_opIdEES3_EEddEEvRT_RKT0_RKNS0_9assign_opIT1_T2_EE, symObjAddr: 0xD018, symBinAddr: 0x10000D8C8, symSize: 0xF8 }
  - { offsetInCU: 0x23F88, offset: 0x23F88, size: 0x8, addend: 0x0, symName: __ZN5Eigen8internal24call_assignment_no_aliasINS_6MatrixIdLin1ELi1ELi0ELin1ELi1EEENS_13CwiseBinaryOpINS0_17scalar_product_opIddEEKNS_14CwiseNullaryOpINS0_18scalar_constant_opIdEEKNS2_IdLin1ELin1ELi0ELin1ELin1EEEEEKNS7_INS0_16scalar_random_opIdEESA_EEEENS0_9assign_opIddEEEEvRT_RKT0_RKT1_, symObjAddr: 0xDE60, symBinAddr: 0x10000E710, symSize: 0x3C }
  - { offsetInCU: 0x24056, offset: 0x24056, size: 0x8, addend: 0x0, symName: __ZN5Eigen8internal18check_for_aliasingINS_6MatrixIdLin1ELi1ELi0ELin1ELi1EEENS_13CwiseBinaryOpINS0_17scalar_product_opIddEEKNS_14CwiseNullaryOpINS0_18scalar_constant_opIdEEKNS2_IdLin1ELin1ELi0ELin1ELin1EEEEEKNS7_INS0_16scalar_random_opIdEESA_EEEEEEvRKT_RKT0_, symObjAddr: 0xDEDC, symBinAddr: 0x10000E78C, symSize: 0x14 }
  - { offsetInCU: 0x240A1, offset: 0x240A1, size: 0x8, addend: 0x0, symName: __ZN5Eigen8internal26call_dense_assignment_loopINS_6MatrixIdLin1ELi1ELi0ELin1ELi1EEENS_13CwiseBinaryOpINS0_17scalar_product_opIddEEKNS_14CwiseNullaryOpINS0_18scalar_constant_opIdEEKNS2_IdLin1ELin1ELi0ELin1ELin1EEEEEKNS7_INS0_16scalar_random_opIdEESA_EEEENS0_9assign_opIddEEEEvRT_RKT0_RKT1_, symObjAddr: 0xDEF0, symBinAddr: 0x10000E7A0, symSize: 0xD8 }
  - { offsetInCU: 0x244A2, offset: 0x244A2, size: 0x8, addend: 0x0, symName: __ZN5Eigen8internal17resize_if_allowedINS_6MatrixIdLin1ELi1ELi0ELin1ELi1EEENS_13CwiseBinaryOpINS0_17scalar_product_opIddEEKNS_14CwiseNullaryOpINS0_18scalar_constant_opIdEEKNS2_IdLin1ELin1ELi0ELin1ELin1EEEEEKNS7_INS0_16scalar_random_opIdEESA_EEEEddEEvRT_RKT0_RKNS0_9assign_opIT1_T2_EE, symObjAddr: 0xDFFC, symBinAddr: 0x10000E8AC, symSize: 0xF8 }
  - { offsetInCU: 0x2477A, offset: 0x2477A, size: 0x8, addend: 0x0, symName: __ZN5Eigen8internal6randomIdEENS0_13random_retvalINS0_36global_math_functions_filtering_baseIT_vE4typeEE4typeEv, symObjAddr: 0xE6E8, symBinAddr: 0x10000EF98, symSize: 0x14 }
  - { offsetInCU: 0x247F5, offset: 0x247F5, size: 0x8, addend: 0x0, symName: __ZN5Eigen8internal24call_assignment_no_aliasINS_6MatrixIdLin1ELin1ELi0ELin1ELin1EEENS2_IdLin1ELi1ELi0ELin1ELi1EEENS0_9assign_opIddEEEEvRT_RKT0_RKT1_, symObjAddr: 0xEB64, symBinAddr: 0x10000F414, symSize: 0x3C }
  - { offsetInCU: 0x248C3, offset: 0x248C3, size: 0x8, addend: 0x0, symName: __ZN5Eigen8internal18check_for_aliasingINS_6MatrixIdLin1ELin1ELi0ELin1ELin1EEENS2_IdLin1ELi1ELi0ELin1ELi1EEEEEvRKT_RKT0_, symObjAddr: 0xEBE0, symBinAddr: 0x10000F490, symSize: 0x60 }
  - { offsetInCU: 0x2490E, offset: 0x2490E, size: 0x8, addend: 0x0, symName: __ZN5Eigen8internal26call_dense_assignment_loopINS_6MatrixIdLin1ELin1ELi0ELin1ELin1EEENS2_IdLin1ELi1ELi0ELin1ELi1EEENS0_9assign_opIddEEEEvRT_RKT0_RKT1_, symObjAddr: 0xEC40, symBinAddr: 0x10000F4F0, symSize: 0xD8 }
  - { offsetInCU: 0x24A00, offset: 0x24A00, size: 0x8, addend: 0x0, symName: __ZN5Eigen8internal17resize_if_allowedINS_6MatrixIdLin1ELin1ELi0ELin1ELin1EEENS2_IdLin1ELi1ELi0ELin1ELi1EEEddEEvRT_RKT0_RKNS0_9assign_opIT1_T2_EE, symObjAddr: 0xED2C, symBinAddr: 0x10000F5DC, symSize: 0xF8 }
  - { offsetInCU: 0x24A86, offset: 0x24A86, size: 0x8, addend: 0x0, symName: __ZN5Eigen8internal24call_assignment_no_aliasINS_6MatrixIdLin1ELi1ELi0ELin1ELi1EEENS2_IdLin1ELin1ELi0ELin1ELin1EEENS0_9assign_opIddEEEEvRT_RKT0_RKT1_, symObjAddr: 0xF358, symBinAddr: 0x10000FC08, symSize: 0x3C }
  - { offsetInCU: 0x24B54, offset: 0x24B54, size: 0x8, addend: 0x0, symName: __ZN5Eigen8internal18check_for_aliasingINS_6MatrixIdLin1ELi1ELi0ELin1ELi1EEENS2_IdLin1ELin1ELi0ELin1ELin1EEEEEvRKT_RKT0_, symObjAddr: 0xF3D4, symBinAddr: 0x10000FC84, symSize: 0x14 }
  - { offsetInCU: 0x24B9F, offset: 0x24B9F, size: 0x8, addend: 0x0, symName: __ZN5Eigen8internal26call_dense_assignment_loopINS_6MatrixIdLin1ELi1ELi0ELin1ELi1EEENS2_IdLin1ELin1ELi0ELin1ELin1EEENS0_9assign_opIddEEEEvRT_RKT0_RKT1_, symObjAddr: 0xF3E8, symBinAddr: 0x10000FC98, symSize: 0xD8 }
  - { offsetInCU: 0x24C53, offset: 0x24C53, size: 0x8, addend: 0x0, symName: __ZN5Eigen8internal17resize_if_allowedINS_6MatrixIdLin1ELi1ELi0ELin1ELi1EEENS2_IdLin1ELin1ELi0ELin1ELin1EEEddEEvRT_RKT0_RKNS0_9assign_opIT1_T2_EE, symObjAddr: 0xF4C0, symBinAddr: 0x10000FD70, symSize: 0xF8 }
  - { offsetInCU: 0x24CD9, offset: 0x24CD9, size: 0x8, addend: 0x0, symName: __ZN5Eigen8internal24call_assignment_no_aliasINS_6MatrixIdLin1ELin1ELi0ELin1ELin1EEENS_14CwiseNullaryOpINS0_18scalar_constant_opIdEES3_EENS0_9assign_opIddEEEEvRT_RKT0_RKT1_, symObjAddr: 0xFD00, symBinAddr: 0x1000105B0, symSize: 0x3C }
  - { offsetInCU: 0x24DA7, offset: 0x24DA7, size: 0x8, addend: 0x0, symName: __ZN5Eigen8internal18check_for_aliasingINS_6MatrixIdLin1ELin1ELi0ELin1ELin1EEENS_14CwiseNullaryOpINS0_18scalar_constant_opIdEES3_EEEEvRKT_RKT0_, symObjAddr: 0xFD7C, symBinAddr: 0x10001062C, symSize: 0x60 }
  - { offsetInCU: 0x24DF2, offset: 0x24DF2, size: 0x8, addend: 0x0, symName: __ZN5Eigen8internal26call_dense_assignment_loopINS_6MatrixIdLin1ELin1ELi0ELin1ELin1EEEEEvRT_RKNS_14CwiseNullaryOpINS0_18scalar_constant_opINS4_6ScalarEEES4_EERKNS0_9assign_opIS8_S8_EE, symObjAddr: 0xFDDC, symBinAddr: 0x10001068C, symSize: 0x6C }
  - { offsetInCU: 0x24E81, offset: 0x24E81, size: 0x8, addend: 0x0, symName: __ZN5Eigen8internal17resize_if_allowedINS_6MatrixIdLin1ELin1ELi0ELin1ELin1EEENS_14CwiseNullaryOpINS0_18scalar_constant_opIdEES3_EEddEEvRT_RKT0_RKNS0_9assign_opIT1_T2_EE, symObjAddr: 0xFE5C, symBinAddr: 0x10001070C, symSize: 0xF8 }
  - { offsetInCU: 0x24F07, offset: 0x24F07, size: 0x8, addend: 0x0, symName: __ZN5Eigen8internal24call_assignment_no_aliasINS_6MatrixIdLin1ELin1ELi0ELin1ELin1EEENS_13CwiseBinaryOpINS0_13scalar_sum_opIddEEKNS_14CwiseNullaryOpINS0_18scalar_identity_opIdEES3_EEKNS4_INS0_17scalar_product_opIddEEKNS7_INS0_18scalar_constant_opIdEEKS3_EESG_EEEENS0_9assign_opIddEEEEvRT_RKT0_RKT1_, symObjAddr: 0x10678, symBinAddr: 0x100010F28, symSize: 0x3C }
  - { offsetInCU: 0x24FD5, offset: 0x24FD5, size: 0x8, addend: 0x0, symName: __ZN5Eigen8internal18check_for_aliasingINS_6MatrixIdLin1ELin1ELi0ELin1ELin1EEENS_13CwiseBinaryOpINS0_13scalar_sum_opIddEEKNS_14CwiseNullaryOpINS0_18scalar_identity_opIdEES3_EEKNS4_INS0_17scalar_product_opIddEEKNS7_INS0_18scalar_constant_opIdEEKS3_EESG_EEEEEEvRKT_RKT0_, symObjAddr: 0x106F4, symBinAddr: 0x100010FA4, symSize: 0x60 }
  - { offsetInCU: 0x25020, offset: 0x25020, size: 0x8, addend: 0x0, symName: __ZN5Eigen8internal26call_dense_assignment_loopINS_6MatrixIdLin1ELin1ELi0ELin1ELin1EEENS_13CwiseBinaryOpINS0_13scalar_sum_opIddEEKNS_14CwiseNullaryOpINS0_18scalar_identity_opIdEES3_EEKNS4_INS0_17scalar_product_opIddEEKNS7_INS0_18scalar_constant_opIdEEKS3_EESG_EEEENS0_9assign_opIddEEEEvRT_RKT0_RKT1_, symObjAddr: 0x10754, symBinAddr: 0x100011004, symSize: 0xD8 }
  - { offsetInCU: 0x254CF, offset: 0x254CF, size: 0x8, addend: 0x0, symName: __ZN5Eigen8internal17resize_if_allowedINS_6MatrixIdLin1ELin1ELi0ELin1ELin1EEENS_13CwiseBinaryOpINS0_13scalar_sum_opIddEEKNS_14CwiseNullaryOpINS0_18scalar_identity_opIdEES3_EEKNS4_INS0_17scalar_product_opIddEEKNS7_INS0_18scalar_constant_opIdEEKS3_EESG_EEEEddEEvRT_RKT0_RKNS0_9assign_opIT1_T2_EE, symObjAddr: 0x10874, symBinAddr: 0x100011124, symSize: 0xF8 }
  - { offsetInCU: 0x257A7, offset: 0x257A7, size: 0x8, addend: 0x0, symName: __ZN5Eigen8internal15call_assignmentINS_6MatrixIdLin1ELin1ELi0ELin1ELin1EEENS_13CwiseBinaryOpINS0_13scalar_sum_opIddEEKNS_7ProductINS7_IS3_S3_Li0EEENS_9TransposeIS3_EELi0EEEKS3_EEEEvRT_RKT0_, symObjAddr: 0x11ADC, symBinAddr: 0x10001238C, symSize: 0x50 }
  - { offsetInCU: 0x257F2, offset: 0x257F2, size: 0x8, addend: 0x0, symName: __ZN5Eigen8internal15call_assignmentINS_6MatrixIdLin1ELin1ELi0ELin1ELin1EEENS_13CwiseBinaryOpINS0_13scalar_sum_opIddEEKNS_7ProductINS7_IS3_S3_Li0EEENS_9TransposeIS3_EELi0EEEKS3_EENS0_9assign_opIddEEEEvRT_RKT0_RKT1_NS0_9enable_ifIXntsr25evaluator_assume_aliasingISJ_EE5valueEPvE4typeE, symObjAddr: 0x11B40, symBinAddr: 0x1000123F0, symSize: 0x38 }
  - { offsetInCU: 0x25860, offset: 0x25860, size: 0x8, addend: 0x0, symName: __ZN5Eigen8internal24call_assignment_no_aliasINS_6MatrixIdLin1ELin1ELi0ELin1ELin1EEENS_13CwiseBinaryOpINS0_13scalar_sum_opIddEEKNS_7ProductINS7_IS3_S3_Li0EEENS_9TransposeIS3_EELi0EEEKS3_EENS0_9assign_opIddEEEEvRT_RKT0_RKT1_, symObjAddr: 0x11B78, symBinAddr: 0x100012428, symSize: 0x3C }
  - { offsetInCU: 0x2592E, offset: 0x2592E, size: 0x8, addend: 0x0, symName: __ZN5Eigen8internal18check_for_aliasingINS_6MatrixIdLin1ELin1ELi0ELin1ELin1EEENS_13CwiseBinaryOpINS0_13scalar_sum_opIddEEKNS_7ProductINS7_IS3_S3_Li0EEENS_9TransposeIS3_EELi0EEEKS3_EEEEvRKT_RKT0_, symObjAddr: 0x11BF4, symBinAddr: 0x1000124A4, symSize: 0x60 }
  - { offsetInCU: 0x25979, offset: 0x25979, size: 0x8, addend: 0x0, symName: __ZN5Eigen8internal26call_dense_assignment_loopINS_6MatrixIdLin1ELin1ELi0ELin1ELin1EEENS_13CwiseBinaryOpINS0_13scalar_sum_opIddEEKNS_7ProductINS7_IS3_S3_Li0EEENS_9TransposeIS3_EELi0EEEKS3_EENS0_9assign_opIddEEEEvRT_RKT0_RKT1_, symObjAddr: 0x11C54, symBinAddr: 0x100012504, symSize: 0xD8 }
  - { offsetInCU: 0x25CA6, offset: 0x25CA6, size: 0x8, addend: 0x0, symName: __ZN5Eigen8internal17resize_if_allowedINS_6MatrixIdLin1ELin1ELi0ELin1ELin1EEENS_13CwiseBinaryOpINS0_13scalar_sum_opIddEEKNS_7ProductINS7_IS3_S3_Li0EEENS_9TransposeIS3_EELi0EEEKS3_EEddEEvRT_RKT0_RKNS0_9assign_opIT1_T2_EE, symObjAddr: 0x11D74, symBinAddr: 0x100012624, symSize: 0xF8 }
  - { offsetInCU: 0x26268, offset: 0x26268, size: 0x8, addend: 0x0, symName: __ZN5Eigen8internal22ignore_unused_variableIdEEvRKT_, symObjAddr: 0x131D0, symBinAddr: 0x100013A80, symSize: 0x10 }
  - { offsetInCU: 0x26297, offset: 0x26297, size: 0x8, addend: 0x0, symName: __ZN5Eigen8internal42call_restricted_packet_assignment_no_aliasINS_6MatrixIdLin1ELin1ELi1ELin1ELin1EEENS_7ProductINS4_INS2_IdLin1ELin1ELi0ELin1ELin1EEES5_Li0EEENS_9TransposeIKS5_EELi1EEENS0_9assign_opIddEEEEvRT_RKT0_RKT1_, symObjAddr: 0x131E0, symBinAddr: 0x100013A90, symSize: 0xE0 }
  - { offsetInCU: 0x26703, offset: 0x26703, size: 0x8, addend: 0x0, symName: __ZN5Eigen8internal17resize_if_allowedINS_6MatrixIdLin1ELin1ELi1ELin1ELin1EEENS_7ProductINS4_INS2_IdLin1ELin1ELi0ELin1ELin1EEES5_Li0EEENS_9TransposeIKS5_EELi1EEEddEEvRT_RKT0_RKNS0_9assign_opIT1_T2_EE, symObjAddr: 0x1333C, symBinAddr: 0x100013BEC, symSize: 0xF8 }
  - { offsetInCU: 0x26A38, offset: 0x26A38, size: 0x8, addend: 0x0, symName: __ZN5Eigen8internal24call_assignment_no_aliasINS_6MatrixIdLin1ELin1ELi0ELin1ELin1EEENS_7ProductIS3_S3_Li0EEENS0_9assign_opIddEEEEvRT_RKT0_RKT1_, symObjAddr: 0x138D8, symBinAddr: 0x100014188, symSize: 0x3C }
  - { offsetInCU: 0x26E79, offset: 0x26E79, size: 0x8, addend: 0x0, symName: __ZN5Eigen8internal42call_restricted_packet_assignment_no_aliasINS_6MatrixIdLin1ELin1ELi0ELin1ELin1EEENS_7ProductIS3_S3_Li1EEENS0_9assign_opIddEEEEvRT_RKT0_RKT1_, symObjAddr: 0x13FDC, symBinAddr: 0x10001488C, symSize: 0xD8 }
  - { offsetInCU: 0x26F2E, offset: 0x26F2E, size: 0x8, addend: 0x0, symName: __ZN5Eigen8internal17resize_if_allowedINS_6MatrixIdLin1ELin1ELi0ELin1ELin1EEENS_7ProductIS3_S3_Li1EEEddEEvRT_RKT0_RKNS0_9assign_opIT1_T2_EE, symObjAddr: 0x14134, symBinAddr: 0x1000149E4, symSize: 0xF8 }
  - { offsetInCU: 0x273B2, offset: 0x273B2, size: 0x8, addend: 0x0, symName: __ZN5Eigen8internal15call_assignmentINS_6MatrixIdLin1ELin1ELi0ELin1ELin1EEENS_14CwiseNullaryOpINS0_18scalar_constant_opIdEES3_EEEEvRT_RKT0_, symObjAddr: 0x16190, symBinAddr: 0x100016A40, symSize: 0x50 }
  - { offsetInCU: 0x273FD, offset: 0x273FD, size: 0x8, addend: 0x0, symName: __ZN5Eigen8internal15call_assignmentINS_6MatrixIdLin1ELin1ELi0ELin1ELin1EEENS_14CwiseNullaryOpINS0_18scalar_constant_opIdEES3_EENS0_9assign_opIddEEEEvRT_RKT0_RKT1_NS0_9enable_ifIXntsr25evaluator_assume_aliasingISC_EE5valueEPvE4typeE, symObjAddr: 0x161E0, symBinAddr: 0x100016A90, symSize: 0x38 }
  - { offsetInCU: 0x27AE2, offset: 0x27AE2, size: 0x8, addend: 0x0, symName: __ZN5Eigen8internal16parallelize_gemmILb1ENS0_12gemm_functorIdlNS0_29general_matrix_matrix_productIldLi0ELb0EdLi0ELb0ELi0ELi1EEENS_6MatrixIdLin1ELin1ELi0ELin1ELin1EEES6_S6_NS0_19gemm_blocking_spaceILi0EddLin1ELin1ELin1ELi1ELb0EEEEElEEvRKT0_T1_SD_SD_b, symObjAddr: 0x16510, symBinAddr: 0x100016DC0, symSize: 0x64 }
  - { offsetInCU: 0x289C4, offset: 0x289C4, size: 0x8, addend: 0x0, symName: __ZN5Eigen8internal15call_assignmentINS_3MapINS_6MatrixIdLin1ELi1ELi0ELin1ELi1EEELi0ENS_6StrideILi0ELi0EEEEENS_9TransposeIKNS_5BlockIKNS3_IdLin1ELin1ELi0ELin1ELin1EEELi1ELin1ELb0EEEEEEEvRT_RKT0_, symObjAddr: 0x1C870, symBinAddr: 0x10001D120, symSize: 0x50 }
  - { offsetInCU: 0x28A0F, offset: 0x28A0F, size: 0x8, addend: 0x0, symName: __ZN5Eigen8internal15call_assignmentINS_3MapINS_6MatrixIdLin1ELi1ELi0ELin1ELi1EEELi0ENS_6StrideILi0ELi0EEEEENS_9TransposeIKNS_5BlockIKNS3_IdLin1ELin1ELi0ELin1ELin1EEELi1ELin1ELb0EEEEENS0_9assign_opIddEEEEvRT_RKT0_RKT1_NS0_9enable_ifIXntsr25evaluator_assume_aliasingISJ_EE5valueEPvE4typeE, symObjAddr: 0x1C8D4, symBinAddr: 0x10001D184, symSize: 0x38 }
  - { offsetInCU: 0x28A7D, offset: 0x28A7D, size: 0x8, addend: 0x0, symName: __ZN5Eigen8internal24call_assignment_no_aliasINS_3MapINS_6MatrixIdLin1ELi1ELi0ELin1ELi1EEELi0ENS_6StrideILi0ELi0EEEEENS_9TransposeIKNS_5BlockIKNS3_IdLin1ELin1ELi0ELin1ELin1EEELi1ELin1ELb0EEEEENS0_9assign_opIddEEEEvRT_RKT0_RKT1_, symObjAddr: 0x1C90C, symBinAddr: 0x10001D1BC, symSize: 0x3C }
  - { offsetInCU: 0x28B4B, offset: 0x28B4B, size: 0x8, addend: 0x0, symName: __ZN5Eigen8internal18check_for_aliasingINS_3MapINS_6MatrixIdLin1ELi1ELi0ELin1ELi1EEELi0ENS_6StrideILi0ELi0EEEEENS_9TransposeIKNS_5BlockIKNS3_IdLin1ELin1ELi0ELin1ELin1EEELi1ELin1ELb0EEEEEEEvRKT_RKT0_, symObjAddr: 0x1C988, symBinAddr: 0x10001D238, symSize: 0x14 }
  - { offsetInCU: 0x28B96, offset: 0x28B96, size: 0x8, addend: 0x0, symName: __ZN5Eigen8internal26call_dense_assignment_loopINS_3MapINS_6MatrixIdLin1ELi1ELi0ELin1ELi1EEELi0ENS_6StrideILi0ELi0EEEEENS_9TransposeIKNS_5BlockIKNS3_IdLin1ELin1ELi0ELin1ELin1EEELi1ELin1ELb0EEEEENS0_9assign_opIddEEEEvRT_RKT0_RKT1_, symObjAddr: 0x1C99C, symBinAddr: 0x10001D24C, symSize: 0xE0 }
  - { offsetInCU: 0x28C4A, offset: 0x28C4A, size: 0x8, addend: 0x0, symName: __ZN5Eigen8internal17resize_if_allowedINS_3MapINS_6MatrixIdLin1ELi1ELi0ELin1ELi1EEELi0ENS_6StrideILi0ELi0EEEEENS_9TransposeIKNS_5BlockIKNS3_IdLin1ELin1ELi0ELin1ELin1EEELi1ELin1ELb0EEEEEddEEvRT_RKT0_RKNS0_9assign_opIT1_T2_EE, symObjAddr: 0x1CAB0, symBinAddr: 0x10001D360, symSize: 0xF8 }
  - { offsetInCU: 0x28F72, offset: 0x28F72, size: 0x8, addend: 0x0, symName: __ZN5Eigen8internal6preduxI19__simd128_float64_tEENS0_15unpacket_traitsIT_E4typeERKS4_, symObjAddr: 0x1D244, symBinAddr: 0x10001DAF4, symSize: 0x50 }
  - { offsetInCU: 0x28FA9, offset: 0x28FA9, size: 0x8, addend: 0x0, symName: __ZN5Eigen8internal27computeProductBlockingSizesIddLi1ElEEvRT2_S3_S3_S2_, symObjAddr: 0x1D930, symBinAddr: 0x10001E1E0, symSize: 0x58 }
  - { offsetInCU: 0x29025, offset: 0x29025, size: 0x8, addend: 0x0, symName: __ZN5Eigen8internal24useSpecificBlockingSizesIlEEbRT_S3_S3_, symObjAddr: 0x1D988, symBinAddr: 0x10001E238, symSize: 0x44 }
  - { offsetInCU: 0x2907A, offset: 0x2907A, size: 0x8, addend: 0x0, symName: __ZN5Eigen8internal15queryCacheSizesERiS1_S1_, symObjAddr: 0x1E3E0, symBinAddr: 0x10001EC90, symSize: 0x34 }
  - { offsetInCU: 0x290C2, offset: 0x290C2, size: 0x8, addend: 0x0, symName: __ZN5Eigen8internal27manage_caching_sizes_helperEll, symObjAddr: 0x1E414, symBinAddr: 0x10001ECC4, symSize: 0x44 }
  - { offsetInCU: 0x290FC, offset: 0x290FC, size: 0x8, addend: 0x0, symName: __ZN5Eigen8internal22ignore_unused_variableIPNS0_16GemmParallelInfoIlEEEEvRKT_, symObjAddr: 0x1F290, symBinAddr: 0x10001FB40, symSize: 0x10 }
  - { offsetInCU: 0x2916D, offset: 0x2916D, size: 0x8, addend: 0x0, symName: __ZN5Eigen8internal8prefetchIdEEvPKT_, symObjAddr: 0x2553C, symBinAddr: 0x100025DEC, symSize: 0x18 }
  - { offsetInCU: 0x29556, offset: 0x29556, size: 0x8, addend: 0x0, symName: __ZN5Eigen8internal5pmaddIdEET_RKS2_S4_S4_, symObjAddr: 0x26CCC, symBinAddr: 0x10002757C, symSize: 0x40 }
  - { offsetInCU: 0x295AB, offset: 0x295AB, size: 0x8, addend: 0x0, symName: __ZN5Eigen8internal4paddIdEET_RKS2_S4_, symObjAddr: 0x26D0C, symBinAddr: 0x1000275BC, symSize: 0x28 }
  - { offsetInCU: 0x295EE, offset: 0x295EE, size: 0x8, addend: 0x0, symName: __ZN5Eigen8internal14aligned_deleteIdEEvPT_m, symObjAddr: 0x26DD8, symBinAddr: 0x100027688, symSize: 0x34 }
  - { offsetInCU: 0x29630, offset: 0x29630, size: 0x8, addend: 0x0, symName: __ZN5Eigen8internal26destruct_elements_of_arrayIdEEvPT_m, symObjAddr: 0x26E0C, symBinAddr: 0x1000276BC, symSize: 0x54 }
  - { offsetInCU: 0x29A01, offset: 0x29A01, size: 0x8, addend: 0x0, symName: __ZN5Eigen8internal15call_assignmentINS_6MatrixIdLin1ELin1ELi1ELin1ELin1EEENS_14CwiseNullaryOpINS0_18scalar_constant_opIdEES3_EEEEvRT_RKT0_, symObjAddr: 0x28B74, symBinAddr: 0x100029424, symSize: 0x50 }
  - { offsetInCU: 0x29A4C, offset: 0x29A4C, size: 0x8, addend: 0x0, symName: __ZN5Eigen8internal15call_assignmentINS_6MatrixIdLin1ELin1ELi1ELin1ELin1EEENS_14CwiseNullaryOpINS0_18scalar_constant_opIdEES3_EENS0_9assign_opIddEEEEvRT_RKT0_RKT1_NS0_9enable_ifIXntsr25evaluator_assume_aliasingISC_EE5valueEPvE4typeE, symObjAddr: 0x28BD8, symBinAddr: 0x100029488, symSize: 0x38 }
  - { offsetInCU: 0x29ABA, offset: 0x29ABA, size: 0x8, addend: 0x0, symName: __ZN5Eigen8internal24call_assignment_no_aliasINS_6MatrixIdLin1ELin1ELi1ELin1ELin1EEENS_14CwiseNullaryOpINS0_18scalar_constant_opIdEES3_EENS0_9assign_opIddEEEEvRT_RKT0_RKT1_, symObjAddr: 0x28C10, symBinAddr: 0x1000294C0, symSize: 0x3C }
  - { offsetInCU: 0x29B88, offset: 0x29B88, size: 0x8, addend: 0x0, symName: __ZN5Eigen8internal18check_for_aliasingINS_6MatrixIdLin1ELin1ELi1ELin1ELin1EEENS_14CwiseNullaryOpINS0_18scalar_constant_opIdEES3_EEEEvRKT_RKT0_, symObjAddr: 0x28C8C, symBinAddr: 0x10002953C, symSize: 0x60 }
  - { offsetInCU: 0x29BD3, offset: 0x29BD3, size: 0x8, addend: 0x0, symName: __ZN5Eigen8internal26call_dense_assignment_loopINS_6MatrixIdLin1ELin1ELi1ELin1ELin1EEEEEvRT_RKNS_14CwiseNullaryOpINS0_18scalar_constant_opINS4_6ScalarEEES4_EERKNS0_9assign_opIS8_S8_EE, symObjAddr: 0x28CEC, symBinAddr: 0x10002959C, symSize: 0x6C }
  - { offsetInCU: 0x29C62, offset: 0x29C62, size: 0x8, addend: 0x0, symName: __ZN5Eigen8internal17resize_if_allowedINS_6MatrixIdLin1ELin1ELi1ELin1ELin1EEENS_14CwiseNullaryOpINS0_18scalar_constant_opIdEES3_EEddEEvRT_RKT0_RKNS0_9assign_opIT1_T2_EE, symObjAddr: 0x28D6C, symBinAddr: 0x10002961C, symSize: 0xF8 }
  - { offsetInCU: 0x2A35F, offset: 0x2A35F, size: 0x8, addend: 0x0, symName: __ZN5Eigen8internal16parallelize_gemmILb1ENS0_12gemm_functorIdlNS0_29general_matrix_matrix_productIldLi0ELb0EdLi1ELb0ELi1ELi1EEENS_6MatrixIdLin1ELin1ELi0ELin1ELin1EEENS_9TransposeIKS6_EENS5_IdLin1ELin1ELi1ELin1ELin1EEENS0_19gemm_blocking_spaceILi1EddLin1ELin1ELin1ELi1ELb0EEEEElEEvRKT0_T1_SH_SH_b, symObjAddr: 0x29390, symBinAddr: 0x100029C40, symSize: 0x64 }
  - { offsetInCU: 0x2AF21, offset: 0x2AF21, size: 0x8, addend: 0x0, symName: __ZN5Eigen8internal15call_assignmentINS_3MapINS_6MatrixIdLin1ELi1ELi0ELin1ELi1EEELi2ENS_6StrideILi0ELi0EEEEENS_5BlockINS3_IdLin1ELin1ELi1ELin1ELin1EEELin1ELi1ELb0EEEEEvRT_RKT0_, symObjAddr: 0x2C6D4, symBinAddr: 0x10002CF84, symSize: 0x50 }
  - { offsetInCU: 0x2AF6C, offset: 0x2AF6C, size: 0x8, addend: 0x0, symName: __ZN5Eigen8internal15call_assignmentINS_3MapINS_6MatrixIdLin1ELi1ELi0ELin1ELi1EEELi2ENS_6StrideILi0ELi0EEEEENS_5BlockINS3_IdLin1ELin1ELi1ELin1ELin1EEELin1ELi1ELb0EEENS0_9assign_opIddEEEEvRT_RKT0_RKT1_NS0_9enable_ifIXntsr25evaluator_assume_aliasingISF_EE5valueEPvE4typeE, symObjAddr: 0x2C738, symBinAddr: 0x10002CFE8, symSize: 0x38 }
  - { offsetInCU: 0x2AFDA, offset: 0x2AFDA, size: 0x8, addend: 0x0, symName: __ZN5Eigen8internal24call_assignment_no_aliasINS_3MapINS_6MatrixIdLin1ELi1ELi0ELin1ELi1EEELi2ENS_6StrideILi0ELi0EEEEENS_5BlockINS3_IdLin1ELin1ELi1ELin1ELin1EEELin1ELi1ELb0EEENS0_9assign_opIddEEEEvRT_RKT0_RKT1_, symObjAddr: 0x2C770, symBinAddr: 0x10002D020, symSize: 0x3C }
  - { offsetInCU: 0x2B0A8, offset: 0x2B0A8, size: 0x8, addend: 0x0, symName: __ZN5Eigen8internal18check_for_aliasingINS_3MapINS_6MatrixIdLin1ELi1ELi0ELin1ELi1EEELi2ENS_6StrideILi0ELi0EEEEENS_5BlockINS3_IdLin1ELin1ELi1ELin1ELin1EEELin1ELi1ELb0EEEEEvRKT_RKT0_, symObjAddr: 0x2C7EC, symBinAddr: 0x10002D09C, symSize: 0x14 }
  - { offsetInCU: 0x2B0F3, offset: 0x2B0F3, size: 0x8, addend: 0x0, symName: __ZN5Eigen8internal26call_dense_assignment_loopINS_3MapINS_6MatrixIdLin1ELi1ELi0ELin1ELi1EEELi2ENS_6StrideILi0ELi0EEEEENS_5BlockINS3_IdLin1ELin1ELi1ELin1ELin1EEELin1ELi1ELb0EEENS0_9assign_opIddEEEEvRT_RKT0_RKT1_, symObjAddr: 0x2C800, symBinAddr: 0x10002D0B0, symSize: 0xE0 }
  - { offsetInCU: 0x2B263, offset: 0x2B263, size: 0x8, addend: 0x0, symName: __ZN5Eigen8internal17resize_if_allowedINS_3MapINS_6MatrixIdLin1ELi1ELi0ELin1ELi1EEELi2ENS_6StrideILi0ELi0EEEEENS_5BlockINS3_IdLin1ELin1ELi1ELin1ELin1EEELin1ELi1ELb0EEEddEEvRT_RKT0_RKNS0_9assign_opIT1_T2_EE, symObjAddr: 0x2C914, symBinAddr: 0x10002D1C4, symSize: 0xF8 }
  - { offsetInCU: 0x2B58B, offset: 0x2B58B, size: 0x8, addend: 0x0, symName: __ZN5Eigen8internal15call_assignmentINS_5BlockINS_6MatrixIdLin1ELin1ELi1ELin1ELin1EEELin1ELi1ELb0EEENS_3MapINS3_IdLin1ELi1ELi0ELin1ELi1EEELi2ENS_6StrideILi0ELi0EEEEEEEvRT_RKT0_, symObjAddr: 0x2D368, symBinAddr: 0x10002DC18, symSize: 0x50 }
  - { offsetInCU: 0x2B5D6, offset: 0x2B5D6, size: 0x8, addend: 0x0, symName: __ZN5Eigen8internal15call_assignmentINS_5BlockINS_6MatrixIdLin1ELin1ELi1ELin1ELin1EEELin1ELi1ELb0EEENS_3MapINS3_IdLin1ELi1ELi0ELin1ELi1EEELi2ENS_6StrideILi0ELi0EEEEENS0_9assign_opIddEEEEvRT_RKT0_RKT1_NS0_9enable_ifIXntsr25evaluator_assume_aliasingISF_EE5valueEPvE4typeE, symObjAddr: 0x2D3CC, symBinAddr: 0x10002DC7C, symSize: 0x38 }
  - { offsetInCU: 0x2B644, offset: 0x2B644, size: 0x8, addend: 0x0, symName: __ZN5Eigen8internal24call_assignment_no_aliasINS_5BlockINS_6MatrixIdLin1ELin1ELi1ELin1ELin1EEELin1ELi1ELb0EEENS_3MapINS3_IdLin1ELi1ELi0ELin1ELi1EEELi2ENS_6StrideILi0ELi0EEEEENS0_9assign_opIddEEEEvRT_RKT0_RKT1_, symObjAddr: 0x2D404, symBinAddr: 0x10002DCB4, symSize: 0x3C }
  - { offsetInCU: 0x2B712, offset: 0x2B712, size: 0x8, addend: 0x0, symName: __ZN5Eigen8internal18check_for_aliasingINS_5BlockINS_6MatrixIdLin1ELin1ELi1ELin1ELin1EEELin1ELi1ELb0EEENS_3MapINS3_IdLin1ELi1ELi0ELin1ELi1EEELi2ENS_6StrideILi0ELi0EEEEEEEvRKT_RKT0_, symObjAddr: 0x2D480, symBinAddr: 0x10002DD30, symSize: 0x14 }
  - { offsetInCU: 0x2B75D, offset: 0x2B75D, size: 0x8, addend: 0x0, symName: __ZN5Eigen8internal26call_dense_assignment_loopINS_5BlockINS_6MatrixIdLin1ELin1ELi1ELin1ELin1EEELin1ELi1ELb0EEENS_3MapINS3_IdLin1ELi1ELi0ELin1ELi1EEELi2ENS_6StrideILi0ELi0EEEEENS0_9assign_opIddEEEEvRT_RKT0_RKT1_, symObjAddr: 0x2D494, symBinAddr: 0x10002DD44, symSize: 0xE0 }
  - { offsetInCU: 0x2B811, offset: 0x2B811, size: 0x8, addend: 0x0, symName: __ZN5Eigen8internal17resize_if_allowedINS_5BlockINS_6MatrixIdLin1ELin1ELi1ELin1ELin1EEELin1ELi1ELb0EEENS_3MapINS3_IdLin1ELi1ELi0ELin1ELi1EEELi2ENS_6StrideILi0ELi0EEEEEddEEvRT_RKT0_RKNS0_9assign_opIT1_T2_EE, symObjAddr: 0x2D574, symBinAddr: 0x10002DE24, symSize: 0xF8 }
  - { offsetInCU: 0x2C3FB, offset: 0x2C3FB, size: 0x8, addend: 0x0, symName: __ZN5Eigen8internal24call_assignment_no_aliasINS_6MatrixIdLi1ELin1ELi1ELi1ELin1EEENS_5BlockIKNS_7ProductINS2_IdLin1ELin1ELi0ELin1ELin1EEES6_Li0EEELi1ELin1ELb0EEENS0_9assign_opIddEEEEvRT_RKT0_RKT1_, symObjAddr: 0x30040, symBinAddr: 0x1000308F0, symSize: 0x3C }
  - { offsetInCU: 0x2C4C9, offset: 0x2C4C9, size: 0x8, addend: 0x0, symName: __ZN5Eigen8internal18check_for_aliasingINS_6MatrixIdLi1ELin1ELi1ELi1ELin1EEENS_5BlockIKNS_7ProductINS2_IdLin1ELin1ELi0ELin1ELin1EEES6_Li0EEELi1ELin1ELb0EEEEEvRKT_RKT0_, symObjAddr: 0x300D0, symBinAddr: 0x100030980, symSize: 0x14 }
  - { offsetInCU: 0x2C514, offset: 0x2C514, size: 0x8, addend: 0x0, symName: __ZN5Eigen8internal26call_dense_assignment_loopINS_6MatrixIdLi1ELin1ELi1ELi1ELin1EEENS_5BlockIKNS_7ProductINS2_IdLin1ELin1ELi0ELin1ELin1EEES6_Li0EEELi1ELin1ELb0EEENS0_9assign_opIddEEEEvRT_RKT0_RKT1_, symObjAddr: 0x300E4, symBinAddr: 0x100030994, symSize: 0xE0 }
  - { offsetInCU: 0x2C5C9, offset: 0x2C5C9, size: 0x8, addend: 0x0, symName: __ZN5Eigen8internal17resize_if_allowedINS_6MatrixIdLi1ELin1ELi1ELi1ELin1EEENS_5BlockIKNS_7ProductINS2_IdLin1ELin1ELi0ELin1ELin1EEES6_Li0EEELi1ELin1ELb0EEEddEEvRT_RKT0_RKNS0_9assign_opIT1_T2_EE, symObjAddr: 0x301F8, symBinAddr: 0x100030AA8, symSize: 0xF8 }
  - { offsetInCU: 0x2CA96, offset: 0x2CA96, size: 0x8, addend: 0x0, symName: __ZN5Eigen8internal24call_assignment_no_aliasINS_6MatrixIdLin1ELi1ELi0ELin1ELi1EEENS_13CwiseBinaryOpINS0_20scalar_difference_opIddEEKS3_S7_EENS0_9assign_opIddEEEEvRT_RKT0_RKT1_, symObjAddr: 0x3358C, symBinAddr: 0x100033E3C, symSize: 0x3C }
  - { offsetInCU: 0x2CB64, offset: 0x2CB64, size: 0x8, addend: 0x0, symName: __ZN5Eigen8internal18check_for_aliasingINS_6MatrixIdLin1ELi1ELi0ELin1ELi1EEENS_13CwiseBinaryOpINS0_20scalar_difference_opIddEEKS3_S7_EEEEvRKT_RKT0_, symObjAddr: 0x33608, symBinAddr: 0x100033EB8, symSize: 0x14 }
  - { offsetInCU: 0x2CBAF, offset: 0x2CBAF, size: 0x8, addend: 0x0, symName: __ZN5Eigen8internal26call_dense_assignment_loopINS_6MatrixIdLin1ELi1ELi0ELin1ELi1EEENS_13CwiseBinaryOpINS0_20scalar_difference_opIddEEKS3_S7_EENS0_9assign_opIddEEEEvRT_RKT0_RKT1_, symObjAddr: 0x3361C, symBinAddr: 0x100033ECC, symSize: 0xD8 }
  - { offsetInCU: 0x2CC63, offset: 0x2CC63, size: 0x8, addend: 0x0, symName: __ZN5Eigen8internal17resize_if_allowedINS_6MatrixIdLin1ELi1ELi0ELin1ELi1EEENS_13CwiseBinaryOpINS0_20scalar_difference_opIddEEKS3_S7_EEddEEvRT_RKT0_RKNS0_9assign_opIT1_T2_EE, symObjAddr: 0x33728, symBinAddr: 0x100033FD8, symSize: 0xF8 }
  - { offsetInCU: 0x2CCE9, offset: 0x2CCE9, size: 0x8, addend: 0x0, symName: __ZN5Eigen8internal4psubI19__simd128_float64_tEET_RKS3_S5_, symObjAddr: 0x33DE8, symBinAddr: 0x100034698, symSize: 0x40 }
  - { offsetInCU: 0x2CD2F, offset: 0x2CD2F, size: 0x8, addend: 0x0, symName: __ZN5Eigen8internal10smart_copyIdEEvPKT_S4_PS2_, symObjAddr: 0x3411C, symBinAddr: 0x1000349CC, symSize: 0x34 }
  - { offsetInCU: 0x2CDBA, offset: 0x2CDBA, size: 0x8, addend: 0x0, symName: __ZN5Eigen8internal24call_assignment_no_aliasINS_6MatrixIdLin1ELin1ELi0ELin1ELin1EEENS_7ProductINS4_IS3_NS_9TransposeIS3_EELi0EEENS_7InverseIS3_EELi0EEENS0_9assign_opIddEEEEvRT_RKT0_RKT1_, symObjAddr: 0x34B5C, symBinAddr: 0x10003540C, symSize: 0x3C }
  - { offsetInCU: 0x2D17B, offset: 0x2D17B, size: 0x8, addend: 0x0, symName: __ZN5Eigen8internal42call_restricted_packet_assignment_no_aliasINS_6MatrixIdLin1ELin1ELi0ELin1ELin1EEENS_7ProductINS4_IS3_NS_9TransposeIS3_EELi0EEENS_7InverseIS3_EELi1EEENS0_9assign_opIddEEEEvRT_RKT0_RKT1_, symObjAddr: 0x35290, symBinAddr: 0x100035B40, symSize: 0xD8 }
  - { offsetInCU: 0x2D230, offset: 0x2D230, size: 0x8, addend: 0x0, symName: __ZN5Eigen8internal17resize_if_allowedINS_6MatrixIdLin1ELin1ELi0ELin1ELin1EEENS_7ProductINS4_IS3_NS_9TransposeIS3_EELi0EEENS_7InverseIS3_EELi1EEEddEEvRT_RKT0_RKNS0_9assign_opIT1_T2_EE, symObjAddr: 0x353E4, symBinAddr: 0x100035C94, symSize: 0xF8 }
  - { offsetInCU: 0x2D2B6, offset: 0x2D2B6, size: 0x8, addend: 0x0, symName: __ZN5Eigen8internal24call_assignment_no_aliasINS_6MatrixIdLin1ELin1ELi0ELin1ELin1EEENS_7ProductIS3_NS_9TransposeIS3_EELi0EEENS0_9assign_opIddEEEEvRT_RKT0_RKT1_, symObjAddr: 0x35A6C, symBinAddr: 0x10003631C, symSize: 0x3C }
  - { offsetInCU: 0x2D615, offset: 0x2D615, size: 0x8, addend: 0x0, symName: __ZN5Eigen8internal42call_restricted_packet_assignment_no_aliasINS_6MatrixIdLin1ELin1ELi0ELin1ELin1EEENS_7ProductIS3_NS_9TransposeIKS3_EELi1EEENS0_9assign_opIddEEEEvRT_RKT0_RKT1_, symObjAddr: 0x36130, symBinAddr: 0x1000369E0, symSize: 0xD8 }
  - { offsetInCU: 0x2D6CA, offset: 0x2D6CA, size: 0x8, addend: 0x0, symName: __ZN5Eigen8internal17resize_if_allowedINS_6MatrixIdLin1ELin1ELi0ELin1ELin1EEENS_7ProductIS3_NS_9TransposeIKS3_EELi1EEEddEEvRT_RKT0_RKNS0_9assign_opIT1_T2_EE, symObjAddr: 0x36288, symBinAddr: 0x100036B38, symSize: 0xF8 }
  - { offsetInCU: 0x2DD25, offset: 0x2DD25, size: 0x8, addend: 0x0, symName: __ZN5Eigen8internal16parallelize_gemmILb1ENS0_12gemm_functorIdlNS0_29general_matrix_matrix_productIldLi0ELb0EdLi1ELb0ELi0ELi1EEENS_6MatrixIdLin1ELin1ELi0ELin1ELin1EEENS_9TransposeIKS6_EES6_NS0_19gemm_blocking_spaceILi0EddLin1ELin1ELin1ELi1ELb0EEEEElEEvRKT0_T1_SG_SG_b, symObjAddr: 0x370C8, symBinAddr: 0x100037978, symSize: 0x64 }
  - { offsetInCU: 0x2E52B, offset: 0x2E52B, size: 0x8, addend: 0x0, symName: __ZN5Eigen8internal15call_assignmentINS_3MapINS_6MatrixIdLin1ELi1ELi0ELin1ELi1EEELi2ENS_6StrideILi0ELi0EEEEENS_9TransposeINS_5BlockINS3_IdLin1ELin1ELi0ELin1ELin1EEELi1ELin1ELb0EEEEEEEvRT_RKT0_, symObjAddr: 0x39324, symBinAddr: 0x100039BD4, symSize: 0x50 }
  - { offsetInCU: 0x2E576, offset: 0x2E576, size: 0x8, addend: 0x0, symName: __ZN5Eigen8internal15call_assignmentINS_3MapINS_6MatrixIdLin1ELi1ELi0ELin1ELi1EEELi2ENS_6StrideILi0ELi0EEEEENS_9TransposeINS_5BlockINS3_IdLin1ELin1ELi0ELin1ELin1EEELi1ELin1ELb0EEEEENS0_9assign_opIddEEEEvRT_RKT0_RKT1_NS0_9enable_ifIXntsr25evaluator_assume_aliasingISH_EE5valueEPvE4typeE, symObjAddr: 0x39374, symBinAddr: 0x100039C24, symSize: 0x38 }
  - { offsetInCU: 0x2E5E4, offset: 0x2E5E4, size: 0x8, addend: 0x0, symName: __ZN5Eigen8internal24call_assignment_no_aliasINS_3MapINS_6MatrixIdLin1ELi1ELi0ELin1ELi1EEELi2ENS_6StrideILi0ELi0EEEEENS_9TransposeINS_5BlockINS3_IdLin1ELin1ELi0ELin1ELin1EEELi1ELin1ELb0EEEEENS0_9assign_opIddEEEEvRT_RKT0_RKT1_, symObjAddr: 0x393AC, symBinAddr: 0x100039C5C, symSize: 0x3C }
  - { offsetInCU: 0x2E6B2, offset: 0x2E6B2, size: 0x8, addend: 0x0, symName: __ZN5Eigen8internal18check_for_aliasingINS_3MapINS_6MatrixIdLin1ELi1ELi0ELin1ELi1EEELi2ENS_6StrideILi0ELi0EEEEENS_9TransposeINS_5BlockINS3_IdLin1ELin1ELi0ELin1ELin1EEELi1ELin1ELb0EEEEEEEvRKT_RKT0_, symObjAddr: 0x39428, symBinAddr: 0x100039CD8, symSize: 0x14 }
  - { offsetInCU: 0x2E6FD, offset: 0x2E6FD, size: 0x8, addend: 0x0, symName: __ZN5Eigen8internal26call_dense_assignment_loopINS_3MapINS_6MatrixIdLin1ELi1ELi0ELin1ELi1EEELi2ENS_6StrideILi0ELi0EEEEENS_9TransposeINS_5BlockINS3_IdLin1ELin1ELi0ELin1ELin1EEELi1ELin1ELb0EEEEENS0_9assign_opIddEEEEvRT_RKT0_RKT1_, symObjAddr: 0x3943C, symBinAddr: 0x100039CEC, symSize: 0xD8 }
  - { offsetInCU: 0x2E9F0, offset: 0x2E9F0, size: 0x8, addend: 0x0, symName: __ZN5Eigen8internal17resize_if_allowedINS_3MapINS_6MatrixIdLin1ELi1ELi0ELin1ELi1EEELi2ENS_6StrideILi0ELi0EEEEENS_9TransposeINS_5BlockINS3_IdLin1ELin1ELi0ELin1ELin1EEELi1ELin1ELb0EEEEEddEEvRT_RKT0_RKNS0_9assign_opIT1_T2_EE, symObjAddr: 0x39548, symBinAddr: 0x100039DF8, symSize: 0xF8 }
  - { offsetInCU: 0x2ECC8, offset: 0x2ECC8, size: 0x8, addend: 0x0, symName: __ZN5Eigen8internal15call_assignmentINS_9TransposeINS_5BlockINS_6MatrixIdLin1ELin1ELi0ELin1ELin1EEELi1ELin1ELb0EEEEENS_3MapINS4_IdLin1ELi1ELi0ELin1ELi1EEELi2ENS_6StrideILi0ELi0EEEEEEEvRT_RKT0_, symObjAddr: 0x39CE4, symBinAddr: 0x10003A594, symSize: 0x50 }
  - { offsetInCU: 0x2ED13, offset: 0x2ED13, size: 0x8, addend: 0x0, symName: __ZN5Eigen8internal15call_assignmentINS_9TransposeINS_5BlockINS_6MatrixIdLin1ELin1ELi0ELin1ELin1EEELi1ELin1ELb0EEEEENS_3MapINS4_IdLin1ELi1ELi0ELin1ELi1EEELi2ENS_6StrideILi0ELi0EEEEENS0_9assign_opIddEEEEvRT_RKT0_RKT1_NS0_9enable_ifIXntsr25evaluator_assume_aliasingISH_EE5valueEPvE4typeE, symObjAddr: 0x39D34, symBinAddr: 0x10003A5E4, symSize: 0x38 }
  - { offsetInCU: 0x2ED81, offset: 0x2ED81, size: 0x8, addend: 0x0, symName: __ZN5Eigen8internal24call_assignment_no_aliasINS_9TransposeINS_5BlockINS_6MatrixIdLin1ELin1ELi0ELin1ELin1EEELi1ELin1ELb0EEEEENS_3MapINS4_IdLin1ELi1ELi0ELin1ELi1EEELi2ENS_6StrideILi0ELi0EEEEENS0_9assign_opIddEEEEvRT_RKT0_RKT1_, symObjAddr: 0x39D6C, symBinAddr: 0x10003A61C, symSize: 0x3C }
  - { offsetInCU: 0x2EE4F, offset: 0x2EE4F, size: 0x8, addend: 0x0, symName: __ZN5Eigen8internal18check_for_aliasingINS_9TransposeINS_5BlockINS_6MatrixIdLin1ELin1ELi0ELin1ELin1EEELi1ELin1ELb0EEEEENS_3MapINS4_IdLin1ELi1ELi0ELin1ELi1EEELi2ENS_6StrideILi0ELi0EEEEEEEvRKT_RKT0_, symObjAddr: 0x39DE8, symBinAddr: 0x10003A698, symSize: 0x14 }
  - { offsetInCU: 0x2EE9A, offset: 0x2EE9A, size: 0x8, addend: 0x0, symName: __ZN5Eigen8internal26call_dense_assignment_loopINS_9TransposeINS_5BlockINS_6MatrixIdLin1ELin1ELi0ELin1ELin1EEELi1ELin1ELb0EEEEENS_3MapINS4_IdLin1ELi1ELi0ELin1ELi1EEELi2ENS_6StrideILi0ELi0EEEEENS0_9assign_opIddEEEEvRT_RKT0_RKT1_, symObjAddr: 0x39DFC, symBinAddr: 0x10003A6AC, symSize: 0xE0 }
  - { offsetInCU: 0x2EF4E, offset: 0x2EF4E, size: 0x8, addend: 0x0, symName: __ZN5Eigen8internal17resize_if_allowedINS_9TransposeINS_5BlockINS_6MatrixIdLin1ELin1ELi0ELin1ELin1EEELi1ELin1ELb0EEEEENS_3MapINS4_IdLin1ELi1ELi0ELin1ELi1EEELi2ENS_6StrideILi0ELi0EEEEEddEEvRT_RKT0_RKNS0_9assign_opIT1_T2_EE, symObjAddr: 0x39EDC, symBinAddr: 0x10003A78C, symSize: 0xF8 }
  - { offsetInCU: 0x2F226, offset: 0x2F226, size: 0x8, addend: 0x0, symName: __ZN5Eigen8internal24call_assignment_no_aliasINS_6MatrixIdLin1ELin1ELi0ELin1ELin1EEENS_7InverseIS3_EENS0_9assign_opIddEEEEvRT_RKT0_RKT1_, symObjAddr: 0x3A5C0, symBinAddr: 0x10003AE70, symSize: 0x3C }
  - { offsetInCU: 0x2F33C, offset: 0x2F33C, size: 0x8, addend: 0x0, symName: __ZN5Eigen8internal31conditional_aligned_delete_autoIiLb1EEEvPT_m, symObjAddr: 0x3AEB0, symBinAddr: 0x10003B760, symSize: 0x28 }
  - { offsetInCU: 0x2F3AB, offset: 0x2F3AB, size: 0x8, addend: 0x0, symName: __ZN5Eigen8internal28conditional_aligned_new_autoIiLb1EEEPT_m, symObjAddr: 0x3AED8, symBinAddr: 0x10003B788, symSize: 0x84 }
  - { offsetInCU: 0x2F419, offset: 0x2F419, size: 0x8, addend: 0x0, symName: __ZN5Eigen8internal15call_assignmentINS_6MatrixIdLin1ELin1ELi0ELin1ELin1EEES3_EEvRT_RKT0_, symObjAddr: 0x3B27C, symBinAddr: 0x10003BB2C, symSize: 0x50 }
  - { offsetInCU: 0x2F464, offset: 0x2F464, size: 0x8, addend: 0x0, symName: __ZN5Eigen8internal15call_assignmentINS_6MatrixIdLin1ELin1ELi0ELin1ELin1EEES3_NS0_9assign_opIddEEEEvRT_RKT0_RKT1_NS0_9enable_ifIXntsr25evaluator_assume_aliasingIS8_EE5valueEPvE4typeE, symObjAddr: 0x3B2CC, symBinAddr: 0x10003BB7C, symSize: 0x38 }
  - { offsetInCU: 0x2F4D2, offset: 0x2F4D2, size: 0x8, addend: 0x0, symName: __ZN5Eigen8internal24call_assignment_no_aliasINS_6MatrixIdLin1ELin1ELi0ELin1ELin1EEES3_NS0_9assign_opIddEEEEvRT_RKT0_RKT1_, symObjAddr: 0x3B304, symBinAddr: 0x10003BBB4, symSize: 0x3C }
  - { offsetInCU: 0x2F5A0, offset: 0x2F5A0, size: 0x8, addend: 0x0, symName: __ZN5Eigen8internal18check_for_aliasingINS_6MatrixIdLin1ELin1ELi0ELin1ELin1EEES3_EEvRKT_RKT0_, symObjAddr: 0x3B380, symBinAddr: 0x10003BC30, symSize: 0x60 }
  - { offsetInCU: 0x2F5EB, offset: 0x2F5EB, size: 0x8, addend: 0x0, symName: __ZN5Eigen8internal26call_dense_assignment_loopINS_6MatrixIdLin1ELin1ELi0ELin1ELin1EEES3_NS0_9assign_opIddEEEEvRT_RKT0_RKT1_, symObjAddr: 0x3B3E0, symBinAddr: 0x10003BC90, symSize: 0xD8 }
  - { offsetInCU: 0x2F6DD, offset: 0x2F6DD, size: 0x8, addend: 0x0, symName: __ZN5Eigen8internal17resize_if_allowedINS_6MatrixIdLin1ELin1ELi0ELin1ELin1EEES3_ddEEvRT_RKT0_RKNS0_9assign_opIT1_T2_EE, symObjAddr: 0x3B4CC, symBinAddr: 0x10003BD7C, symSize: 0xF8 }
  - { offsetInCU: 0x2F763, offset: 0x2F763, size: 0x8, addend: 0x0, symName: __ZN5Eigen8internal18partial_lu_inplaceINS_6MatrixIdLin1ELin1ELi0ELin1ELin1EEENS_14TranspositionsILin1ELin1EiEEEEvRT_RT0_RNS8_12StorageIndexE, symObjAddr: 0x3B9A4, symBinAddr: 0x10003C254, symSize: 0x1AC }
  - { offsetInCU: 0x30030, offset: 0x30030, size: 0x8, addend: 0x0, symName: __ZN5Eigen8internalL21first_default_alignedINS_5BlockIKNS_12CwiseUnaryOpINS0_13scalar_abs_opIdEEKNS_6MatrixIdLin1ELin1ELi0ELin1ELin1EEEEELin1ELi1ELb1EEEEElRKNS_9DenseBaseIT_EE, symObjAddr: 0x3D35C, symBinAddr: 0x10003DC0C, symSize: 0x24 }
  - { offsetInCU: 0x30067, offset: 0x30067, size: 0x8, addend: 0x0, symName: __ZN5Eigen8internalL13first_alignedILi16ENS_5BlockIKNS_12CwiseUnaryOpINS0_13scalar_abs_opIdEEKNS_6MatrixIdLin1ELin1ELi0ELin1ELin1EEEEELin1ELi1ELb1EEEEElRKNS_9DenseBaseIT0_EE, symObjAddr: 0x3D418, symBinAddr: 0x10003DCC8, symSize: 0x28 }
  - { offsetInCU: 0x300E6, offset: 0x300E6, size: 0x8, addend: 0x0, symName: __ZN5Eigen8internal4pabsI19__simd128_float64_tEET_RKS3_, symObjAddr: 0x3D51C, symBinAddr: 0x10003DDCC, symSize: 0x2C }
  - { offsetInCU: 0x30147, offset: 0x30147, size: 0x8, addend: 0x0, symName: __ZN5Eigen8internal4pmaxILi0EdEET0_RKS2_S4_, symObjAddr: 0x3D90C, symBinAddr: 0x10003E1BC, symSize: 0x34 }
  - { offsetInCU: 0x301DE, offset: 0x301DE, size: 0x8, addend: 0x0, symName: __ZN5Eigen8internal4pmaxIdEET_RKS2_S4_, symObjAddr: 0x3D974, symBinAddr: 0x10003E224, symSize: 0x40 }
  - { offsetInCU: 0x3029E, offset: 0x3029E, size: 0x8, addend: 0x0, symName: __ZN5Eigen8internal13convert_indexIilEET_RKT0_, symObjAddr: 0x3E840, symBinAddr: 0x10003F0F0, symSize: 0x1C }
  - { offsetInCU: 0x302DC, offset: 0x302DC, size: 0x8, addend: 0x0, symName: __ZN5Eigen8internal17get_runtime_valueIlEElRKT_, symObjAddr: 0x3FF34, symBinAddr: 0x1000407E4, symSize: 0x18 }
  - { offsetInCU: 0x30665, offset: 0x30665, size: 0x8, addend: 0x0, symName: __ZN5Eigen8internal17get_runtime_valueINS0_19VariableAndFixedIntILin1EEEEElRKT_, symObjAddr: 0x41600, symBinAddr: 0x100041EB0, symSize: 0x2C }
  - { offsetInCU: 0x3069A, offset: 0x3069A, size: 0x8, addend: 0x0, symName: __ZN5Eigen8internal15call_assignmentINS_5BlockINS2_INS_3RefINS_6MatrixIdLin1ELin1ELi0ELin1ELin1EEELi0ENS_11OuterStrideILin1EEEEELin1ELi1ELb1EEELin1ELi1ELb0EEENS_14CwiseNullaryOpINS0_18scalar_constant_opIdEENS4_IdLin1ELi1ELi0ELin1ELi1EEEEENS0_13div_assign_opIddEEEEvRT_RKT0_RKT1_NS0_9enable_ifIXntsr25evaluator_assume_aliasingISK_EE5valueEPvE4typeE, symObjAddr: 0x41698, symBinAddr: 0x100041F48, symSize: 0x38 }
  - { offsetInCU: 0x30708, offset: 0x30708, size: 0x8, addend: 0x0, symName: __ZN5Eigen8internal24call_assignment_no_aliasINS_5BlockINS2_INS_3RefINS_6MatrixIdLin1ELin1ELi0ELin1ELin1EEELi0ENS_11OuterStrideILin1EEEEELin1ELi1ELb1EEELin1ELi1ELb0EEENS_14CwiseNullaryOpINS0_18scalar_constant_opIdEENS4_IdLin1ELi1ELi0ELin1ELi1EEEEENS0_13div_assign_opIddEEEEvRT_RKT0_RKT1_, symObjAddr: 0x41760, symBinAddr: 0x100042010, symSize: 0x3C }
  - { offsetInCU: 0x307D6, offset: 0x307D6, size: 0x8, addend: 0x0, symName: __ZN5Eigen8internal18check_for_aliasingINS_5BlockINS2_INS_3RefINS_6MatrixIdLin1ELin1ELi0ELin1ELin1EEELi0ENS_11OuterStrideILin1EEEEELin1ELi1ELb1EEELin1ELi1ELb0EEENS_14CwiseNullaryOpINS0_18scalar_constant_opIdEENS4_IdLin1ELi1ELi0ELin1ELi1EEEEEEEvRKT_RKT0_, symObjAddr: 0x417DC, symBinAddr: 0x10004208C, symSize: 0x14 }
  - { offsetInCU: 0x30821, offset: 0x30821, size: 0x8, addend: 0x0, symName: __ZN5Eigen8internal26call_dense_assignment_loopINS_5BlockINS2_INS_3RefINS_6MatrixIdLin1ELin1ELi0ELin1ELin1EEELi0ENS_11OuterStrideILin1EEEEELin1ELi1ELb1EEELin1ELi1ELb0EEENS_14CwiseNullaryOpINS0_18scalar_constant_opIdEENS4_IdLin1ELi1ELi0ELin1ELi1EEEEENS0_13div_assign_opIddEEEEvRT_RKT0_RKT1_, symObjAddr: 0x417F0, symBinAddr: 0x1000420A0, symSize: 0xE0 }
  - { offsetInCU: 0x308D5, offset: 0x308D5, size: 0x8, addend: 0x0, symName: __ZN5Eigen8internal17resize_if_allowedINS_5BlockINS2_INS_3RefINS_6MatrixIdLin1ELin1ELi0ELin1ELin1EEELi0ENS_11OuterStrideILin1EEEEELin1ELi1ELb1EEELin1ELi1ELb0EEENS_14CwiseNullaryOpINS0_18scalar_constant_opIdEENS4_IdLin1ELi1ELi0ELin1ELi1EEEEENS0_13div_assign_opIddEEEEvRT_RKT0_RKT1_, symObjAddr: 0x41904, symBinAddr: 0x1000421B4, symSize: 0xB4 }
  - { offsetInCU: 0x30934, offset: 0x30934, size: 0x8, addend: 0x0, symName: __ZN5Eigen8internal13first_alignedILi16EdlEET1_PKT0_S2_, symObjAddr: 0x41C64, symBinAddr: 0x100042514, symSize: 0xAC }
  - { offsetInCU: 0x309D7, offset: 0x309D7, size: 0x8, addend: 0x0, symName: __ZN5Eigen8internal4pdivI19__simd128_float64_tEET_RKS3_S5_, symObjAddr: 0x42018, symBinAddr: 0x1000428C8, symSize: 0x40 }
  - { offsetInCU: 0x30A1D, offset: 0x30A1D, size: 0x8, addend: 0x0, symName: __ZN5Eigen8internal24call_assignment_no_aliasINS_5BlockINS_3RefINS_6MatrixIdLin1ELin1ELi0ELin1ELin1EEELi0ENS_11OuterStrideILin1EEEEELin1ELin1ELb0EEENS_7ProductINS2_INS2_IS8_Lin1ELi1ELb1EEELin1ELi1ELb0EEENS2_INS2_IS8_Li1ELin1ELb0EEELi1ELin1ELb0EEELi0EEENS0_13sub_assign_opIddEEEEvRT_RKT0_RKT1_, symObjAddr: 0x42EF4, symBinAddr: 0x1000437A4, symSize: 0x3C }
  - { offsetInCU: 0x30B8B, offset: 0x30B8B, size: 0x8, addend: 0x0, symName: __ZN5Eigen8internal26outer_product_selector_runINS_5BlockINS_3RefINS_6MatrixIdLin1ELin1ELi0ELin1ELin1EEELi0ENS_11OuterStrideILin1EEEEELin1ELin1ELb0EEENS2_INS2_IS8_Lin1ELi1ELb1EEELin1ELi1ELb0EEENS2_INS2_IS8_Li1ELin1ELb0EEELi1ELin1ELb0EEENS0_20generic_product_implISB_SD_NS_10DenseShapeESF_Li5EE3subEEEvRT_RKT0_RKT1_RKT2_RKNS0_10false_typeE, symObjAddr: 0x4317C, symBinAddr: 0x100043A2C, symSize: 0x15C }
  - { offsetInCU: 0x30DFA, offset: 0x30DFA, size: 0x8, addend: 0x0, symName: __ZN5Eigen8internal22ignore_unused_variableIPdEEvRKT_, symObjAddr: 0x437C8, symBinAddr: 0x100044078, symSize: 0x10 }
  - { offsetInCU: 0x30E29, offset: 0x30E29, size: 0x8, addend: 0x0, symName: __ZN5Eigen8internal15call_assignmentINS_5BlockINS2_INS_3RefINS_6MatrixIdLin1ELin1ELi0ELin1ELin1EEELi0ENS_11OuterStrideILin1EEEEELin1ELin1ELb0EEELin1ELi1ELb1EEENS_13CwiseBinaryOpINS0_17scalar_product_opIddEEKNS_14CwiseNullaryOpINS0_18scalar_constant_opIdEEKNS4_IdLin1ELi1ELi0ELin1ELi1EEEEEKNS2_INS2_IS8_Lin1ELi1ELb1EEELin1ELi1ELb0EEEEENS0_13sub_assign_opIddEEEEvRT_RKT0_RKT1_NS0_9enable_ifIXntsr25evaluator_assume_aliasingIST_EE5valueEPvE4typeE, symObjAddr: 0x43850, symBinAddr: 0x100044100, symSize: 0x38 }
  - { offsetInCU: 0x30E97, offset: 0x30E97, size: 0x8, addend: 0x0, symName: __ZN5Eigen8internal24call_assignment_no_aliasINS_5BlockINS2_INS_3RefINS_6MatrixIdLin1ELin1ELi0ELin1ELin1EEELi0ENS_11OuterStrideILin1EEEEELin1ELin1ELb0EEELin1ELi1ELb1EEENS_13CwiseBinaryOpINS0_17scalar_product_opIddEEKNS_14CwiseNullaryOpINS0_18scalar_constant_opIdEEKNS4_IdLin1ELi1ELi0ELin1ELi1EEEEEKNS2_INS2_IS8_Lin1ELi1ELb1EEELin1ELi1ELb0EEEEENS0_13sub_assign_opIddEEEEvRT_RKT0_RKT1_, symObjAddr: 0x438B0, symBinAddr: 0x100044160, symSize: 0x3C }
  - { offsetInCU: 0x30F65, offset: 0x30F65, size: 0x8, addend: 0x0, symName: __ZN5Eigen8internal18check_for_aliasingINS_5BlockINS2_INS_3RefINS_6MatrixIdLin1ELin1ELi0ELin1ELin1EEELi0ENS_11OuterStrideILin1EEEEELin1ELin1ELb0EEELin1ELi1ELb1EEENS_13CwiseBinaryOpINS0_17scalar_product_opIddEEKNS_14CwiseNullaryOpINS0_18scalar_constant_opIdEEKNS4_IdLin1ELi1ELi0ELin1ELi1EEEEEKNS2_INS2_IS8_Lin1ELi1ELb1EEELin1ELi1ELb0EEEEEEEvRKT_RKT0_, symObjAddr: 0x4392C, symBinAddr: 0x1000441DC, symSize: 0x14 }
  - { offsetInCU: 0x30FB0, offset: 0x30FB0, size: 0x8, addend: 0x0, symName: __ZN5Eigen8internal26call_dense_assignment_loopINS_5BlockINS2_INS_3RefINS_6MatrixIdLin1ELin1ELi0ELin1ELin1EEELi0ENS_11OuterStrideILin1EEEEELin1ELin1ELb0EEELin1ELi1ELb1EEENS_13CwiseBinaryOpINS0_17scalar_product_opIddEEKNS_14CwiseNullaryOpINS0_18scalar_constant_opIdEEKNS4_IdLin1ELi1ELi0ELin1ELi1EEEEEKNS2_INS2_IS8_Lin1ELi1ELb1EEELin1ELi1ELb0EEEEENS0_13sub_assign_opIddEEEEvRT_RKT0_RKT1_, symObjAddr: 0x43940, symBinAddr: 0x1000441F0, symSize: 0xD8 }
  - { offsetInCU: 0x31065, offset: 0x31065, size: 0x8, addend: 0x0, symName: __ZN5Eigen8internal17resize_if_allowedINS_5BlockINS2_INS_3RefINS_6MatrixIdLin1ELin1ELi0ELin1ELin1EEELi0ENS_11OuterStrideILin1EEEEELin1ELin1ELb0EEELin1ELi1ELb1EEENS_13CwiseBinaryOpINS0_17scalar_product_opIddEEKNS_14CwiseNullaryOpINS0_18scalar_constant_opIdEEKNS4_IdLin1ELi1ELi0ELin1ELi1EEEEEKNS2_INS2_IS8_Lin1ELi1ELb1EEELin1ELi1ELb0EEEEENS0_13sub_assign_opIddEEEEvRT_RKT0_RKT1_, symObjAddr: 0x43A4C, symBinAddr: 0x1000442FC, symSize: 0xB4 }
  - { offsetInCU: 0x310C4, offset: 0x310C4, size: 0x8, addend: 0x0, symName: __ZN5Eigen8internal4pmulI19__simd128_float64_tEET_RKS3_S5_, symObjAddr: 0x44954, symBinAddr: 0x100045204, symSize: 0x40 }
  - { offsetInCU: 0x3110A, offset: 0x3110A, size: 0x8, addend: 0x0, symName: __ZN5Eigen8internal15call_assignmentINS_5BlockINS_3RefINS_6MatrixIdLin1ELin1ELi0ELin1ELin1EEELi0ENS_11OuterStrideILin1EEEEELi1ELin1ELb0EEES9_NS0_14swap_assign_opIdEEEEvRT_RKT0_RKT1_NS0_9enable_ifIXntsr25evaluator_assume_aliasingISE_EE5valueEPvE4typeE, symObjAddr: 0x45978, symBinAddr: 0x100046228, symSize: 0x38 }
  - { offsetInCU: 0x311C5, offset: 0x311C5, size: 0x8, addend: 0x0, symName: __ZN5Eigen8internal24call_assignment_no_aliasINS_5BlockINS_3RefINS_6MatrixIdLin1ELin1ELi0ELin1ELin1EEELi0ENS_11OuterStrideILin1EEEEELi1ELin1ELb0EEES9_NS0_14swap_assign_opIdEEEEvRT_RKT0_RKT1_, symObjAddr: 0x459F0, symBinAddr: 0x1000462A0, symSize: 0x3C }
  - { offsetInCU: 0x31293, offset: 0x31293, size: 0x8, addend: 0x0, symName: __ZN5Eigen8internal18check_for_aliasingINS_5BlockINS_3RefINS_6MatrixIdLin1ELin1ELi0ELin1ELin1EEELi0ENS_11OuterStrideILin1EEEEELi1ELin1ELb0EEES9_EEvRKT_RKT0_, symObjAddr: 0x45A6C, symBinAddr: 0x10004631C, symSize: 0x14 }
  - { offsetInCU: 0x312DE, offset: 0x312DE, size: 0x8, addend: 0x0, symName: __ZN5Eigen8internal26call_dense_assignment_loopINS_5BlockINS_3RefINS_6MatrixIdLin1ELin1ELi0ELin1ELin1EEELi0ENS_11OuterStrideILin1EEEEELi1ELin1ELb0EEES9_NS0_14swap_assign_opIdEEEEvRT_RKT0_RKT1_, symObjAddr: 0x45A80, symBinAddr: 0x100046330, symSize: 0xE0 }
  - { offsetInCU: 0x3144E, offset: 0x3144E, size: 0x8, addend: 0x0, symName: __ZN5Eigen8internal17resize_if_allowedINS_5BlockINS_3RefINS_6MatrixIdLin1ELin1ELi0ELin1ELin1EEELi0ENS_11OuterStrideILin1EEEEELi1ELin1ELb0EEES9_NS0_14swap_assign_opIdEEEEvRT_RKT0_RKT1_, symObjAddr: 0x45B94, symBinAddr: 0x100046444, symSize: 0xB4 }
  - { offsetInCU: 0x318DA, offset: 0x318DA, size: 0x8, addend: 0x0, symName: __ZN5Eigen8internal27computeProductBlockingSizesIddLi4ElEEvRT2_S3_S3_S2_, symObjAddr: 0x4794C, symBinAddr: 0x1000481FC, symSize: 0x58 }
  - { offsetInCU: 0x31956, offset: 0x31956, size: 0x8, addend: 0x0, symName: __ZN5Eigen8internal24call_assignment_no_aliasINS_3RefINS_6MatrixIdLin1ELin1ELi0ELin1ELin1EEELi0ENS_11OuterStrideILin1EEEEENS_7ProductIS7_S7_Li0EEENS0_13sub_assign_opIddEEEEvRT_RKT0_RKT1_, symObjAddr: 0x48B44, symBinAddr: 0x1000493F4, symSize: 0x3C }
  - { offsetInCU: 0x31CE6, offset: 0x31CE6, size: 0x8, addend: 0x0, symName: __ZN5Eigen8internal42call_restricted_packet_assignment_no_aliasINS_3RefINS_6MatrixIdLin1ELin1ELi0ELin1ELin1EEELi0ENS_11OuterStrideILin1EEEEENS_7ProductIS7_S7_Li1EEENS0_13sub_assign_opIddEEEEvRT_RKT0_RKT1_, symObjAddr: 0x492B4, symBinAddr: 0x100049B64, symSize: 0xD8 }
  - { offsetInCU: 0x31D9B, offset: 0x31D9B, size: 0x8, addend: 0x0, symName: __ZN5Eigen8internal17resize_if_allowedINS_3RefINS_6MatrixIdLin1ELin1ELi0ELin1ELin1EEELi0ENS_11OuterStrideILin1EEEEENS_7ProductIS7_S7_Li1EEENS0_13sub_assign_opIddEEEEvRT_RKT0_RKT1_, symObjAddr: 0x4940C, symBinAddr: 0x100049CBC, symSize: 0xB4 }
  - { offsetInCU: 0x32A37, offset: 0x32A37, size: 0x8, addend: 0x0, symName: __ZN5Eigen8internal16parallelize_gemmILb1ENS0_12gemm_functorIdlNS0_29general_matrix_matrix_productIldLi0ELb0EdLi0ELb0ELi0ELi1EEENS_3RefINS_6MatrixIdLin1ELin1ELi0ELin1ELin1EEELi0ENS_11OuterStrideILin1EEEEESA_SA_NS0_19gemm_blocking_spaceILi0EddLin1ELin1ELin1ELi1ELb0EEEEElEEvRKT0_T1_SH_SH_b, symObjAddr: 0x4C634, symBinAddr: 0x10004CEE4, symSize: 0x64 }
  - { offsetInCU: 0x33674, offset: 0x33674, size: 0x8, addend: 0x0, symName: __ZN5Eigen8internal15call_assignmentINS_3MapINS_6MatrixIdLin1ELi1ELi0ELin1ELi1EEELi0ENS_6StrideILi0ELi0EEEEENS_9TransposeIKNS_5BlockIKNS_3RefINS3_IdLin1ELin1ELi0ELin1ELin1EEELi0ENS_11OuterStrideILin1EEEEELi1ELin1ELb0EEEEEEEvRT_RKT0_, symObjAddr: 0x50528, symBinAddr: 0x100050DD8, symSize: 0x50 }
  - { offsetInCU: 0x336BF, offset: 0x336BF, size: 0x8, addend: 0x0, symName: __ZN5Eigen8internal15call_assignmentINS_3MapINS_6MatrixIdLin1ELi1ELi0ELin1ELi1EEELi0ENS_6StrideILi0ELi0EEEEENS_9TransposeIKNS_5BlockIKNS_3RefINS3_IdLin1ELin1ELi0ELin1ELin1EEELi0ENS_11OuterStrideILin1EEEEELi1ELin1ELb0EEEEENS0_9assign_opIddEEEEvRT_RKT0_RKT1_NS0_9enable_ifIXntsr25evaluator_assume_aliasingISN_EE5valueEPvE4typeE, symObjAddr: 0x50578, symBinAddr: 0x100050E28, symSize: 0x38 }
  - { offsetInCU: 0x3372D, offset: 0x3372D, size: 0x8, addend: 0x0, symName: __ZN5Eigen8internal24call_assignment_no_aliasINS_3MapINS_6MatrixIdLin1ELi1ELi0ELin1ELi1EEELi0ENS_6StrideILi0ELi0EEEEENS_9TransposeIKNS_5BlockIKNS_3RefINS3_IdLin1ELin1ELi0ELin1ELin1EEELi0ENS_11OuterStrideILin1EEEEELi1ELin1ELb0EEEEENS0_9assign_opIddEEEEvRT_RKT0_RKT1_, symObjAddr: 0x505B0, symBinAddr: 0x100050E60, symSize: 0x3C }
  - { offsetInCU: 0x337FB, offset: 0x337FB, size: 0x8, addend: 0x0, symName: __ZN5Eigen8internal18check_for_aliasingINS_3MapINS_6MatrixIdLin1ELi1ELi0ELin1ELi1EEELi0ENS_6StrideILi0ELi0EEEEENS_9TransposeIKNS_5BlockIKNS_3RefINS3_IdLin1ELin1ELi0ELin1ELin1EEELi0ENS_11OuterStrideILin1EEEEELi1ELin1ELb0EEEEEEEvRKT_RKT0_, symObjAddr: 0x5062C, symBinAddr: 0x100050EDC, symSize: 0x14 }
  - { offsetInCU: 0x33846, offset: 0x33846, size: 0x8, addend: 0x0, symName: __ZN5Eigen8internal26call_dense_assignment_loopINS_3MapINS_6MatrixIdLin1ELi1ELi0ELin1ELi1EEELi0ENS_6StrideILi0ELi0EEEEENS_9TransposeIKNS_5BlockIKNS_3RefINS3_IdLin1ELin1ELi0ELin1ELin1EEELi0ENS_11OuterStrideILin1EEEEELi1ELin1ELb0EEEEENS0_9assign_opIddEEEEvRT_RKT0_RKT1_, symObjAddr: 0x50640, symBinAddr: 0x100050EF0, symSize: 0xD8 }
  - { offsetInCU: 0x338FA, offset: 0x338FA, size: 0x8, addend: 0x0, symName: __ZN5Eigen8internal17resize_if_allowedINS_3MapINS_6MatrixIdLin1ELi1ELi0ELin1ELi1EEELi0ENS_6StrideILi0ELi0EEEEENS_9TransposeIKNS_5BlockIKNS_3RefINS3_IdLin1ELin1ELi0ELin1ELin1EEELi0ENS_11OuterStrideILin1EEEEELi1ELin1ELb0EEEEEddEEvRT_RKT0_RKNS0_9assign_opIT1_T2_EE, symObjAddr: 0x5074C, symBinAddr: 0x100050FFC, symSize: 0xF8 }
  - { offsetInCU: 0x33BD2, offset: 0x33BD2, size: 0x8, addend: 0x0, symName: __ZN5Eigen8internal10smart_copyIiEEvPKT_S4_PS2_, symObjAddr: 0x51998, symBinAddr: 0x100052248, symSize: 0x34 }
  - { offsetInCU: 0x33C5D, offset: 0x33C5D, size: 0x8, addend: 0x0, symName: __ZN5Eigen8internal15call_assignmentINS_6MatrixIdLin1ELin1ELi0ELin1ELin1EEENS_7InverseINS_12PartialPivLUIS3_EEEEEEvRT_RKT0_, symObjAddr: 0x51AAC, symBinAddr: 0x10005235C, symSize: 0x50 }
  - { offsetInCU: 0x33CA8, offset: 0x33CA8, size: 0x8, addend: 0x0, symName: __ZN5Eigen8internal15call_assignmentINS_6MatrixIdLin1ELin1ELi0ELin1ELin1EEENS_7InverseINS_12PartialPivLUIS3_EEEENS0_9assign_opIddEEEEvRT_RKT0_RKT1_NS0_9enable_ifIXntsr25evaluator_assume_aliasingISC_EE5valueEPvE4typeE, symObjAddr: 0x51B10, symBinAddr: 0x1000523C0, symSize: 0x38 }
  - { offsetInCU: 0x33D16, offset: 0x33D16, size: 0x8, addend: 0x0, symName: __ZN5Eigen8internal24call_assignment_no_aliasINS_6MatrixIdLin1ELin1ELi0ELin1ELin1EEENS_7InverseINS_12PartialPivLUIS3_EEEENS0_9assign_opIddEEEEvRT_RKT0_RKT1_, symObjAddr: 0x51B48, symBinAddr: 0x1000523F8, symSize: 0x3C }
  - { offsetInCU: 0x33E2C, offset: 0x33E2C, size: 0x8, addend: 0x0, symName: __ZN5Eigen8internal15call_assignmentINS_6MatrixIdLin1ELin1ELi0ELin1ELin1EEENS_5SolveINS_12PartialPivLUIS3_EENS_14CwiseNullaryOpINS0_18scalar_identity_opIdEES3_EEEEEEvRT_RKT0_, symObjAddr: 0x51FC0, symBinAddr: 0x100052870, symSize: 0x50 }
  - { offsetInCU: 0x33E77, offset: 0x33E77, size: 0x8, addend: 0x0, symName: __ZN5Eigen8internal15call_assignmentINS_6MatrixIdLin1ELin1ELi0ELin1ELin1EEENS_5SolveINS_12PartialPivLUIS3_EENS_14CwiseNullaryOpINS0_18scalar_identity_opIdEES3_EEEENS0_9assign_opIddEEEEvRT_RKT0_RKT1_NS0_9enable_ifIXntsr25evaluator_assume_aliasingISG_EE5valueEPvE4typeE, symObjAddr: 0x52024, symBinAddr: 0x1000528D4, symSize: 0x38 }
  - { offsetInCU: 0x33EE5, offset: 0x33EE5, size: 0x8, addend: 0x0, symName: __ZN5Eigen8internal24call_assignment_no_aliasINS_6MatrixIdLin1ELin1ELi0ELin1ELin1EEENS_5SolveINS_12PartialPivLUIS3_EENS_14CwiseNullaryOpINS0_18scalar_identity_opIdEES3_EEEENS0_9assign_opIddEEEEvRT_RKT0_RKT1_, symObjAddr: 0x5205C, symBinAddr: 0x10005290C, symSize: 0x3C }
  - { offsetInCU: 0x33FBC, offset: 0x33FBC, size: 0x8, addend: 0x0, symName: __ZN5Eigen8internal15call_assignmentINS_6MatrixIdLin1ELin1ELi0ELin1ELin1EEENS_7ProductINS_17PermutationMatrixILin1ELin1EiEENS_14CwiseNullaryOpINS0_18scalar_identity_opIdEES3_EELi2EEEEEvRT_RKT0_, symObjAddr: 0x52608, symBinAddr: 0x100052EB8, symSize: 0x50 }
  - { offsetInCU: 0x34007, offset: 0x34007, size: 0x8, addend: 0x0, symName: __ZN5Eigen8internal15call_assignmentINS_6MatrixIdLin1ELin1ELi0ELin1ELin1EEENS_7ProductINS_17PermutationMatrixILin1ELin1EiEENS_14CwiseNullaryOpINS0_18scalar_identity_opIdEES3_EELi2EEENS0_9assign_opIddEEEEvRT_RKT0_RKT1_NS0_9enable_ifIXntsr25evaluator_assume_aliasingISG_EE5valueEPvE4typeE, symObjAddr: 0x5266C, symBinAddr: 0x100052F1C, symSize: 0x38 }
  - { offsetInCU: 0x34075, offset: 0x34075, size: 0x8, addend: 0x0, symName: __ZN5Eigen8internal24call_assignment_no_aliasINS_6MatrixIdLin1ELin1ELi0ELin1ELin1EEENS_7ProductINS_17PermutationMatrixILin1ELin1EiEENS_14CwiseNullaryOpINS0_18scalar_identity_opIdEES3_EELi2EEENS0_9assign_opIddEEEEvRT_RKT0_RKT1_, symObjAddr: 0x526A4, symBinAddr: 0x100052F54, symSize: 0x3C }
  - { offsetInCU: 0x34215, offset: 0x34215, size: 0x8, addend: 0x0, symName: __ZN5Eigen8internal13is_same_denseINS_6MatrixIdLin1ELin1ELi0ELin1ELin1EEENS_14CwiseNullaryOpINS0_18scalar_identity_opIdEES3_EEEEbRKT_RKT0_PNS0_9enable_ifIXntsr19possibly_same_denseIS8_SB_EE5valueEvE4typeE, symObjAddr: 0x52BB0, symBinAddr: 0x100053460, symSize: 0x20 }
  - { offsetInCU: 0x34267, offset: 0x34267, size: 0x8, addend: 0x0, symName: __ZN5Eigen8internal31conditional_aligned_delete_autoIbLb1EEEvPT_m, symObjAddr: 0x53158, symBinAddr: 0x100053A08, symSize: 0x28 }
  - { offsetInCU: 0x342B3, offset: 0x342B3, size: 0x8, addend: 0x0, symName: __ZN5Eigen8internal28conditional_aligned_new_autoIbLb1EEEPT_m, symObjAddr: 0x53180, symBinAddr: 0x100053A30, symSize: 0x64 }
  - { offsetInCU: 0x34303, offset: 0x34303, size: 0x8, addend: 0x0, symName: __ZN5Eigen8internal15call_assignmentINS_6MatrixIbLin1ELi1ELi0ELin1ELi1EEENS_14CwiseNullaryOpINS0_18scalar_constant_opIbEES3_EEEEvRT_RKT0_, symObjAddr: 0x536F8, symBinAddr: 0x100053FA8, symSize: 0x50 }
  - { offsetInCU: 0x3434E, offset: 0x3434E, size: 0x8, addend: 0x0, symName: __ZN5Eigen8internal15call_assignmentINS_6MatrixIbLin1ELi1ELi0ELin1ELi1EEENS_14CwiseNullaryOpINS0_18scalar_constant_opIbEES3_EENS0_9assign_opIbbEEEEvRT_RKT0_RKT1_NS0_9enable_ifIXntsr25evaluator_assume_aliasingISC_EE5valueEPvE4typeE, symObjAddr: 0x5375C, symBinAddr: 0x10005400C, symSize: 0x38 }
  - { offsetInCU: 0x34412, offset: 0x34412, size: 0x8, addend: 0x0, symName: __ZN5Eigen8internal24call_assignment_no_aliasINS_6MatrixIbLin1ELi1ELi0ELin1ELi1EEENS_14CwiseNullaryOpINS0_18scalar_constant_opIbEES3_EENS0_9assign_opIbbEEEEvRT_RKT0_RKT1_, symObjAddr: 0x537C0, symBinAddr: 0x100054070, symSize: 0x3C }
  - { offsetInCU: 0x344E0, offset: 0x344E0, size: 0x8, addend: 0x0, symName: __ZN5Eigen8internal18check_for_aliasingINS_6MatrixIbLin1ELi1ELi0ELin1ELi1EEENS_14CwiseNullaryOpINS0_18scalar_constant_opIbEES3_EEEEvRKT_RKT0_, symObjAddr: 0x5383C, symBinAddr: 0x1000540EC, symSize: 0x14 }
  - { offsetInCU: 0x3452B, offset: 0x3452B, size: 0x8, addend: 0x0, symName: __ZN5Eigen8internal26call_dense_assignment_loopINS_6MatrixIbLin1ELi1ELi0ELin1ELi1EEEEEvRT_RKNS_14CwiseNullaryOpINS0_18scalar_constant_opINS4_6ScalarEEES4_EERKNS0_9assign_opIS8_S8_EE, symObjAddr: 0x53850, symBinAddr: 0x100054100, symSize: 0x74 }
  - { offsetInCU: 0x3457C, offset: 0x3457C, size: 0x8, addend: 0x0, symName: __ZN5Eigen8internal17resize_if_allowedINS_6MatrixIbLin1ELi1ELi0ELin1ELi1EEENS_14CwiseNullaryOpINS0_18scalar_constant_opIbEES3_EEbbEEvRT_RKT0_RKNS0_9assign_opIT1_T2_EE, symObjAddr: 0x538C4, symBinAddr: 0x100054174, symSize: 0xF8 }
  - { offsetInCU: 0x34602, offset: 0x34602, size: 0x8, addend: 0x0, symName: __ZN5Eigen8internal15call_assignmentINS_5BlockINS_6MatrixIdLin1ELin1ELi0ELin1ELin1EEELi1ELin1ELb0EEES5_NS0_14swap_assign_opIdEEEEvRT_RKT0_RKT1_NS0_9enable_ifIXntsr25evaluator_assume_aliasingISA_EE5valueEPvE4typeE, symObjAddr: 0x53FBC, symBinAddr: 0x10005486C, symSize: 0x38 }
  - { offsetInCU: 0x34670, offset: 0x34670, size: 0x8, addend: 0x0, symName: __ZN5Eigen8internal24call_assignment_no_aliasINS_5BlockINS_6MatrixIdLin1ELin1ELi0ELin1ELin1EEELi1ELin1ELb0EEES5_NS0_14swap_assign_opIdEEEEvRT_RKT0_RKT1_, symObjAddr: 0x5401C, symBinAddr: 0x1000548CC, symSize: 0x3C }
  - { offsetInCU: 0x3473E, offset: 0x3473E, size: 0x8, addend: 0x0, symName: __ZN5Eigen8internal18check_for_aliasingINS_5BlockINS_6MatrixIdLin1ELin1ELi0ELin1ELin1EEELi1ELin1ELb0EEES5_EEvRKT_RKT0_, symObjAddr: 0x54098, symBinAddr: 0x100054948, symSize: 0x14 }
  - { offsetInCU: 0x34789, offset: 0x34789, size: 0x8, addend: 0x0, symName: __ZN5Eigen8internal26call_dense_assignment_loopINS_5BlockINS_6MatrixIdLin1ELin1ELi0ELin1ELin1EEELi1ELin1ELb0EEES5_NS0_14swap_assign_opIdEEEEvRT_RKT0_RKT1_, symObjAddr: 0x540AC, symBinAddr: 0x10005495C, symSize: 0xE0 }
  - { offsetInCU: 0x3483D, offset: 0x3483D, size: 0x8, addend: 0x0, symName: __ZN5Eigen8internal17resize_if_allowedINS_5BlockINS_6MatrixIdLin1ELin1ELi0ELin1ELin1EEELi1ELin1ELb0EEES5_NS0_14swap_assign_opIdEEEEvRT_RKT0_RKT1_, symObjAddr: 0x5418C, symBinAddr: 0x100054A3C, symSize: 0xB4 }
  - { offsetInCU: 0x34B5E, offset: 0x34B5E, size: 0x8, addend: 0x0, symName: __ZN5Eigen8internal15call_assignmentINS_5BlockINS_6MatrixIdLin1ELin1ELi0ELin1ELin1EEELi1ELin1ELb0EEENS2_IKNS_14CwiseNullaryOpINS0_18scalar_identity_opIdEES4_EELi1ELin1ELb0EEEEEvRT_RKT0_, symObjAddr: 0x5472C, symBinAddr: 0x100054FDC, symSize: 0x50 }
  - { offsetInCU: 0x34BA9, offset: 0x34BA9, size: 0x8, addend: 0x0, symName: __ZN5Eigen8internal15call_assignmentINS_5BlockINS_6MatrixIdLin1ELin1ELi0ELin1ELin1EEELi1ELin1ELb0EEENS2_IKNS_14CwiseNullaryOpINS0_18scalar_identity_opIdEES4_EELi1ELin1ELb0EEENS0_9assign_opIddEEEEvRT_RKT0_RKT1_NS0_9enable_ifIXntsr25evaluator_assume_aliasingISG_EE5valueEPvE4typeE, symObjAddr: 0x5477C, symBinAddr: 0x10005502C, symSize: 0x38 }
  - { offsetInCU: 0x34C17, offset: 0x34C17, size: 0x8, addend: 0x0, symName: __ZN5Eigen8internal24call_assignment_no_aliasINS_5BlockINS_6MatrixIdLin1ELin1ELi0ELin1ELin1EEELi1ELin1ELb0EEENS2_IKNS_14CwiseNullaryOpINS0_18scalar_identity_opIdEES4_EELi1ELin1ELb0EEENS0_9assign_opIddEEEEvRT_RKT0_RKT1_, symObjAddr: 0x547B4, symBinAddr: 0x100055064, symSize: 0x3C }
  - { offsetInCU: 0x34CE5, offset: 0x34CE5, size: 0x8, addend: 0x0, symName: __ZN5Eigen8internal18check_for_aliasingINS_5BlockINS_6MatrixIdLin1ELin1ELi0ELin1ELin1EEELi1ELin1ELb0EEENS2_IKNS_14CwiseNullaryOpINS0_18scalar_identity_opIdEES4_EELi1ELin1ELb0EEEEEvRKT_RKT0_, symObjAddr: 0x54830, symBinAddr: 0x1000550E0, symSize: 0x14 }
  - { offsetInCU: 0x34D30, offset: 0x34D30, size: 0x8, addend: 0x0, symName: __ZN5Eigen8internal26call_dense_assignment_loopINS_5BlockINS_6MatrixIdLin1ELin1ELi0ELin1ELin1EEELi1ELin1ELb0EEENS2_IKNS_14CwiseNullaryOpINS0_18scalar_identity_opIdEES4_EELi1ELin1ELb0EEENS0_9assign_opIddEEEEvRT_RKT0_RKT1_, symObjAddr: 0x54844, symBinAddr: 0x1000550F4, symSize: 0xD8 }
  - { offsetInCU: 0x3508F, offset: 0x3508F, size: 0x8, addend: 0x0, symName: __ZN5Eigen8internal17resize_if_allowedINS_5BlockINS_6MatrixIdLin1ELin1ELi0ELin1ELin1EEELi1ELin1ELb0EEENS2_IKNS_14CwiseNullaryOpINS0_18scalar_identity_opIdEES4_EELi1ELin1ELb0EEEddEEvRT_RKT0_RKNS0_9assign_opIT1_T2_EE, symObjAddr: 0x54950, symBinAddr: 0x100055200, symSize: 0xF8 }
  - { offsetInCU: 0x3649D, offset: 0x3649D, size: 0x8, addend: 0x0, symName: __ZN5Eigen8internal24call_assignment_no_aliasINS_6MatrixIdLin1ELin1ELi0ELin1ELin1EEENS_7InverseIS3_EEEEvRT_RKT0_, symObjAddr: 0x590FC, symBinAddr: 0x1000599AC, symSize: 0x4C }
  - { offsetInCU: 0x364E8, offset: 0x364E8, size: 0x8, addend: 0x0, symName: __ZN5Eigen8internal24call_assignment_no_aliasINS_6MatrixIdLin1ELi1ELi0ELin1ELi1EEENS_5BlockIKNS_7InverseINS2_IdLin1ELin1ELi0ELin1ELin1EEEEELin1ELi1ELb1EEENS0_9assign_opIddEEEEvRT_RKT0_RKT1_, symObjAddr: 0x59B2C, symBinAddr: 0x10005A3DC, symSize: 0x3C }
  - { offsetInCU: 0x365B6, offset: 0x365B6, size: 0x8, addend: 0x0, symName: __ZN5Eigen8internal18check_for_aliasingINS_6MatrixIdLin1ELi1ELi0ELin1ELi1EEENS_5BlockIKNS_7InverseINS2_IdLin1ELin1ELi0ELin1ELin1EEEEELin1ELi1ELb1EEEEEvRKT_RKT0_, symObjAddr: 0x59BA8, symBinAddr: 0x10005A458, symSize: 0x14 }
  - { offsetInCU: 0x36601, offset: 0x36601, size: 0x8, addend: 0x0, symName: __ZN5Eigen8internal26call_dense_assignment_loopINS_6MatrixIdLin1ELi1ELi0ELin1ELi1EEENS_5BlockIKNS_7InverseINS2_IdLin1ELin1ELi0ELin1ELin1EEEEELin1ELi1ELb1EEENS0_9assign_opIddEEEEvRT_RKT0_RKT1_, symObjAddr: 0x59BBC, symBinAddr: 0x10005A46C, symSize: 0xD8 }
  - { offsetInCU: 0x366B6, offset: 0x366B6, size: 0x8, addend: 0x0, symName: __ZN5Eigen8internal17resize_if_allowedINS_6MatrixIdLin1ELi1ELi0ELin1ELi1EEENS_5BlockIKNS_7InverseINS2_IdLin1ELin1ELi0ELin1ELin1EEEEELin1ELi1ELb1EEEddEEvRT_RKT0_RKNS0_9assign_opIT1_T2_EE, symObjAddr: 0x59CC8, symBinAddr: 0x10005A578, symSize: 0xF8 }
  - { offsetInCU: 0x36ECA, offset: 0x36ECA, size: 0x8, addend: 0x0, symName: __ZN5Eigen8internal24call_assignment_no_aliasINS_6MatrixIdLi1ELin1ELi1ELi1ELin1EEENS_5BlockIKNS_7ProductINS2_IdLin1ELin1ELi0ELin1ELin1EEENS_9TransposeIS6_EELi0EEELi1ELin1ELb0EEENS0_9assign_opIddEEEEvRT_RKT0_RKT1_, symObjAddr: 0x5BC38, symBinAddr: 0x10005C4E8, symSize: 0x3C }
  - { offsetInCU: 0x36F98, offset: 0x36F98, size: 0x8, addend: 0x0, symName: __ZN5Eigen8internal18check_for_aliasingINS_6MatrixIdLi1ELin1ELi1ELi1ELin1EEENS_5BlockIKNS_7ProductINS2_IdLin1ELin1ELi0ELin1ELin1EEENS_9TransposeIS6_EELi0EEELi1ELin1ELb0EEEEEvRKT_RKT0_, symObjAddr: 0x5BCB4, symBinAddr: 0x10005C564, symSize: 0x14 }
  - { offsetInCU: 0x36FE3, offset: 0x36FE3, size: 0x8, addend: 0x0, symName: __ZN5Eigen8internal26call_dense_assignment_loopINS_6MatrixIdLi1ELin1ELi1ELi1ELin1EEENS_5BlockIKNS_7ProductINS2_IdLin1ELin1ELi0ELin1ELin1EEENS_9TransposeIS6_EELi0EEELi1ELin1ELb0EEENS0_9assign_opIddEEEEvRT_RKT0_RKT1_, symObjAddr: 0x5BCC8, symBinAddr: 0x10005C578, symSize: 0xD8 }
  - { offsetInCU: 0x37098, offset: 0x37098, size: 0x8, addend: 0x0, symName: __ZN5Eigen8internal17resize_if_allowedINS_6MatrixIdLi1ELin1ELi1ELi1ELin1EEENS_5BlockIKNS_7ProductINS2_IdLin1ELin1ELi0ELin1ELin1EEENS_9TransposeIS6_EELi0EEELi1ELin1ELb0EEEddEEvRT_RKT0_RKNS0_9assign_opIT1_T2_EE, symObjAddr: 0x5BDD4, symBinAddr: 0x10005C684, symSize: 0xF8 }
  - { offsetInCU: 0x37422, offset: 0x37422, size: 0x8, addend: 0x0, symName: __ZN5Eigen8internal15call_assignmentINS_6MatrixIdLin1ELi1ELi0ELin1ELi1EEENS_13CwiseBinaryOpINS0_13scalar_sum_opIddEEKS3_KNS_7ProductINS2_IdLin1ELin1ELi0ELin1ELin1EEES3_Li0EEEEEEEvRT_RKT0_, symObjAddr: 0x5CE2C, symBinAddr: 0x10005D6DC, symSize: 0x50 }
  - { offsetInCU: 0x3746D, offset: 0x3746D, size: 0x8, addend: 0x0, symName: __ZN5Eigen8internal15call_assignmentINS_6MatrixIdLin1ELi1ELi0ELin1ELi1EEENS_13CwiseBinaryOpINS0_13scalar_sum_opIddEEKS3_KNS_7ProductINS2_IdLin1ELin1ELi0ELin1ELin1EEES3_Li0EEEEENS0_9assign_opIddEEEEvRT_RKT0_RKT1_NS0_9enable_ifIXsr25evaluator_assume_aliasingISH_EE5valueEPvE4typeE, symObjAddr: 0x5CE90, symBinAddr: 0x10005D740, symSize: 0x74 }
  - { offsetInCU: 0x374EA, offset: 0x374EA, size: 0x8, addend: 0x0, symName: __ZN5Eigen8internal24call_assignment_no_aliasINS_6MatrixIdLin1ELi1ELi0ELin1ELi1EEES3_NS0_9assign_opIddEEEEvRT_RKT0_RKT1_, symObjAddr: 0x5CF38, symBinAddr: 0x10005D7E8, symSize: 0x3C }
  - { offsetInCU: 0x37568, offset: 0x37568, size: 0x8, addend: 0x0, symName: __ZN5Eigen8internal24call_assignment_no_aliasINS_6MatrixIdLin1ELi1ELi0ELin1ELi1EEENS_13CwiseBinaryOpINS0_13scalar_sum_opIddEEKS3_KNS_7ProductINS2_IdLin1ELin1ELi0ELin1ELin1EEES3_Li0EEEEENS0_9assign_opIddEEEEvRT_RKT0_RKT1_, symObjAddr: 0x5D068, symBinAddr: 0x10005D918, symSize: 0x3C }
  - { offsetInCU: 0x376A0, offset: 0x376A0, size: 0x8, addend: 0x0, symName: __ZN5Eigen8internal24call_assignment_no_aliasINS_6MatrixIdLin1ELi1ELi0ELin1ELi1EEENS_7ProductINS2_IdLin1ELin1ELi0ELin1ELin1EEES3_Li0EEENS0_13add_assign_opIddEEEEvRT_RKT0_RKT1_, symObjAddr: 0x5D140, symBinAddr: 0x10005D9F0, symSize: 0x3C }
  - { offsetInCU: 0x377C7, offset: 0x377C7, size: 0x8, addend: 0x0, symName: __ZN5Eigen8internal18check_for_aliasingINS_6MatrixIdLin1ELi1ELi0ELin1ELi1EEES3_EEvRKT_RKT0_, symObjAddr: 0x5D334, symBinAddr: 0x10005DBE4, symSize: 0x14 }
  - { offsetInCU: 0x37812, offset: 0x37812, size: 0x8, addend: 0x0, symName: __ZN5Eigen8internal26call_dense_assignment_loopINS_6MatrixIdLin1ELi1ELi0ELin1ELi1EEES3_NS0_9assign_opIddEEEEvRT_RKT0_RKT1_, symObjAddr: 0x5D348, symBinAddr: 0x10005DBF8, symSize: 0xD8 }
  - { offsetInCU: 0x378C6, offset: 0x378C6, size: 0x8, addend: 0x0, symName: __ZN5Eigen8internal17resize_if_allowedINS_6MatrixIdLin1ELi1ELi0ELin1ELi1EEES3_ddEEvRT_RKT0_RKNS0_9assign_opIT1_T2_EE, symObjAddr: 0x5D420, symBinAddr: 0x10005DCD0, symSize: 0xF8 }
  - { offsetInCU: 0x3794C, offset: 0x3794C, size: 0x8, addend: 0x0, symName: __ZN5Eigen8internal15call_assignmentINS_6MatrixIdLin1ELin1ELi0ELin1ELin1EEENS_7ProductINS_13CwiseBinaryOpINS0_20scalar_difference_opIddEEKNS_14CwiseNullaryOpINS0_18scalar_identity_opIdEES3_EEKNS4_IS3_S3_Li0EEEEES3_Li0EEEEEvRT_RKT0_, symObjAddr: 0x5DC18, symBinAddr: 0x10005E4C8, symSize: 0x50 }
  - { offsetInCU: 0x37997, offset: 0x37997, size: 0x8, addend: 0x0, symName: __ZN5Eigen8internal15call_assignmentINS_6MatrixIdLin1ELin1ELi0ELin1ELin1EEENS_7ProductINS_13CwiseBinaryOpINS0_20scalar_difference_opIddEEKNS_14CwiseNullaryOpINS0_18scalar_identity_opIdEES3_EEKNS4_IS3_S3_Li0EEEEES3_Li0EEENS0_9assign_opIddEEEEvRT_RKT0_RKT1_NS0_9enable_ifIXsr25evaluator_assume_aliasingISL_EE5valueEPvE4typeE, symObjAddr: 0x5DC7C, symBinAddr: 0x10005E52C, symSize: 0x74 }
  - { offsetInCU: 0x37A14, offset: 0x37A14, size: 0x8, addend: 0x0, symName: __ZN5Eigen8internal24call_assignment_no_aliasINS_6MatrixIdLin1ELin1ELi0ELin1ELin1EEENS_7ProductINS_13CwiseBinaryOpINS0_20scalar_difference_opIddEEKNS_14CwiseNullaryOpINS0_18scalar_identity_opIdEES3_EEKNS4_IS3_S3_Li0EEEEES3_Li0EEENS0_9assign_opIddEEEEvRT_RKT0_RKT1_, symObjAddr: 0x5DE18, symBinAddr: 0x10005E6C8, symSize: 0x3C }
  - { offsetInCU: 0x37DA4, offset: 0x37DA4, size: 0x8, addend: 0x0, symName: __ZN5Eigen8internal42call_restricted_packet_assignment_no_aliasINS_6MatrixIdLin1ELin1ELi0ELin1ELin1EEENS_7ProductINS_13CwiseBinaryOpINS0_20scalar_difference_opIddEEKNS_14CwiseNullaryOpINS0_18scalar_identity_opIdEES3_EEKNS4_IS3_S3_Li0EEEEES3_Li1EEENS0_9assign_opIddEEEEvRT_RKT0_RKT1_, symObjAddr: 0x5E5AC, symBinAddr: 0x10005EE5C, symSize: 0xD8 }
  - { offsetInCU: 0x37E59, offset: 0x37E59, size: 0x8, addend: 0x0, symName: __ZN5Eigen8internal17resize_if_allowedINS_6MatrixIdLin1ELin1ELi0ELin1ELin1EEENS_7ProductINS_13CwiseBinaryOpINS0_20scalar_difference_opIddEEKNS_14CwiseNullaryOpINS0_18scalar_identity_opIdEES3_EEKNS4_IS3_S3_Li0EEEEES3_Li1EEEddEEvRT_RKT0_RKNS0_9assign_opIT1_T2_EE, symObjAddr: 0x5E704, symBinAddr: 0x10005EFB4, symSize: 0xF8 }
  - { offsetInCU: 0x37EDF, offset: 0x37EDF, size: 0x8, addend: 0x0, symName: __ZN5Eigen8internal24call_assignment_no_aliasINS_6MatrixIdLin1ELin1ELi0ELin1ELin1EEENS_13CwiseBinaryOpINS0_20scalar_difference_opIddEEKNS_14CwiseNullaryOpINS0_18scalar_identity_opIdEES3_EEKNS_7ProductIS3_S3_Li0EEEEENS0_9assign_opIddEEEEvRT_RKT0_RKT1_, symObjAddr: 0x5ED28, symBinAddr: 0x10005F5D8, symSize: 0x3C }
  - { offsetInCU: 0x37FC1, offset: 0x37FC1, size: 0x8, addend: 0x0, symName: __ZN5Eigen8internal24call_assignment_no_aliasINS_6MatrixIdLin1ELin1ELi0ELin1ELin1EEENS_7ProductIS3_S3_Li0EEENS0_13sub_assign_opIddEEEEvRT_RKT0_RKT1_, symObjAddr: 0x5EE00, symBinAddr: 0x10005F6B0, symSize: 0x3C }
  - { offsetInCU: 0x38098, offset: 0x38098, size: 0x8, addend: 0x0, symName: __ZN5Eigen8internal42call_restricted_packet_assignment_no_aliasINS_6MatrixIdLin1ELin1ELi0ELin1ELin1EEENS_7ProductIS3_S3_Li1EEENS0_13sub_assign_opIddEEEEvRT_RKT0_RKT1_, symObjAddr: 0x5F128, symBinAddr: 0x10005F9D8, symSize: 0xD8 }
  - { offsetInCU: 0x3814D, offset: 0x3814D, size: 0x8, addend: 0x0, symName: __ZN5Eigen8internal17resize_if_allowedINS_6MatrixIdLin1ELin1ELi0ELin1ELin1EEENS_7ProductIS3_S3_Li1EEENS0_13sub_assign_opIddEEEEvRT_RKT0_RKT1_, symObjAddr: 0x5F200, symBinAddr: 0x10005FAB0, symSize: 0xB4 }
  - { offsetInCU: 0x39827, offset: 0x39827, size: 0x8, addend: 0x0, symName: __ZN5Eigen8internal24call_assignment_no_aliasINS_6MatrixIdLi1ELin1ELi1ELi1ELin1EEENS_5BlockIKNS_13CwiseBinaryOpINS0_20scalar_difference_opIddEEKNS_14CwiseNullaryOpINS0_18scalar_identity_opIdEENS2_IdLin1ELin1ELi0ELin1ELin1EEEEEKNS_7ProductISB_SB_Li0EEEEELi1ELin1ELb0EEENS0_9assign_opIddEEEEvRT_RKT0_RKT1_, symObjAddr: 0x63474, symBinAddr: 0x100063D24, symSize: 0x3C }
  - { offsetInCU: 0x398F5, offset: 0x398F5, size: 0x8, addend: 0x0, symName: __ZN5Eigen8internal18check_for_aliasingINS_6MatrixIdLi1ELin1ELi1ELi1ELin1EEENS_5BlockIKNS_13CwiseBinaryOpINS0_20scalar_difference_opIddEEKNS_14CwiseNullaryOpINS0_18scalar_identity_opIdEENS2_IdLin1ELin1ELi0ELin1ELin1EEEEEKNS_7ProductISB_SB_Li0EEEEELi1ELin1ELb0EEEEEvRKT_RKT0_, symObjAddr: 0x634F0, symBinAddr: 0x100063DA0, symSize: 0x14 }
  - { offsetInCU: 0x39940, offset: 0x39940, size: 0x8, addend: 0x0, symName: __ZN5Eigen8internal26call_dense_assignment_loopINS_6MatrixIdLi1ELin1ELi1ELi1ELin1EEENS_5BlockIKNS_13CwiseBinaryOpINS0_20scalar_difference_opIddEEKNS_14CwiseNullaryOpINS0_18scalar_identity_opIdEENS2_IdLin1ELin1ELi0ELin1ELin1EEEEEKNS_7ProductISB_SB_Li0EEEEELi1ELin1ELb0EEENS0_9assign_opIddEEEEvRT_RKT0_RKT1_, symObjAddr: 0x63504, symBinAddr: 0x100063DB4, symSize: 0xD8 }
  - { offsetInCU: 0x399F5, offset: 0x399F5, size: 0x8, addend: 0x0, symName: __ZN5Eigen8internal17resize_if_allowedINS_6MatrixIdLi1ELin1ELi1ELi1ELin1EEENS_5BlockIKNS_13CwiseBinaryOpINS0_20scalar_difference_opIddEEKNS_14CwiseNullaryOpINS0_18scalar_identity_opIdEENS2_IdLin1ELin1ELi0ELin1ELin1EEEEEKNS_7ProductISB_SB_Li0EEEEELi1ELin1ELb0EEEddEEvRT_RKT0_RKNS0_9assign_opIT1_T2_EE, symObjAddr: 0x63610, symBinAddr: 0x100063EC0, symSize: 0xF8 }
  - { offsetInCU: 0x39CCD, offset: 0x39CCD, size: 0x8, addend: 0x0, symName: __ZN5Eigen8internal12print_matrixINS_6MatrixIdLi1ELin1ELi1ELi1ELin1EEEEERNSt3__113basic_ostreamIcNS4_11char_traitsIcEEEES9_RKT_RKNS_8IOFormatE, symObjAddr: 0x648CC, symBinAddr: 0x10006517C, symSize: 0x580 }
  - { offsetInCU: 0x39E56, offset: 0x39E56, size: 0x8, addend: 0x0, symName: __ZN5Eigen8internal24call_assignment_no_aliasINS_6MatrixIdLi1ELin1ELi1ELi1ELin1EEENS_9TransposeINS2_IdLin1ELi1ELi0ELin1ELi1EEEEENS0_9assign_opIddEEEEvRT_RKT0_RKT1_, symObjAddr: 0x65914, symBinAddr: 0x1000661C4, symSize: 0x3C }
  - { offsetInCU: 0x39F24, offset: 0x39F24, size: 0x8, addend: 0x0, symName: __ZN5Eigen8internal18check_for_aliasingINS_6MatrixIdLi1ELin1ELi1ELi1ELin1EEENS_9TransposeINS2_IdLin1ELi1ELi0ELin1ELi1EEEEEEEvRKT_RKT0_, symObjAddr: 0x65990, symBinAddr: 0x100066240, symSize: 0x14 }
  - { offsetInCU: 0x39F6F, offset: 0x39F6F, size: 0x8, addend: 0x0, symName: __ZN5Eigen8internal26call_dense_assignment_loopINS_6MatrixIdLi1ELin1ELi1ELi1ELin1EEENS_9TransposeINS2_IdLin1ELi1ELi0ELin1ELi1EEEEENS0_9assign_opIddEEEEvRT_RKT0_RKT1_, symObjAddr: 0x659A4, symBinAddr: 0x100066254, symSize: 0xD8 }
  - { offsetInCU: 0x3A023, offset: 0x3A023, size: 0x8, addend: 0x0, symName: __ZN5Eigen8internal17resize_if_allowedINS_6MatrixIdLi1ELin1ELi1ELi1ELin1EEENS_9TransposeINS2_IdLin1ELi1ELi0ELin1ELi1EEEEEddEEvRT_RKT0_RKNS0_9assign_opIT1_T2_EE, symObjAddr: 0x65AB0, symBinAddr: 0x100066360, symSize: 0xF8 }
  - { offsetInCU: 0x3B034, offset: 0x3B034, size: 0x8, addend: 0x0, symName: __ZN5EigenL6lastp1E, symObjAddr: 0xAABFEE, symBinAddr: 0x10007C021, symSize: 0x0 }
  - { offsetInCU: 0x3B04D, offset: 0x3B04D, size: 0x8, addend: 0x0, symName: __ZN5EigenL3allE, symObjAddr: 0xAABFF1, symBinAddr: 0x10007C024, symSize: 0x0 }
  - { offsetInCU: 0x3B066, offset: 0x3B066, size: 0x8, addend: 0x0, symName: __ZN5EigenL3fixILi1EEE, symObjAddr: 0xAABFF0, symBinAddr: 0x10007C023, symSize: 0x0 }
  - { offsetInCU: 0x3B08A, offset: 0x3B08A, size: 0x8, addend: 0x0, symName: __ZN5EigenL3fixILi0EEE, symObjAddr: 0xAABFF2, symBinAddr: 0x10007C025, symSize: 0x0 }
  - { offsetInCU: 0x3B0AE, offset: 0x3B0AE, size: 0x8, addend: 0x0, symName: __ZN5EigenL3fixILi2EEE, symObjAddr: 0xAABFF3, symBinAddr: 0x10007C026, symSize: 0x0 }
  - { offsetInCU: 0x3B0D2, offset: 0x3B0D2, size: 0x8, addend: 0x0, symName: __ZN5EigenL3fixILi3EEE, symObjAddr: 0xAABFF4, symBinAddr: 0x10007C027, symSize: 0x0 }
  - { offsetInCU: 0x3B0F6, offset: 0x3B0F6, size: 0x8, addend: 0x0, symName: __ZN5EigenL3fixILin1EEE, symObjAddr: 0xAABFF5, symBinAddr: 0x10007C028, symSize: 0x0 }
  - { offsetInCU: 0x115490, offset: 0x115490, size: 0x8, addend: 0x0, symName: __ZN5EigenmlIdEEKNS_13CwiseBinaryOpINS_8internal17scalar_product_opINS2_18promote_scalar_argIdT_Xsr5Eigen8internal14has_ReturnTypeINS_20ScalarBinaryOpTraitsIS5_dNS3_IS5_dEEEEEE5valueEE4typeEdEEKNS2_19plain_constant_typeINS_14CwiseNullaryOpINS2_16scalar_random_opIdEENS_6MatrixIdLin1ELin1ELi0ELin1ELin1EEEEESA_E4typeEKSI_EERKS5_RKNS_10MatrixBaseISI_EE, symObjAddr: 0x17A4, symBinAddr: 0x100002054, symSize: 0x9C }
  - { offsetInCU: 0x1154D3, offset: 0x1154D3, size: 0x8, addend: 0x0, symName: __ZN5EigenmlIdEEKNS_13CwiseBinaryOpINS_8internal17scalar_product_opINS2_18promote_scalar_argIdT_Xsr5Eigen8internal14has_ReturnTypeINS_20ScalarBinaryOpTraitsIS5_dNS3_IS5_dEEEEEE5valueEE4typeEdEEKNS2_19plain_constant_typeINS_6MatrixIdLin1ELin1ELi0ELin1ELin1EEESA_E4typeEKSE_EERKS5_RKNS_10MatrixBaseISE_EE, symObjAddr: 0x1AB0, symBinAddr: 0x100002360, symSize: 0x9C }
  - { offsetInCU: 0x115516, offset: 0x115516, size: 0x8, addend: 0x0, symName: __ZN5EigenlsINS_9TransposeINS_6MatrixIdLin1ELi1ELi0ELin1ELi1EEEEEEERNSt3__113basic_ostreamIcNS5_11char_traitsIcEEEESA_RKNS_9DenseBaseIT_EE, symObjAddr: 0x2088, symBinAddr: 0x100002938, symSize: 0x230 }
  - { offsetInCU: 0x115591, offset: 0x115591, size: 0x8, addend: 0x0, symName: __ZN5Eigen6numext4realIdEENS_8internal11real_retvalINS2_36global_math_functions_filtering_baseIT_vE4typeEE4typeERKS5_, symObjAddr: 0x9128, symBinAddr: 0x1000099D8, symSize: 0x24 }
  - { offsetInCU: 0x1155FB, offset: 0x1155FB, size: 0x8, addend: 0x0, symName: __ZN5Eigen6numext8div_ceilIlEET_RKS2_S4_, symObjAddr: 0x1E2F4, symBinAddr: 0x10001EBA4, symSize: 0x38 }
  - { offsetInCU: 0x120C5E, offset: 0x120C5E, size: 0x8, addend: 0x0, symName: __ZN5EigenmlIdEEKNS_13CwiseBinaryOpINS_8internal17scalar_product_opINS2_18promote_scalar_argIdT_Xsr5Eigen8internal14has_ReturnTypeINS_20ScalarBinaryOpTraitsIS5_dNS3_IS5_dEEEEEE5valueEE4typeEdEEKNS2_19plain_constant_typeINS_5BlockINSD_INS_3RefINS_6MatrixIdLin1ELin1ELi0ELin1ELin1EEELi0ENS_11OuterStrideILin1EEEEELin1ELi1ELb1EEELin1ELi1ELb0EEESA_E4typeEKSL_EERKS5_RKNS_10MatrixBaseISL_EE, symObjAddr: 0x433C0, symBinAddr: 0x100043C70, symSize: 0x9C }
  - { offsetInCU: 0x124045, offset: 0x124045, size: 0x8, addend: 0x0, symName: __ZN5EigenmlINS_17PermutationMatrixILin1ELin1EiEENS_14CwiseNullaryOpINS_8internal18scalar_identity_opIdEENS_6MatrixIdLin1ELin1ELi0ELin1ELin1EEEEEEEKNS_7ProductIT_T0_Li2EEERKNS_15PermutationBaseISB_EERKNS_10MatrixBaseISC_EE, symObjAddr: 0x52248, symBinAddr: 0x100052AF8, symSize: 0x4C }
  - { offsetInCU: 0x12E516, offset: 0x12E516, size: 0x8, addend: 0x0, symName: __ZNSt3__124__put_character_sequenceB7v160006IcNS_11char_traitsIcEEEERNS_13basic_ostreamIT_T0_EES7_PKS4_m, symObjAddr: 0x63CFC, symBinAddr: 0x1000645AC, symSize: 0x1EC }
  - { offsetInCU: 0x130069, offset: 0x130069, size: 0x8, addend: 0x0, symName: __ZNSt3__1lsB7v160006INS_11char_traitsIcEEEERNS_13basic_ostreamIcT_EES6_PKc, symObjAddr: 0x22B8, symBinAddr: 0x100002B68, symSize: 0x48 }
  - { offsetInCU: 0x1300AF, offset: 0x1300AF, size: 0x8, addend: 0x0, symName: __ZNSt3__14endlB7v160006IcNS_11char_traitsIcEEEERNS_13basic_ostreamIT_T0_EES7_, symObjAddr: 0x2360, symBinAddr: 0x100002C10, symSize: 0x58 }
  - { offsetInCU: 0x1300EF, offset: 0x1300EF, size: 0x8, addend: 0x0, symName: __ZNSt3__16fill_nB7v160006IPdldEET_S2_T0_RKT1_, symObjAddr: 0x502C, symBinAddr: 0x1000058DC, symSize: 0x44 }
  - { offsetInCU: 0x130152, offset: 0x130152, size: 0x8, addend: 0x0, symName: __ZNSt3__18__fill_nB7v160006IPdldEET_S2_T0_RKT1_, symObjAddr: 0x516C, symBinAddr: 0x100005A1C, symSize: 0x64 }
  - { offsetInCU: 0x1301B5, offset: 0x1301B5, size: 0x8, addend: 0x0, symName: __ZNSt3__121__convert_to_integralB7v160006El, symObjAddr: 0x51D0, symBinAddr: 0x100005A80, symSize: 0x14 }
  - { offsetInCU: 0x1301E1, offset: 0x1301E1, size: 0x8, addend: 0x0, symName: __ZNSt3__13minB7v160006IlEERKT_S3_S3_, symObjAddr: 0x92BC, symBinAddr: 0x100009B6C, symSize: 0x2C }
  - { offsetInCU: 0x130224, offset: 0x130224, size: 0x8, addend: 0x0, symName: __ZNSt3__13minB7v160006IlNS_6__lessIllEEEERKT_S5_S5_T0_, symObjAddr: 0x92E8, symBinAddr: 0x100009B98, symSize: 0x54 }
  - { offsetInCU: 0x1302B9, offset: 0x1302B9, size: 0x8, addend: 0x0, symName: __ZNSt3__13maxB7v160006IlEERKT_S3_S3_, symObjAddr: 0x1E458, symBinAddr: 0x10001ED08, symSize: 0x2C }
  - { offsetInCU: 0x1302FC, offset: 0x1302FC, size: 0x8, addend: 0x0, symName: __ZNSt3__13maxB7v160006IlNS_6__lessIllEEEERKT_S5_S5_T0_, symObjAddr: 0x1E484, symBinAddr: 0x10001ED34, symSize: 0x54 }
  - { offsetInCU: 0x130557, offset: 0x130557, size: 0x8, addend: 0x0, symName: __ZNSt3__13maxB7v160006IdEERKT_S3_S3_, symObjAddr: 0x3D9B4, symBinAddr: 0x10003E264, symSize: 0x2C }
  - { offsetInCU: 0x13059A, offset: 0x13059A, size: 0x8, addend: 0x0, symName: __ZNSt3__13maxB7v160006IdNS_6__lessIddEEEERKT_S5_S5_T0_, symObjAddr: 0x3D9E0, symBinAddr: 0x10003E290, symSize: 0x54 }
  - { offsetInCU: 0x13062F, offset: 0x13062F, size: 0x8, addend: 0x0, symName: __ZNSt3__14swapB7v160006IdEENS_9enable_ifIXaasr21is_move_constructibleIT_EE5valuesr18is_move_assignableIS2_EE5valueEvE4typeERS2_S5_, symObjAddr: 0x46134, symBinAddr: 0x1000469E4, symSize: 0x3C }
  - { offsetInCU: 0x130680, offset: 0x130680, size: 0x8, addend: 0x0, symName: __ZNSt3__14swapB7v160006IiEENS_9enable_ifIXaasr21is_move_constructibleIT_EE5valuesr18is_move_assignableIS2_EE5valueEvE4typeERS2_S5_, symObjAddr: 0x5148C, symBinAddr: 0x100051D3C, symSize: 0x3C }
  - { offsetInCU: 0x1306D1, offset: 0x1306D1, size: 0x8, addend: 0x0, symName: __ZNSt3__16fill_nB7v160006IPblbEET_S2_T0_RKT1_, symObjAddr: 0x539BC, symBinAddr: 0x10005426C, symSize: 0x44 }
  - { offsetInCU: 0x130734, offset: 0x130734, size: 0x8, addend: 0x0, symName: __ZNSt3__18__fill_nB7v160006IPblbEET_S2_T0_RKT1_, symObjAddr: 0x53C48, symBinAddr: 0x1000544F8, symSize: 0x68 }
  - { offsetInCU: 0x130797, offset: 0x130797, size: 0x8, addend: 0x0, symName: __ZNSt3__116__pad_and_outputB7v160006IcNS_11char_traitsIcEEEENS_19ostreambuf_iteratorIT_T0_EES6_PKS4_S8_S8_RNS_8ios_baseES4_, symObjAddr: 0x63F38, symBinAddr: 0x1000647E8, symSize: 0x240 }
  - { offsetInCU: 0x130867, offset: 0x130867, size: 0x8, addend: 0x0, symName: __ZNSt3__119__debug_db_insert_cB7v160006INS_12basic_stringIcNS_11char_traitsIcEENS_9allocatorIcEEEEEEvPT_, symObjAddr: 0x643EC, symBinAddr: 0x100064C9C, symSize: 0x10 }
  - { offsetInCU: 0x130898, offset: 0x130898, size: 0x8, addend: 0x0, symName: __ZNSt3__112__to_addressB7v160006IKcEEPT_S3_, symObjAddr: 0x644B8, symBinAddr: 0x100064D68, symSize: 0x14 }
  - { offsetInCU: 0x130900, offset: 0x130900, size: 0x8, addend: 0x0, symName: __ZNSt3__19use_facetB7v160006INS_5ctypeIcEEEERKT_RKNS_6localeE, symObjAddr: 0x64738, symBinAddr: 0x100064FE8, symSize: 0x2C }
  - { offsetInCU: 0x130DD0, offset: 0x130DD0, size: 0x8, addend: 0x0, symName: __ZNSt3__118__constexpr_strlenB7v160006EPKc, symObjAddr: 0x647D0, symBinAddr: 0x100065080, symSize: 0x24 }
  - { offsetInCU: 0x130DFC, offset: 0x130DFC, size: 0x8, addend: 0x0, symName: __ZNSt3__1lsB7v160006IcNS_11char_traitsIcEENS_9allocatorIcEEEERNS_13basic_ostreamIT_T0_EES9_RKNS_12basic_stringIS6_S7_T1_EE, symObjAddr: 0x64F6C, symBinAddr: 0x10006581C, symSize: 0x4C }
  - { offsetInCU: 0x1373C6, offset: 0x1373C6, size: 0x8, addend: 0x0, symName: __ZN5Eigen8internal29general_matrix_vector_productIldNS0_22const_blas_data_mapperIdlLi0EEELi0ELb0EdNS2_IdlLi1EEELb0ELi0EE3runEllRKS3_RKS4_Pdld, symObjAddr: 0x7B2C, symBinAddr: 0x1000083DC, symSize: 0x15D4 }
  - { offsetInCU: 0x138935, offset: 0x138935, size: 0x8, addend: 0x0, symName: __ZN5Eigen8internal21dense_assignment_loopINS0_31generic_dense_assignment_kernelINS0_9evaluatorINS_6MatrixIdLin1ELin1ELi0ELin1ELin1EEEEENS3_INS_13CwiseBinaryOpINS0_13scalar_sum_opIddEEKNS7_IS9_KNS_7ProductIS5_NS4_IdLin1ELi1ELi0ELin1ELi1EEELi0EEESD_EEKS5_EEEENS0_9assign_opIddEELi0EEELi3ELi0EE3runERSL_, symObjAddr: 0x3A14, symBinAddr: 0x1000042C4, symSize: 0xA8 }
  - { offsetInCU: 0x138BEC, offset: 0x138BEC, size: 0x8, addend: 0x0, symName: __ZN5Eigen8internal21dense_assignment_loopINS0_31generic_dense_assignment_kernelINS0_9evaluatorINS_6MatrixIdLin1ELi1ELi0ELin1ELi1EEEEENS3_INS_13CwiseBinaryOpINS0_13scalar_sum_opIddEEKNS_7ProductINS4_IdLin1ELin1ELi0ELin1ELin1EEES5_Li0EEEKSB_EEEENS0_9assign_opIddEELi0EEELi3ELi0EE3runERSJ_, symObjAddr: 0xA5FC, symBinAddr: 0x10000AEAC, symSize: 0xA8 }
  - { offsetInCU: 0x138CB4, offset: 0x138CB4, size: 0x8, addend: 0x0, symName: __ZN5Eigen8internal21dense_assignment_loopINS0_31generic_dense_assignment_kernelINS0_9evaluatorINS_6MatrixIdLin1ELin1ELi0ELin1ELin1EEEEENS3_INS4_IdLin1ELi1ELi0ELin1ELi1EEEEENS0_9assign_opIddEELi0EEELi3ELi0EE3runERSB_, symObjAddr: 0xEE70, symBinAddr: 0x10000F720, symSize: 0xA8 }
  - { offsetInCU: 0x138D7C, offset: 0x138D7C, size: 0x8, addend: 0x0, symName: __ZN5Eigen8internal21dense_assignment_loopINS0_31generic_dense_assignment_kernelINS0_9evaluatorINS_6MatrixIdLin1ELi1ELi0ELin1ELi1EEEEENS3_INS4_IdLin1ELin1ELi0ELin1ELin1EEEEENS0_9assign_opIddEELi0EEELi3ELi0EE3runERSB_, symObjAddr: 0xF604, symBinAddr: 0x10000FEB4, symSize: 0xA8 }
  - { offsetInCU: 0x139079, offset: 0x139079, size: 0x8, addend: 0x0, symName: __ZN5Eigen8internal21dense_assignment_loopINS0_41restricted_packet_dense_assignment_kernelINS0_9evaluatorINS_6MatrixIdLin1ELin1ELi0ELin1ELin1EEEEENS3_INS_7ProductIS5_S5_Li1EEEEENS0_9assign_opIddEEEELi4ELi0EE3runERSC_, symObjAddr: 0x14278, symBinAddr: 0x100014B28, symSize: 0x1D8 }
  - { offsetInCU: 0x1391E8, offset: 0x1391E8, size: 0x8, addend: 0x0, symName: __ZN5Eigen8internal29general_matrix_vector_productIldNS0_22const_blas_data_mapperIdlLi1EEELi1ELb0EdNS2_IdlLi0EEELb0ELi0EE3runEllRKS3_RKS4_Pdld, symObjAddr: 0x1A9A4, symBinAddr: 0x10001B254, symSize: 0x17A4 }
  - { offsetInCU: 0x13A40F, offset: 0x13A40F, size: 0x8, addend: 0x0, symName: __ZN5Eigen8internal13gemm_pack_lhsIdlNS0_22const_blas_data_mapperIdlLi0EEELi6ELi2E19__simd128_float64_tLi0ELb0ELb0EEclEPdRKS3_llll, symObjAddr: 0x1F2D0, symBinAddr: 0x10001FB80, symSize: 0x73C }
  - { offsetInCU: 0x13A9B4, offset: 0x13A9B4, size: 0x8, addend: 0x0, symName: __ZN5Eigen8internal11gebp_kernelIddlNS0_16blas_data_mapperIdlLi0ELi0ELi1EEELi6ELi4ELb0ELb0EEclERKS3_PKdS8_llldllll, symObjAddr: 0x2011C, symBinAddr: 0x1000209CC, symSize: 0x5408 }
  - { offsetInCU: 0x13D52E, offset: 0x13D52E, size: 0x8, addend: 0x0, symName: __ZN5Eigen8internal21dense_assignment_loopINS0_31generic_dense_assignment_kernelINS0_9evaluatorINS_6MatrixIdLin1ELi1ELi0ELin1ELi1EEEEENS3_INS_13CwiseBinaryOpINS0_20scalar_difference_opIddEEKS5_SA_EEEENS0_9assign_opIddEELi0EEELi3ELi0EE3runERSF_, symObjAddr: 0x3386C, symBinAddr: 0x10003411C, symSize: 0xA8 }
  - { offsetInCU: 0x13D830, offset: 0x13D830, size: 0x8, addend: 0x0, symName: __ZN5Eigen8internal21dense_assignment_loopINS0_41restricted_packet_dense_assignment_kernelINS0_9evaluatorINS_6MatrixIdLin1ELin1ELi0ELin1ELin1EEEEENS3_INS_7ProductIS5_NS_9TransposeIKS5_EELi1EEEEENS0_9assign_opIddEEEELi4ELi0EE3runERSF_, symObjAddr: 0x363CC, symBinAddr: 0x100036C7C, symSize: 0x1D8 }
  - { offsetInCU: 0x13D9CC, offset: 0x13D9CC, size: 0x8, addend: 0x0, symName: __ZN5Eigen8internal21dense_assignment_loopINS0_31generic_dense_assignment_kernelINS0_9evaluatorINS_6MatrixIdLin1ELin1ELi0ELin1ELin1EEEEES6_NS0_9assign_opIddEELi0EEELi3ELi0EE3runERS9_, symObjAddr: 0x3B610, symBinAddr: 0x10003BEC0, symSize: 0xA8 }
  - { offsetInCU: 0x13F7EF, offset: 0x13F7EF, size: 0x8, addend: 0x0, symName: __ZN5Eigen8internal21dense_assignment_loopINS0_31generic_dense_assignment_kernelINS0_9evaluatorINS_5BlockINS4_INS_3RefINS_6MatrixIdLin1ELin1ELi0ELin1ELin1EEELi0ENS_11OuterStrideILin1EEEEELin1ELi1ELb1EEELin1ELi1ELb0EEEEENS3_INS_14CwiseNullaryOpINS0_18scalar_constant_opIdEENS6_IdLin1ELi1ELi0ELin1ELi1EEEEEEENS0_13div_assign_opIddEELi0EEELi3ELi0EE3runERSM_, symObjAddr: 0x41A4C, symBinAddr: 0x1000422FC, symSize: 0xC0 }
  - { offsetInCU: 0x14030E, offset: 0x14030E, size: 0x8, addend: 0x0, symName: __ZN5Eigen8internal21dense_assignment_loopINS0_31generic_dense_assignment_kernelINS0_9evaluatorINS_5BlockINS4_INS_3RefINS_6MatrixIdLin1ELin1ELi0ELin1ELin1EEELi0ENS_11OuterStrideILin1EEEEELin1ELin1ELb0EEELin1ELi1ELb1EEEEENS3_INS_13CwiseBinaryOpINS0_17scalar_product_opIddEEKNS_14CwiseNullaryOpINS0_18scalar_constant_opIdEEKNS6_IdLin1ELi1ELi0ELin1ELi1EEEEEKNS4_INS4_ISA_Lin1ELi1ELb1EEELin1ELi1ELb0EEEEEEENS0_13sub_assign_opIddEELi0EEELi3ELi0EE3runERSV_, symObjAddr: 0x43B80, symBinAddr: 0x100044430, symSize: 0xC0 }
  - { offsetInCU: 0x1403C2, offset: 0x1403C2, size: 0x8, addend: 0x0, symName: __ZN5Eigen8internal23triangular_solve_matrixIdlLi1ELi5ELb0ELi0ELi0ELi1EE3runEllPKdlPdllRNS0_15level3_blockingIddEE, symObjAddr: 0x465E8, symBinAddr: 0x100046E98, symSize: 0x11E4 }
  - { offsetInCU: 0x1411C7, offset: 0x1411C7, size: 0x8, addend: 0x0, symName: __ZN5Eigen8internal21dense_assignment_loopINS0_41restricted_packet_dense_assignment_kernelINS0_9evaluatorINS_3RefINS_6MatrixIdLin1ELin1ELi0ELin1ELin1EEELi0ENS_11OuterStrideILin1EEEEEEENS3_INS_7ProductIS9_S9_Li1EEEEENS0_13sub_assign_opIddEEEELi4ELi0EE3runERSG_, symObjAddr: 0x49540, symBinAddr: 0x100049DF0, symSize: 0x214 }
  - { offsetInCU: 0x14175F, offset: 0x14175F, size: 0x8, addend: 0x0, symName: __ZN5Eigen8internal23triangular_solve_matrixIdlLi1ELi2ELb0ELi0ELi0ELi1EE3runEllPKdlPdllRNS0_15level3_blockingIddEE, symObjAddr: 0x55674, symBinAddr: 0x100055F24, symSize: 0x1230 }
  - { offsetInCU: 0x142DEB, offset: 0x142DEB, size: 0x8, addend: 0x0, symName: __ZN5Eigen8internal21dense_assignment_loopINS0_41restricted_packet_dense_assignment_kernelINS0_9evaluatorINS_6MatrixIdLin1ELin1ELi0ELin1ELin1EEEEENS3_INS_7ProductINS7_IS5_NS_9TransposeIS5_EELi0EEENS_7InverseIS5_EELi1EEEEENS0_9assign_opIddEEEELi4ELi0EE3runERSH_, symObjAddr: 0x35528, symBinAddr: 0x100035DD8, symSize: 0x1D8 }
  - { offsetInCU: 0x142FEB, offset: 0x142FEB, size: 0x8, addend: 0x0, symName: __ZN5Eigen8internal21dense_assignment_loopINS0_31generic_dense_assignment_kernelINS0_9evaluatorINS_6MatrixIdLin1ELi1ELi0ELin1ELi1EEEEENS3_INS_5BlockIKNS_7InverseINS4_IdLin1ELin1ELi0ELin1ELin1EEEEELin1ELi1ELb1EEEEENS0_9assign_opIddEELi0EEELi3ELi0EE3runERSG_, symObjAddr: 0x59E0C, symBinAddr: 0x10005A6BC, symSize: 0xA8 }
  - { offsetInCU: 0x1430B3, offset: 0x1430B3, size: 0x8, addend: 0x0, symName: __ZN5Eigen8internal21dense_assignment_loopINS0_31generic_dense_assignment_kernelINS0_9evaluatorINS_6MatrixIdLin1ELi1ELi0ELin1ELi1EEEEES6_NS0_9assign_opIddEELi0EEELi3ELi0EE3runERS9_, symObjAddr: 0x5D564, symBinAddr: 0x10005DE14, symSize: 0xA8 }
  - { offsetInCU: 0x143185, offset: 0x143185, size: 0x8, addend: 0x0, symName: __ZN5Eigen8internal21dense_assignment_loopINS0_41restricted_packet_dense_assignment_kernelINS0_9evaluatorINS_6MatrixIdLin1ELin1ELi0ELin1ELin1EEEEENS3_INS_7ProductIS5_S5_Li1EEEEENS0_13sub_assign_opIddEEEELi4ELi0EE3runERSC_, symObjAddr: 0x5F300, symBinAddr: 0x10005FBB0, symSize: 0x1D8 }
  - { offsetInCU: 0x144654, offset: 0x144654, size: 0x8, addend: 0x0, symName: __ZN5Eigen8internal21dense_assignment_loopINS0_41restricted_packet_dense_assignment_kernelINS0_9evaluatorINS_6MatrixIdLin1ELin1ELi0ELin1ELin1EEEEENS3_INS_7ProductINS_13CwiseBinaryOpINS0_20scalar_difference_opIddEEKNS_14CwiseNullaryOpINS0_18scalar_identity_opIdEES5_EEKNS7_IS5_S5_Li0EEEEES5_Li1EEEEENS0_9assign_opIddEEEELi4ELi0EE3runERSN_, symObjAddr: 0x5E848, symBinAddr: 0x10005F0F8, symSize: 0x1D8 }
  - { offsetInCU: 0x1449BA, offset: 0x1449BA, size: 0x8, addend: 0x0, symName: __ZN5Eigen8internal21dense_assignment_loopINS0_31generic_dense_assignment_kernelINS0_9evaluatorINS_6MatrixIdLi1ELin1ELi1ELi1ELin1EEEEENS3_INS_9TransposeINS4_IdLin1ELi1ELi0ELin1ELi1EEEEEEENS0_9assign_opIddEELi0EEELi3ELi0EE3runERSD_, symObjAddr: 0x65BF4, symBinAddr: 0x1000664A4, symSize: 0xA8 }
  - { offsetInCU: 0x145CCF, offset: 0x145CCF, size: 0x8, addend: 0x0, symName: __ZN5Eigen8internal19gemv_dense_selectorILi2ELi1ELb1EE3runINS_9TransposeIKNS_6MatrixIdLin1ELin1ELi0ELin1ELin1EEEEENS4_IKNS_5BlockIS7_Li1ELin1ELb0EEEEENS4_INS9_IS6_Li1ELin1ELb0EEEEEEEvRKT_RKT0_RT1_RKNSL_6ScalarE, symObjAddr: 0x1A230, symBinAddr: 0x10001AAE0, symSize: 0x4CC }
  - { offsetInCU: 0x1463C1, offset: 0x1463C1, size: 0x8, addend: 0x0, symName: __ZN5Eigen8internal19gemv_dense_selectorILi2ELi0ELb1EE3runINS_6MatrixIdLin1ELin1ELi0ELin1ELin1EEENS_5BlockIKNS_9TransposeIS5_EELin1ELi1ELb0EEENS6_INS4_IdLin1ELin1ELi1ELin1ELin1EEELin1ELi1ELb0EEEEEvRKT_RKT0_RT1_RKNSJ_6ScalarE, symObjAddr: 0x299B8, symBinAddr: 0x10002A268, symSize: 0x564 }
  - { offsetInCU: 0x147017, offset: 0x147017, size: 0x8, addend: 0x0, symName: __ZN5Eigen8internal19gemv_dense_selectorILi2ELi0ELb1EE3runINS_9TransposeIKNS4_INS_6MatrixIdLin1ELin1ELi0ELin1ELin1EEEEEEENS4_IKNS_5BlockIKS6_Li1ELin1ELb0EEEEENS4_INSA_IS6_Li1ELin1ELb0EEEEEEEvRKT_RKT0_RT1_RKNSN_6ScalarE, symObjAddr: 0x38BF8, symBinAddr: 0x1000394A8, symSize: 0x574 }
  - { offsetInCU: 0x147349, offset: 0x147349, size: 0x8, addend: 0x0, symName: __ZN5Eigen8internal15partial_lu_implIdLi0EiLin1EE12unblocked_luERNS_3RefINS_6MatrixIdLin1ELin1ELi0ELin1ELin1EEELi0ENS_11OuterStrideILin1EEEEEPiRi, symObjAddr: 0x3E35C, symBinAddr: 0x10003EC0C, symSize: 0x39C }
  - { offsetInCU: 0x147EC5, offset: 0x147EC5, size: 0x8, addend: 0x0, symName: __ZN5Eigen8internal19gemv_dense_selectorILi2ELi1ELb1EE3runINS_9TransposeIKNS_3RefINS_6MatrixIdLin1ELin1ELi0ELin1ELin1EEELi0ENS_11OuterStrideILin1EEEEEEENS4_IKNS_5BlockISB_Li1ELin1ELb0EEEEENS4_INSD_ISA_Li1ELin1ELb0EEEEEEEvRKT_RKT0_RT1_RKNSP_6ScalarE, symObjAddr: 0x4FB3C, symBinAddr: 0x1000503EC, symSize: 0x4CC }
  - { offsetInCU: 0x148B98, offset: 0x148B98, size: 0x8, addend: 0x0, symName: __ZN5Eigen8internal19gemv_dense_selectorILi2ELi1ELb1EE3runINS_9TransposeIKNS_6MatrixIdLin1ELin1ELi0ELin1ELin1EEEEENS4_IKNS5_IdLi1ELin1ELi1ELi1ELin1EEEEENS4_INS_5BlockIS6_Li1ELin1ELb0EEEEEEEvRKT_RKT0_RT1_RKNSL_6ScalarE, symObjAddr: 0x5C0D8, symBinAddr: 0x10005C988, symSize: 0x47C }
  - { offsetInCU: 0x14B7C7, offset: 0x14B7C7, size: 0x8, addend: 0x0, symName: __ZN5Eigen8symbolic10SymbolExprINS_8internal17symbolic_last_tagEEC1Ev, symObjAddr: 0x0, symBinAddr: 0x1000008B0, symSize: 0x2C }
  - { offsetInCU: 0x14B7F1, offset: 0x14B7F1, size: 0x8, addend: 0x0, symName: __ZNK5Eigen8symbolic8BaseExprINS0_10SymbolExprINS_8internal17symbolic_last_tagEEEEplILi1EEENS0_7AddExprIS5_NS0_9ValueExprINS3_8FixedIntIXT_EEEEEEESB_, symObjAddr: 0x2C, symBinAddr: 0x1000008DC, symSize: 0x48 }
  - { offsetInCU: 0x14B82C, offset: 0x14B82C, size: 0x8, addend: 0x0, symName: __ZNK5Eigen8internal8FixedIntILi1EEclEv, symObjAddr: 0x74, symBinAddr: 0x100000924, symSize: 0x10 }
  - { offsetInCU: 0x14B852, offset: 0x14B852, size: 0x8, addend: 0x0, symName: __ZN5Eigen8internal5all_tC1Ev, symObjAddr: 0x84, symBinAddr: 0x100000934, symSize: 0x2C }
  - { offsetInCU: 0x14B87B, offset: 0x14B87B, size: 0x8, addend: 0x0, symName: __Z15stateTransitionRKN5Eigen6MatrixIdLin1ELin1ELi0ELin1ELin1EEES3_RKNS0_IdLin1ELi1ELi0ELin1ELi1EEES6_S3_, symObjAddr: 0xB0, symBinAddr: 0x100000960, symSize: 0xD4 }
  - { offsetInCU: 0x14B8E5, offset: 0x14B8E5, size: 0x8, addend: 0x0, symName: __ZNK5Eigen10MatrixBaseINS_6MatrixIdLin1ELin1ELi0ELin1ELin1EEEEmlINS1_IdLin1ELi1ELi0ELin1ELi1EEEEEKNS_7ProductIS2_T_Li0EEERKNS0_IS7_EE, symObjAddr: 0x184, symBinAddr: 0x100000A34, symSize: 0x4C }
  - { offsetInCU: 0x14B925, offset: 0x14B925, size: 0x8, addend: 0x0, symName: __ZNK5Eigen10MatrixBaseINS_7ProductINS_6MatrixIdLin1ELin1ELi0ELin1ELin1EEENS2_IdLin1ELi1ELi0ELin1ELi1EEELi0EEEEplIS5_EEKNS_13CwiseBinaryOpINS_8internal13scalar_sum_opIdNS9_6traitsIT_E6ScalarEEEKS5_KSC_EERKNS0_ISC_EE, symObjAddr: 0x1D0, symBinAddr: 0x100000A80, symSize: 0x60 }
  - { offsetInCU: 0x14B962, offset: 0x14B962, size: 0x8, addend: 0x0, symName: __ZNK5Eigen10MatrixBaseINS_13CwiseBinaryOpINS_8internal13scalar_sum_opIddEEKNS_7ProductINS_6MatrixIdLin1ELin1ELi0ELin1ELin1EEENS6_IdLin1ELi1ELi0ELin1ELi1EEELi0EEESA_EEEplIS7_EEKNS1_INS3_IdNS2_6traitsIT_E6ScalarEEEKSB_KSF_EERKNS0_ISF_EE, symObjAddr: 0x230, symBinAddr: 0x100000AE0, symSize: 0x60 }
  - { offsetInCU: 0x14B9A4, offset: 0x14B9A4, size: 0x8, addend: 0x0, symName: __ZN5Eigen6MatrixIdLin1ELin1ELi0ELin1ELin1EEC1INS_13CwiseBinaryOpINS_8internal13scalar_sum_opIddEEKNS3_IS6_KNS_7ProductIS1_NS0_IdLin1ELi1ELi0ELin1ELi1EEELi0EEESA_EEKS1_EEEERKNS_9EigenBaseIT_EE, symObjAddr: 0x290, symBinAddr: 0x100000B40, symSize: 0x34 }
  - { offsetInCU: 0x14B9E5, offset: 0x14B9E5, size: 0x8, addend: 0x0, symName: __Z19observationFunctionRKN5Eigen6MatrixIdLin1ELin1ELi0ELin1ELin1EEERKNS0_IdLin1ELi1ELi0ELin1ELi1EEES3_, symObjAddr: 0x2C4, symBinAddr: 0x100000B74, symSize: 0x64 }
  - { offsetInCU: 0x14BA2E, offset: 0x14BA2E, size: 0x8, addend: 0x0, symName: __ZNK5Eigen10MatrixBaseINS_7ProductINS_6MatrixIdLin1ELin1ELi0ELin1ELin1EEENS2_IdLin1ELi1ELi0ELin1ELi1EEELi0EEEEplIS3_EEKNS_13CwiseBinaryOpINS_8internal13scalar_sum_opIdNS9_6traitsIT_E6ScalarEEEKS5_KSC_EERKNS0_ISC_EE, symObjAddr: 0x328, symBinAddr: 0x100000BD8, symSize: 0x60 }
  - { offsetInCU: 0x14BA70, offset: 0x14BA70, size: 0x8, addend: 0x0, symName: __ZN5Eigen6MatrixIdLin1ELi1ELi0ELin1ELi1EEC1INS_13CwiseBinaryOpINS_8internal13scalar_sum_opIddEEKNS_7ProductINS0_IdLin1ELin1ELi0ELin1ELin1EEES1_Li0EEEKS8_EEEERKNS_9EigenBaseIT_EE, symObjAddr: 0x388, symBinAddr: 0x100000C38, symSize: 0x34 }
  - { offsetInCU: 0x14BAB2, offset: 0x14BAB2, size: 0x8, addend: 0x0, symName: _main, symObjAddr: 0x3BC, symBinAddr: 0x100000C6C, symSize: 0xCB8 }
  - { offsetInCU: 0x14BC50, offset: 0x14BC50, size: 0x8, addend: 0x0, symName: __ZN5Eigen10MatrixBaseINS_6MatrixIdLin1ELin1ELi0ELin1ELin1EEEE8IdentityEll, symObjAddr: 0x1074, symBinAddr: 0x100001924, symSize: 0x58 }
  - { offsetInCU: 0x14BC84, offset: 0x14BC84, size: 0x8, addend: 0x0, symName: __ZNK5Eigen10MatrixBaseINS_14CwiseNullaryOpINS_8internal18scalar_identity_opIdEENS_6MatrixIdLin1ELin1ELi0ELin1ELin1EEEEEEmlIdEEKNS_13CwiseBinaryOpINS2_17scalar_product_opIdNS2_18promote_scalar_argIdT_Xsr5Eigen8internal14has_ReturnTypeINS_20ScalarBinaryOpTraitsIdSD_NSB_IdSD_EEEEEE5valueEE4typeEEEKS7_KNS2_19plain_constant_typeIS7_SI_E4typeEEERKSD_, symObjAddr: 0x10CC, symBinAddr: 0x10000197C, symSize: 0xA8 }
  - { offsetInCU: 0x14BCC6, offset: 0x14BCC6, size: 0x8, addend: 0x0, symName: __ZN5Eigen6MatrixIdLin1ELin1ELi0ELin1ELin1EEC1INS_13CwiseBinaryOpINS_8internal17scalar_product_opIddEEKNS_14CwiseNullaryOpINS4_18scalar_identity_opIdEES1_EEKNS7_INS4_18scalar_constant_opIdEEKS1_EEEEEERKNS_9EigenBaseIT_EE, symObjAddr: 0x1174, symBinAddr: 0x100001A24, symSize: 0x34 }
  - { offsetInCU: 0x14BD08, offset: 0x14BD08, size: 0x8, addend: 0x0, symName: __ZN5Eigen6MatrixIdLin1ELi1ELi0ELin1ELi1EEC1IiEERKT_, symObjAddr: 0x11A8, symBinAddr: 0x100001A58, symSize: 0x34 }
  - { offsetInCU: 0x14BD4A, offset: 0x14BD4A, size: 0x8, addend: 0x0, symName: __ZN5Eigen9DenseBaseINS_6MatrixIdLin1ELi1ELi0ELin1ELi1EEEElsERKd, symObjAddr: 0x11DC, symBinAddr: 0x100001A8C, symSize: 0x40 }
  - { offsetInCU: 0x14BD81, offset: 0x14BD81, size: 0x8, addend: 0x0, symName: __ZN5Eigen16CommaInitializerINS_6MatrixIdLin1ELi1ELi0ELin1ELi1EEEEcmERKd, symObjAddr: 0x121C, symBinAddr: 0x100001ACC, symSize: 0x1B8 }
  - { offsetInCU: 0x14BDB5, offset: 0x14BDB5, size: 0x8, addend: 0x0, symName: __ZN5Eigen16CommaInitializerINS_6MatrixIdLin1ELi1ELi0ELin1ELi1EEEED1Ev, symObjAddr: 0x13D4, symBinAddr: 0x100001C84, symSize: 0x2C }
  - { offsetInCU: 0x14BDDF, offset: 0x14BDDF, size: 0x8, addend: 0x0, symName: __ZN5Eigen6MatrixIdLin1ELin1ELi0ELin1ELin1EEC1IiiEERKT_RKT0_, symObjAddr: 0x1400, symBinAddr: 0x100001CB0, symSize: 0x3C }
  - { offsetInCU: 0x14BE39, offset: 0x14BE39, size: 0x8, addend: 0x0, symName: __ZN5Eigen9DenseBaseINS_6MatrixIdLin1ELin1ELi0ELin1ELin1EEEElsERKd, symObjAddr: 0x143C, symBinAddr: 0x100001CEC, symSize: 0x40 }
  - { offsetInCU: 0x14BE70, offset: 0x14BE70, size: 0x8, addend: 0x0, symName: __ZN5Eigen16CommaInitializerINS_6MatrixIdLin1ELin1ELi0ELin1ELin1EEEEcmERKd, symObjAddr: 0x147C, symBinAddr: 0x100001D2C, symSize: 0x1B8 }
  - { offsetInCU: 0x14BEA4, offset: 0x14BEA4, size: 0x8, addend: 0x0, symName: __ZN5Eigen16CommaInitializerINS_6MatrixIdLin1ELin1ELi0ELin1ELin1EEEED1Ev, symObjAddr: 0x1634, symBinAddr: 0x100001EE4, symSize: 0x2C }
  - { offsetInCU: 0x14BED3, offset: 0x14BED3, size: 0x8, addend: 0x0, symName: __ZN5Eigen6MatrixIdLin1ELin1ELi0ELin1ELin1EEC1INS_14CwiseNullaryOpINS_8internal18scalar_identity_opIdEES1_EEEERKNS_9EigenBaseIT_EE, symObjAddr: 0x1660, symBinAddr: 0x100001F10, symSize: 0x34 }
  - { offsetInCU: 0x14BF15, offset: 0x14BF15, size: 0x8, addend: 0x0, symName: __ZN5Eigen9DenseBaseINS_6MatrixIdLin1ELi1ELi0ELin1ELi1EEEE4ZeroEl, symObjAddr: 0x1694, symBinAddr: 0x100001F44, symSize: 0x38 }
  - { offsetInCU: 0x14BF41, offset: 0x14BF41, size: 0x8, addend: 0x0, symName: __ZN5Eigen6MatrixIdLin1ELi1ELi0ELin1ELi1EEC1INS_14CwiseNullaryOpINS_8internal18scalar_constant_opIdEES1_EEEERKNS_9EigenBaseIT_EE, symObjAddr: 0x16CC, symBinAddr: 0x100001F7C, symSize: 0x34 }
  - { offsetInCU: 0x14BF83, offset: 0x14BF83, size: 0x8, addend: 0x0, symName: __ZN5Eigen15DenseCoeffsBaseINS_6MatrixIdLin1ELi1ELi0ELin1ELi1EEELi1EEclEl, symObjAddr: 0x1700, symBinAddr: 0x100001FB0, symSize: 0xA4 }
  - { offsetInCU: 0x14BFB8, offset: 0x14BFB8, size: 0x8, addend: 0x0, symName: __ZN5Eigen9DenseBaseINS_6MatrixIdLin1ELin1ELi0ELin1ELin1EEEE6RandomEll, symObjAddr: 0x1840, symBinAddr: 0x1000020F0, symSize: 0x58 }
  - { offsetInCU: 0x14BFF2, offset: 0x14BFF2, size: 0x8, addend: 0x0, symName: __ZN5Eigen6MatrixIdLin1ELi1ELi0ELin1ELi1EEC1INS_13CwiseBinaryOpINS_8internal17scalar_product_opIddEEKNS_14CwiseNullaryOpINS4_18scalar_constant_opIdEEKNS0_IdLin1ELin1ELi0ELin1ELin1EEEEEKNS7_INS4_16scalar_random_opIdEESA_EEEEEERKNS_9EigenBaseIT_EE, symObjAddr: 0x1898, symBinAddr: 0x100002148, symSize: 0x34 }
  - { offsetInCU: 0x14C034, offset: 0x14C034, size: 0x8, addend: 0x0, symName: __ZN5Eigen9DenseBaseINS_6MatrixIdLin1ELi1ELi0ELin1ELi1EEEE8ConstantElRKd, symObjAddr: 0x18CC, symBinAddr: 0x10000217C, symSize: 0x50 }
  - { offsetInCU: 0x14C06E, offset: 0x14C06E, size: 0x8, addend: 0x0, symName: __ZN5Eigen6MatrixIdLin1ELin1ELi0ELin1ELin1EEC1INS0_IdLin1ELi1ELi0ELin1ELi1EEEEERKNS_9EigenBaseIT_EE, symObjAddr: 0x191C, symBinAddr: 0x1000021CC, symSize: 0x34 }
  - { offsetInCU: 0x14C0B5, offset: 0x14C0B5, size: 0x8, addend: 0x0, symName: __ZN5Eigen6MatrixIdLin1ELi1ELi0ELin1ELi1EEC1INS0_IdLin1ELin1ELi0ELin1ELin1EEEEERKNS_9EigenBaseIT_EE, symObjAddr: 0x1950, symBinAddr: 0x100002200, symSize: 0x34 }
  - { offsetInCU: 0x14C0F7, offset: 0x14C0F7, size: 0x8, addend: 0x0, symName: __ZN5Eigen6MatrixIdLin1ELin1ELi0ELin1ELin1EED1Ev, symObjAddr: 0x1984, symBinAddr: 0x100002234, symSize: 0x2C }
  - { offsetInCU: 0x14C123, offset: 0x14C123, size: 0x8, addend: 0x0, symName: __ZN5Eigen6MatrixIdLin1ELi1ELi0ELin1ELi1EED1Ev, symObjAddr: 0x19B0, symBinAddr: 0x100002260, symSize: 0x2C }
  - { offsetInCU: 0x14C14F, offset: 0x14C14F, size: 0x8, addend: 0x0, symName: __ZN5Eigen9DenseBaseINS_6MatrixIdLin1ELin1ELi0ELin1ELin1EEEE4ZeroEll, symObjAddr: 0x19DC, symBinAddr: 0x10000228C, symSize: 0x40 }
  - { offsetInCU: 0x14C18A, offset: 0x14C18A, size: 0x8, addend: 0x0, symName: __ZN5Eigen6MatrixIdLin1ELin1ELi0ELin1ELin1EEC1INS_14CwiseNullaryOpINS_8internal18scalar_constant_opIdEES1_EEEERKNS_9EigenBaseIT_EE, symObjAddr: 0x1A1C, symBinAddr: 0x1000022CC, symSize: 0x34 }
  - { offsetInCU: 0x14C1CC, offset: 0x14C1CC, size: 0x8, addend: 0x0, symName: __ZNK5Eigen10MatrixBaseINS_14CwiseNullaryOpINS_8internal18scalar_identity_opIdEENS_6MatrixIdLin1ELin1ELi0ELin1ELin1EEEEEEplINS_13CwiseBinaryOpINS2_17scalar_product_opIddEEKNS1_INS2_18scalar_constant_opIdEEKS6_EESF_EEEEKNSA_INS2_13scalar_sum_opIdNS2_6traitsIT_E6ScalarEEEKS7_KSL_EERKNS0_ISL_EE, symObjAddr: 0x1A50, symBinAddr: 0x100002300, symSize: 0x60 }
  - { offsetInCU: 0x14C20E, offset: 0x14C20E, size: 0x8, addend: 0x0, symName: __ZN5Eigen6MatrixIdLin1ELin1ELi0ELin1ELin1EEC1INS_13CwiseBinaryOpINS_8internal13scalar_sum_opIddEEKNS_14CwiseNullaryOpINS4_18scalar_identity_opIdEES1_EEKNS3_INS4_17scalar_product_opIddEEKNS7_INS4_18scalar_constant_opIdEEKS1_EESG_EEEEEERKNS_9EigenBaseIT_EE, symObjAddr: 0x1B4C, symBinAddr: 0x1000023FC, symSize: 0x34 }
  - { offsetInCU: 0x14C250, offset: 0x14C250, size: 0x8, addend: 0x0, symName: __ZNK5Eigen10MatrixBaseINS_6MatrixIdLin1ELin1ELi0ELin1ELin1EEEEmlIS2_EEKNS_7ProductIS2_T_Li0EEERKNS0_IS6_EE, symObjAddr: 0x1B80, symBinAddr: 0x100002430, symSize: 0x4C }
  - { offsetInCU: 0x14C290, offset: 0x14C290, size: 0x8, addend: 0x0, symName: __ZNK5Eigen10MatrixBaseINS_7ProductINS_6MatrixIdLin1ELin1ELi0ELin1ELin1EEES3_Li0EEEEmlINS_9TransposeIS3_EEEEKNS1_IS4_T_Li0EEERKNS0_IS9_EE, symObjAddr: 0x1BCC, symBinAddr: 0x10000247C, symSize: 0x48 }
  - { offsetInCU: 0x14C2D0, offset: 0x14C2D0, size: 0x8, addend: 0x0, symName: __ZN5Eigen9DenseBaseINS_6MatrixIdLin1ELin1ELi0ELin1ELin1EEEE9transposeEv, symObjAddr: 0x1C14, symBinAddr: 0x1000024C4, symSize: 0x34 }
  - { offsetInCU: 0x14C2F8, offset: 0x14C2F8, size: 0x8, addend: 0x0, symName: __ZNK5Eigen10MatrixBaseINS_7ProductINS1_INS_6MatrixIdLin1ELin1ELi0ELin1ELin1EEES3_Li0EEENS_9TransposeIS3_EELi0EEEEplIS3_EEKNS_13CwiseBinaryOpINS_8internal13scalar_sum_opIdNSB_6traitsIT_E6ScalarEEEKS7_KSE_EERKNS0_ISE_EE, symObjAddr: 0x1C48, symBinAddr: 0x1000024F8, symSize: 0x60 }
  - { offsetInCU: 0x14C335, offset: 0x14C335, size: 0x8, addend: 0x0, symName: __ZN5Eigen6MatrixIdLin1ELin1ELi0ELin1ELin1EEaSINS_13CwiseBinaryOpINS_8internal13scalar_sum_opIddEEKNS_7ProductINS7_IS1_S1_Li0EEENS_9TransposeIS1_EELi0EEEKS1_EEEERS1_RKNS_9DenseBaseIT_EE, symObjAddr: 0x1CA8, symBinAddr: 0x100002558, symSize: 0x2C }
  - { offsetInCU: 0x14C372, offset: 0x14C372, size: 0x8, addend: 0x0, symName: __ZNK5Eigen10MatrixBaseINS_6MatrixIdLin1ELi1ELi0ELin1ELi1EEEEmiIS2_EEKNS_13CwiseBinaryOpINS_8internal20scalar_difference_opIdNS6_6traitsIT_E6ScalarEEEKS2_KS9_EERKNS0_IS9_EE, symObjAddr: 0x1CD4, symBinAddr: 0x100002584, symSize: 0x60 }
  - { offsetInCU: 0x14C3B4, offset: 0x14C3B4, size: 0x8, addend: 0x0, symName: __ZN5Eigen6MatrixIdLin1ELi1ELi0ELin1ELi1EEC1INS_13CwiseBinaryOpINS_8internal20scalar_difference_opIddEEKS1_S7_EEEERKNS_9EigenBaseIT_EE, symObjAddr: 0x1D34, symBinAddr: 0x1000025E4, symSize: 0x34 }
  - { offsetInCU: 0x14C3F6, offset: 0x14C3F6, size: 0x8, addend: 0x0, symName: __ZN5Eigen6MatrixIdLin1ELin1ELi0ELin1ELin1EEC1ERKS1_, symObjAddr: 0x1D68, symBinAddr: 0x100002618, symSize: 0x34 }
  - { offsetInCU: 0x14C434, offset: 0x14C434, size: 0x8, addend: 0x0, symName: __ZN5Eigen6MatrixIdLin1ELin1ELi0ELin1ELin1EEC1INS_13CwiseBinaryOpINS_8internal13scalar_sum_opIddEEKNS_7ProductINS7_IS1_S1_Li0EEENS_9TransposeIS1_EELi0EEEKS1_EEEERKNS_9EigenBaseIT_EE, symObjAddr: 0x1D9C, symBinAddr: 0x10000264C, symSize: 0x34 }
  - { offsetInCU: 0x14C476, offset: 0x14C476, size: 0x8, addend: 0x0, symName: __ZNK5Eigen10MatrixBaseINS_6MatrixIdLin1ELin1ELi0ELin1ELin1EEEEmlINS_9TransposeIS2_EEEEKNS_7ProductIS2_T_Li0EEERKNS0_IS8_EE, symObjAddr: 0x1DD0, symBinAddr: 0x100002680, symSize: 0x4C }
  - { offsetInCU: 0x14C4B6, offset: 0x14C4B6, size: 0x8, addend: 0x0, symName: __ZNK5Eigen10MatrixBaseINS_7ProductINS_6MatrixIdLin1ELin1ELi0ELin1ELin1EEENS_9TransposeIS3_EELi0EEEEmlINS_7InverseIS3_EEEEKNS1_IS6_T_Li0EEERKNS0_ISB_EE, symObjAddr: 0x1E1C, symBinAddr: 0x1000026CC, symSize: 0x48 }
  - { offsetInCU: 0x14C4F6, offset: 0x14C4F6, size: 0x8, addend: 0x0, symName: __ZNK5Eigen10MatrixBaseINS_6MatrixIdLin1ELin1ELi0ELin1ELin1EEEE7inverseEv, symObjAddr: 0x1E64, symBinAddr: 0x100002714, symSize: 0x8C }
  - { offsetInCU: 0x14C524, offset: 0x14C524, size: 0x8, addend: 0x0, symName: __ZN5Eigen6MatrixIdLin1ELin1ELi0ELin1ELin1EEC1INS_7ProductINS3_IS1_NS_9TransposeIS1_EELi0EEENS_7InverseIS1_EELi0EEEEERKNS_9EigenBaseIT_EE, symObjAddr: 0x1EF0, symBinAddr: 0x1000027A0, symSize: 0x34 }
  - { offsetInCU: 0x14C566, offset: 0x14C566, size: 0x8, addend: 0x0, symName: __ZNK5Eigen10MatrixBaseINS_6MatrixIdLin1ELi1ELi0ELin1ELi1EEEEplINS_7ProductINS1_IdLin1ELin1ELi0ELin1ELin1EEES2_Li0EEEEEKNS_13CwiseBinaryOpINS_8internal13scalar_sum_opIdNS9_6traitsIT_E6ScalarEEEKS2_KSC_EERKNS0_ISC_EE, symObjAddr: 0x1F24, symBinAddr: 0x1000027D4, symSize: 0x60 }
  - { offsetInCU: 0x14C5A3, offset: 0x14C5A3, size: 0x8, addend: 0x0, symName: __ZN5Eigen6MatrixIdLin1ELi1ELi0ELin1ELi1EEaSINS_13CwiseBinaryOpINS_8internal13scalar_sum_opIddEEKS1_KNS_7ProductINS0_IdLin1ELin1ELi0ELin1ELin1EEES1_Li0EEEEEEERS1_RKNS_9DenseBaseIT_EE, symObjAddr: 0x1F84, symBinAddr: 0x100002834, symSize: 0x2C }
  - { offsetInCU: 0x14C5E0, offset: 0x14C5E0, size: 0x8, addend: 0x0, symName: __ZNK5Eigen10MatrixBaseINS_14CwiseNullaryOpINS_8internal18scalar_identity_opIdEENS_6MatrixIdLin1ELin1ELi0ELin1ELin1EEEEEEmiINS_7ProductIS6_S6_Li0EEEEEKNS_13CwiseBinaryOpINS2_20scalar_difference_opIdNS2_6traitsIT_E6ScalarEEEKS7_KSF_EERKNS0_ISF_EE, symObjAddr: 0x1FB0, symBinAddr: 0x100002860, symSize: 0x60 }
  - { offsetInCU: 0x14C61D, offset: 0x14C61D, size: 0x8, addend: 0x0, symName: __ZNK5Eigen10MatrixBaseINS_13CwiseBinaryOpINS_8internal20scalar_difference_opIddEEKNS_14CwiseNullaryOpINS2_18scalar_identity_opIdEENS_6MatrixIdLin1ELin1ELi0ELin1ELin1EEEEEKNS_7ProductIS9_S9_Li0EEEEEEmlIS9_EEKNSC_ISF_T_Li0EEERKNS0_ISI_EE, symObjAddr: 0x2010, symBinAddr: 0x1000028C0, symSize: 0x4C }
  - { offsetInCU: 0x14C65D, offset: 0x14C65D, size: 0x8, addend: 0x0, symName: __ZN5Eigen6MatrixIdLin1ELin1ELi0ELin1ELin1EEaSINS_7ProductINS_13CwiseBinaryOpINS_8internal20scalar_difference_opIddEEKNS_14CwiseNullaryOpINS5_18scalar_identity_opIdEES1_EEKNS3_IS1_S1_Li0EEEEES1_Li0EEEEERS1_RKNS_9DenseBaseIT_EE, symObjAddr: 0x205C, symBinAddr: 0x10000290C, symSize: 0x2C }
  - { offsetInCU: 0x14C69A, offset: 0x14C69A, size: 0x8, addend: 0x0, symName: __ZN5Eigen9DenseBaseINS_6MatrixIdLin1ELi1ELi0ELin1ELi1EEEE9transposeEv, symObjAddr: 0x2300, symBinAddr: 0x100002BB0, symSize: 0x34 }
  - { offsetInCU: 0x14C6C2, offset: 0x14C6C2, size: 0x8, addend: 0x0, symName: __ZNSt3__113basic_ostreamIcNS_11char_traitsIcEEElsB7v160006EPFRS3_S4_E, symObjAddr: 0x2334, symBinAddr: 0x100002BE4, symSize: 0x2C }
  - { offsetInCU: 0x14C6F6, offset: 0x14C6F6, size: 0x8, addend: 0x0, symName: __ZN5Eigen8internal8FixedIntILi1EEC1Ev, symObjAddr: 0x23B8, symBinAddr: 0x100002C68, symSize: 0x2C }
  - { offsetInCU: 0x14C720, offset: 0x14C720, size: 0x8, addend: 0x0, symName: __ZN5Eigen8internal8FixedIntILi0EEC1Ev, symObjAddr: 0x23E4, symBinAddr: 0x100002C94, symSize: 0x2C }
  - { offsetInCU: 0x14C74A, offset: 0x14C74A, size: 0x8, addend: 0x0, symName: __ZN5Eigen8internal8FixedIntILi2EEC1Ev, symObjAddr: 0x2410, symBinAddr: 0x100002CC0, symSize: 0x2C }
  - { offsetInCU: 0x14C774, offset: 0x14C774, size: 0x8, addend: 0x0, symName: __ZN5Eigen8internal8FixedIntILi3EEC1Ev, symObjAddr: 0x243C, symBinAddr: 0x100002CEC, symSize: 0x2C }
  - { offsetInCU: 0x14C79E, offset: 0x14C79E, size: 0x8, addend: 0x0, symName: __ZN5Eigen8internal8FixedIntILin1EEC1Ev, symObjAddr: 0x2468, symBinAddr: 0x100002D18, symSize: 0x2C }
  - { offsetInCU: 0x14C7C8, offset: 0x14C7C8, size: 0x8, addend: 0x0, symName: __ZN5Eigen8internal5all_tC2Ev, symObjAddr: 0x2494, symBinAddr: 0x100002D44, symSize: 0x14 }
  - { offsetInCU: 0x14C7F2, offset: 0x14C7F2, size: 0x8, addend: 0x0, symName: __ZN5Eigen6MatrixIdLin1ELin1ELi0ELin1ELin1EED2Ev, symObjAddr: 0x24A8, symBinAddr: 0x100002D58, symSize: 0x2C }
  - { offsetInCU: 0x14C81E, offset: 0x14C81E, size: 0x8, addend: 0x0, symName: __ZN5Eigen15PlainObjectBaseINS_6MatrixIdLin1ELin1ELi0ELin1ELin1EEEED2Ev, symObjAddr: 0x24D4, symBinAddr: 0x100002D84, symSize: 0x2C }
  - { offsetInCU: 0x14C84A, offset: 0x14C84A, size: 0x8, addend: 0x0, symName: __ZN5Eigen12DenseStorageIdLin1ELin1ELin1ELi0EED1Ev, symObjAddr: 0x2500, symBinAddr: 0x100002DB0, symSize: 0x2C }
  - { offsetInCU: 0x14C874, offset: 0x14C874, size: 0x8, addend: 0x0, symName: __ZN5Eigen12DenseStorageIdLin1ELin1ELin1ELi0EED2Ev, symObjAddr: 0x252C, symBinAddr: 0x100002DDC, symSize: 0x44 }
  - { offsetInCU: 0x14C89E, offset: 0x14C89E, size: 0x8, addend: 0x0, symName: __ZN5Eigen6MatrixIdLin1ELi1ELi0ELin1ELi1EED2Ev, symObjAddr: 0x25EC, symBinAddr: 0x100002E9C, symSize: 0x2C }
  - { offsetInCU: 0x14C8CA, offset: 0x14C8CA, size: 0x8, addend: 0x0, symName: __ZN5Eigen15PlainObjectBaseINS_6MatrixIdLin1ELi1ELi0ELin1ELi1EEEED2Ev, symObjAddr: 0x2618, symBinAddr: 0x100002EC8, symSize: 0x2C }
  - { offsetInCU: 0x14C8F6, offset: 0x14C8F6, size: 0x8, addend: 0x0, symName: __ZN5Eigen12DenseStorageIdLin1ELin1ELi1ELi0EED1Ev, symObjAddr: 0x2644, symBinAddr: 0x100002EF4, symSize: 0x2C }
  - { offsetInCU: 0x14C920, offset: 0x14C920, size: 0x8, addend: 0x0, symName: __ZN5Eigen12DenseStorageIdLin1ELin1ELi1ELi0EED2Ev, symObjAddr: 0x2670, symBinAddr: 0x100002F20, symSize: 0x44 }
  - { offsetInCU: 0x14C94A, offset: 0x14C94A, size: 0x8, addend: 0x0, symName: __ZN5Eigen8symbolic10SymbolExprINS_8internal17symbolic_last_tagEEC2Ev, symObjAddr: 0x26B4, symBinAddr: 0x100002F64, symSize: 0x14 }
  - { offsetInCU: 0x14C974, offset: 0x14C974, size: 0x8, addend: 0x0, symName: __ZN5Eigen8internal8FixedIntILi1EEC2Ev, symObjAddr: 0x26C8, symBinAddr: 0x100002F78, symSize: 0x14 }
  - { offsetInCU: 0x14C99E, offset: 0x14C99E, size: 0x8, addend: 0x0, symName: __ZNK5Eigen8symbolic8BaseExprINS0_10SymbolExprINS_8internal17symbolic_last_tagEEEE7derivedEv, symObjAddr: 0x26DC, symBinAddr: 0x100002F8C, symSize: 0x14 }
  - { offsetInCU: 0x14C9C4, offset: 0x14C9C4, size: 0x8, addend: 0x0, symName: __ZN5Eigen8symbolic9ValueExprINS_8internal8FixedIntILi1EEEEC1Ev, symObjAddr: 0x26F0, symBinAddr: 0x100002FA0, symSize: 0x2C }
  - { offsetInCU: 0x14C9EE, offset: 0x14C9EE, size: 0x8, addend: 0x0, symName: __ZN5Eigen8symbolic7AddExprINS0_10SymbolExprINS_8internal17symbolic_last_tagEEENS0_9ValueExprINS3_8FixedIntILi1EEEEEEC1ERKS5_RKS9_, symObjAddr: 0x271C, symBinAddr: 0x100002FCC, symSize: 0x3C }
  - { offsetInCU: 0x14CA34, offset: 0x14CA34, size: 0x8, addend: 0x0, symName: __ZN5Eigen8symbolic9ValueExprINS_8internal8FixedIntILi1EEEEC2Ev, symObjAddr: 0x2758, symBinAddr: 0x100003008, symSize: 0x14 }
  - { offsetInCU: 0x14CA5E, offset: 0x14CA5E, size: 0x8, addend: 0x0, symName: __ZN5Eigen8symbolic7AddExprINS0_10SymbolExprINS_8internal17symbolic_last_tagEEENS0_9ValueExprINS3_8FixedIntILi1EEEEEEC2ERKS5_RKS9_, symObjAddr: 0x276C, symBinAddr: 0x10000301C, symSize: 0x1C }
  - { offsetInCU: 0x14CAA4, offset: 0x14CAA4, size: 0x8, addend: 0x0, symName: __ZNK5Eigen9EigenBaseINS_6MatrixIdLin1ELin1ELi0ELin1ELin1EEEE7derivedEv, symObjAddr: 0x2788, symBinAddr: 0x100003038, symSize: 0x14 }
  - { offsetInCU: 0x14CACA, offset: 0x14CACA, size: 0x8, addend: 0x0, symName: __ZNK5Eigen9EigenBaseINS_6MatrixIdLin1ELi1ELi0ELin1ELi1EEEE7derivedEv, symObjAddr: 0x279C, symBinAddr: 0x10000304C, symSize: 0x14 }
  - { offsetInCU: 0x14CAF0, offset: 0x14CAF0, size: 0x8, addend: 0x0, symName: __ZN5Eigen7ProductINS_6MatrixIdLin1ELin1ELi0ELin1ELin1EEENS1_IdLin1ELi1ELi0ELin1ELi1EEELi0EEC1ERKS2_RKS3_, symObjAddr: 0x27B0, symBinAddr: 0x100003060, symSize: 0x3C }
  - { offsetInCU: 0x14CB36, offset: 0x14CB36, size: 0x8, addend: 0x0, symName: __ZN5Eigen7ProductINS_6MatrixIdLin1ELin1ELi0ELin1ELin1EEENS1_IdLin1ELi1ELi0ELin1ELi1EEELi0EEC2ERKS2_RKS3_, symObjAddr: 0x27EC, symBinAddr: 0x10000309C, symSize: 0xC0 }
  - { offsetInCU: 0x14CB81, offset: 0x14CB81, size: 0x8, addend: 0x0, symName: __ZN5Eigen11ProductImplINS_6MatrixIdLin1ELin1ELi0ELin1ELin1EEENS1_IdLin1ELi1ELi0ELin1ELi1EEELi0ENS_5DenseEEC2Ev, symObjAddr: 0x28AC, symBinAddr: 0x10000315C, symSize: 0x2C }
  - { offsetInCU: 0x14CBAD, offset: 0x14CBAD, size: 0x8, addend: 0x0, symName: __ZNK5Eigen15PlainObjectBaseINS_6MatrixIdLin1ELin1ELi0ELin1ELin1EEEE4colsEv, symObjAddr: 0x28D8, symBinAddr: 0x100003188, symSize: 0x24 }
  - { offsetInCU: 0x14CBD3, offset: 0x14CBD3, size: 0x8, addend: 0x0, symName: __ZNK5Eigen15PlainObjectBaseINS_6MatrixIdLin1ELi1ELi0ELin1ELi1EEEE4rowsEv, symObjAddr: 0x28FC, symBinAddr: 0x1000031AC, symSize: 0x24 }
  - { offsetInCU: 0x14CBFE, offset: 0x14CBFE, size: 0x8, addend: 0x0, symName: __ZN5Eigen8internal18dense_product_baseINS_6MatrixIdLin1ELin1ELi0ELin1ELin1EEENS2_IdLin1ELi1ELi0ELin1ELi1EEELi0ELi7EEC2Ev, symObjAddr: 0x2920, symBinAddr: 0x1000031D0, symSize: 0x2C }
  - { offsetInCU: 0x14CC2A, offset: 0x14CC2A, size: 0x8, addend: 0x0, symName: __ZN5Eigen10MatrixBaseINS_7ProductINS_6MatrixIdLin1ELin1ELi0ELin1ELin1EEENS2_IdLin1ELi1ELi0ELin1ELi1EEELi0EEEEC2Ev, symObjAddr: 0x294C, symBinAddr: 0x1000031FC, symSize: 0x2C }
  - { offsetInCU: 0x14CC54, offset: 0x14CC54, size: 0x8, addend: 0x0, symName: __ZN5Eigen9DenseBaseINS_7ProductINS_6MatrixIdLin1ELin1ELi0ELin1ELin1EEENS2_IdLin1ELi1ELi0ELin1ELi1EEELi0EEEEC2Ev, symObjAddr: 0x2978, symBinAddr: 0x100003228, symSize: 0x14 }
  - { offsetInCU: 0x14CC7E, offset: 0x14CC7E, size: 0x8, addend: 0x0, symName: __ZNK5Eigen12DenseStorageIdLin1ELin1ELin1ELi0EE4colsEv, symObjAddr: 0x298C, symBinAddr: 0x10000323C, symSize: 0x18 }
  - { offsetInCU: 0x14CCA4, offset: 0x14CCA4, size: 0x8, addend: 0x0, symName: __ZNK5Eigen12DenseStorageIdLin1ELin1ELi1ELi0EE4rowsEv, symObjAddr: 0x29A4, symBinAddr: 0x100003254, symSize: 0x18 }
  - { offsetInCU: 0x14CCCA, offset: 0x14CCCA, size: 0x8, addend: 0x0, symName: __ZNK5Eigen9EigenBaseINS_7ProductINS_6MatrixIdLin1ELin1ELi0ELin1ELin1EEENS2_IdLin1ELi1ELi0ELin1ELi1EEELi0EEEE7derivedEv, symObjAddr: 0x29BC, symBinAddr: 0x10000326C, symSize: 0x14 }
  - { offsetInCU: 0x14CCF0, offset: 0x14CCF0, size: 0x8, addend: 0x0, symName: __ZN5Eigen8internal13scalar_sum_opIddEC1Ev, symObjAddr: 0x29D0, symBinAddr: 0x100003280, symSize: 0x2C }
  - { offsetInCU: 0x14CD1A, offset: 0x14CD1A, size: 0x8, addend: 0x0, symName: __ZN5Eigen13CwiseBinaryOpINS_8internal13scalar_sum_opIddEEKNS_7ProductINS_6MatrixIdLin1ELin1ELi0ELin1ELin1EEENS5_IdLin1ELi1ELi0ELin1ELi1EEELi0EEES9_EC1ERS9_SB_RKS3_, symObjAddr: 0x29FC, symBinAddr: 0x1000032AC, symSize: 0x44 }
  - { offsetInCU: 0x14CD6E, offset: 0x14CD6E, size: 0x8, addend: 0x0, symName: __ZN5Eigen8internal13scalar_sum_opIddEC2Ev, symObjAddr: 0x2A40, symBinAddr: 0x1000032F0, symSize: 0x14 }
  - { offsetInCU: 0x14CD98, offset: 0x14CD98, size: 0x8, addend: 0x0, symName: __ZN5Eigen13CwiseBinaryOpINS_8internal13scalar_sum_opIddEEKNS_7ProductINS_6MatrixIdLin1ELin1ELi0ELin1ELin1EEENS5_IdLin1ELi1ELi0ELin1ELi1EEELi0EEES9_EC2ERS9_SB_RKS3_, symObjAddr: 0x2A54, symBinAddr: 0x100003304, symSize: 0xF8 }
  - { offsetInCU: 0x14CDF1, offset: 0x14CDF1, size: 0x8, addend: 0x0, symName: __ZN5Eigen17CwiseBinaryOpImplINS_8internal13scalar_sum_opIddEEKNS_7ProductINS_6MatrixIdLin1ELin1ELi0ELin1ELin1EEENS5_IdLin1ELi1ELi0ELin1ELi1EEELi0EEES9_NS_5DenseEEC2Ev, symObjAddr: 0x2B4C, symBinAddr: 0x1000033FC, symSize: 0x2C }
  - { offsetInCU: 0x14CE1D, offset: 0x14CE1D, size: 0x8, addend: 0x0, symName: __ZN5Eigen8internal13scalar_sum_opIddEC1ERKS2_, symObjAddr: 0x2B78, symBinAddr: 0x100003428, symSize: 0x34 }
  - { offsetInCU: 0x14CE52, offset: 0x14CE52, size: 0x8, addend: 0x0, symName: __ZNK5Eigen7ProductINS_6MatrixIdLin1ELin1ELi0ELin1ELin1EEENS1_IdLin1ELi1ELi0ELin1ELi1EEELi0EE4rowsEv, symObjAddr: 0x2BAC, symBinAddr: 0x10000345C, symSize: 0x28 }
  - { offsetInCU: 0x14CE78, offset: 0x14CE78, size: 0x8, addend: 0x0, symName: __ZNK5Eigen7ProductINS_6MatrixIdLin1ELin1ELi0ELin1ELin1EEENS1_IdLin1ELi1ELi0ELin1ELi1EEELi0EE4colsEv, symObjAddr: 0x2BD4, symBinAddr: 0x100003484, symSize: 0x28 }
  - { offsetInCU: 0x14CE9E, offset: 0x14CE9E, size: 0x8, addend: 0x0, symName: __ZN5Eigen10MatrixBaseINS_13CwiseBinaryOpINS_8internal13scalar_sum_opIddEEKNS_7ProductINS_6MatrixIdLin1ELin1ELi0ELin1ELin1EEENS6_IdLin1ELi1ELi0ELin1ELi1EEELi0EEESA_EEEC2Ev, symObjAddr: 0x2BFC, symBinAddr: 0x1000034AC, symSize: 0x2C }
  - { offsetInCU: 0x14CEC8, offset: 0x14CEC8, size: 0x8, addend: 0x0, symName: __ZN5Eigen9DenseBaseINS_13CwiseBinaryOpINS_8internal13scalar_sum_opIddEEKNS_7ProductINS_6MatrixIdLin1ELin1ELi0ELin1ELin1EEENS6_IdLin1ELi1ELi0ELin1ELi1EEELi0EEESA_EEEC2Ev, symObjAddr: 0x2C28, symBinAddr: 0x1000034D8, symSize: 0x14 }
  - { offsetInCU: 0x14CEF2, offset: 0x14CEF2, size: 0x8, addend: 0x0, symName: __ZN5Eigen8internal13scalar_sum_opIddEC2ERKS2_, symObjAddr: 0x2C3C, symBinAddr: 0x1000034EC, symSize: 0x18 }
  - { offsetInCU: 0x14CF27, offset: 0x14CF27, size: 0x8, addend: 0x0, symName: __ZNK5Eigen15PlainObjectBaseINS_6MatrixIdLin1ELin1ELi0ELin1ELin1EEEE4rowsEv, symObjAddr: 0x2C54, symBinAddr: 0x100003504, symSize: 0x24 }
  - { offsetInCU: 0x14CF4D, offset: 0x14CF4D, size: 0x8, addend: 0x0, symName: __ZNK5Eigen12DenseStorageIdLin1ELin1ELin1ELi0EE4rowsEv, symObjAddr: 0x2C78, symBinAddr: 0x100003528, symSize: 0x18 }
  - { offsetInCU: 0x14CF73, offset: 0x14CF73, size: 0x8, addend: 0x0, symName: __ZNK5Eigen15PlainObjectBaseINS_6MatrixIdLin1ELi1ELi0ELin1ELi1EEEE4colsEv, symObjAddr: 0x2C90, symBinAddr: 0x100003540, symSize: 0x30 }
  - { offsetInCU: 0x14CF99, offset: 0x14CF99, size: 0x8, addend: 0x0, symName: __ZN5Eigen12DenseStorageIdLin1ELin1ELi1ELi0EE4colsEv, symObjAddr: 0x2CC0, symBinAddr: 0x100003570, symSize: 0x8 }
  - { offsetInCU: 0x14CFAD, offset: 0x14CFAD, size: 0x8, addend: 0x0, symName: __ZNK5Eigen9EigenBaseINS_13CwiseBinaryOpINS_8internal13scalar_sum_opIddEEKNS_7ProductINS_6MatrixIdLin1ELin1ELi0ELin1ELin1EEENS6_IdLin1ELi1ELi0ELin1ELi1EEELi0EEESA_EEE7derivedEv, symObjAddr: 0x2CC8, symBinAddr: 0x100003578, symSize: 0x14 }
  - { offsetInCU: 0x14CFD3, offset: 0x14CFD3, size: 0x8, addend: 0x0, symName: __ZN5Eigen13CwiseBinaryOpINS_8internal13scalar_sum_opIddEEKNS0_IS3_KNS_7ProductINS_6MatrixIdLin1ELin1ELi0ELin1ELin1EEENS5_IdLin1ELi1ELi0ELin1ELi1EEELi0EEES9_EEKS6_EC1ERSB_RSC_RKS3_, symObjAddr: 0x2CDC, symBinAddr: 0x10000358C, symSize: 0x44 }
  - { offsetInCU: 0x14D027, offset: 0x14D027, size: 0x8, addend: 0x0, symName: __ZN5Eigen13CwiseBinaryOpINS_8internal13scalar_sum_opIddEEKNS0_IS3_KNS_7ProductINS_6MatrixIdLin1ELin1ELi0ELin1ELin1EEENS5_IdLin1ELi1ELi0ELin1ELi1EEELi0EEES9_EEKS6_EC2ERSB_RSC_RKS3_, symObjAddr: 0x2D20, symBinAddr: 0x1000035D0, symSize: 0xF8 }
  - { offsetInCU: 0x14D080, offset: 0x14D080, size: 0x8, addend: 0x0, symName: __ZN5Eigen17CwiseBinaryOpImplINS_8internal13scalar_sum_opIddEEKNS_13CwiseBinaryOpIS3_KNS_7ProductINS_6MatrixIdLin1ELin1ELi0ELin1ELin1EEENS6_IdLin1ELi1ELi0ELin1ELi1EEELi0EEESA_EEKS7_NS_5DenseEEC2Ev, symObjAddr: 0x2E18, symBinAddr: 0x1000036C8, symSize: 0x2C }
  - { offsetInCU: 0x14D0AC, offset: 0x14D0AC, size: 0x8, addend: 0x0, symName: __ZN5Eigen13CwiseBinaryOpINS_8internal13scalar_sum_opIddEEKNS_7ProductINS_6MatrixIdLin1ELin1ELi0ELin1ELin1EEENS5_IdLin1ELi1ELi0ELin1ELi1EEELi0EEES9_EC1ERKSA_, symObjAddr: 0x2E44, symBinAddr: 0x1000036F4, symSize: 0x34 }
  - { offsetInCU: 0x14D0E1, offset: 0x14D0E1, size: 0x8, addend: 0x0, symName: __ZNK5Eigen13CwiseBinaryOpINS_8internal13scalar_sum_opIddEEKNS_7ProductINS_6MatrixIdLin1ELin1ELi0ELin1ELin1EEENS5_IdLin1ELi1ELi0ELin1ELi1EEELi0EEES9_E4rowsEv, symObjAddr: 0x2E78, symBinAddr: 0x100003728, symSize: 0x28 }
  - { offsetInCU: 0x14D107, offset: 0x14D107, size: 0x8, addend: 0x0, symName: __ZNK5Eigen13CwiseBinaryOpINS_8internal13scalar_sum_opIddEEKNS_7ProductINS_6MatrixIdLin1ELin1ELi0ELin1ELin1EEENS5_IdLin1ELi1ELi0ELin1ELi1EEELi0EEES9_E4colsEv, symObjAddr: 0x2EA0, symBinAddr: 0x100003750, symSize: 0x24 }
  - { offsetInCU: 0x14D12D, offset: 0x14D12D, size: 0x8, addend: 0x0, symName: __ZN5Eigen10MatrixBaseINS_13CwiseBinaryOpINS_8internal13scalar_sum_opIddEEKNS1_IS4_KNS_7ProductINS_6MatrixIdLin1ELin1ELi0ELin1ELin1EEENS6_IdLin1ELi1ELi0ELin1ELi1EEELi0EEESA_EEKS7_EEEC2Ev, symObjAddr: 0x2EC4, symBinAddr: 0x100003774, symSize: 0x2C }
  - { offsetInCU: 0x14D157, offset: 0x14D157, size: 0x8, addend: 0x0, symName: __ZN5Eigen9DenseBaseINS_13CwiseBinaryOpINS_8internal13scalar_sum_opIddEEKNS1_IS4_KNS_7ProductINS_6MatrixIdLin1ELin1ELi0ELin1ELin1EEENS6_IdLin1ELi1ELi0ELin1ELi1EEELi0EEESA_EEKS7_EEEC2Ev, symObjAddr: 0x2EF0, symBinAddr: 0x1000037A0, symSize: 0x14 }
  - { offsetInCU: 0x14D181, offset: 0x14D181, size: 0x8, addend: 0x0, symName: __ZN5Eigen13CwiseBinaryOpINS_8internal13scalar_sum_opIddEEKNS_7ProductINS_6MatrixIdLin1ELin1ELi0ELin1ELin1EEENS5_IdLin1ELi1ELi0ELin1ELi1EEELi0EEES9_EC2ERKSA_, symObjAddr: 0x2F04, symBinAddr: 0x1000037B4, symSize: 0x50 }
  - { offsetInCU: 0x14D1B6, offset: 0x14D1B6, size: 0x8, addend: 0x0, symName: __ZN5Eigen6MatrixIdLin1ELin1ELi0ELin1ELin1EEC2INS_13CwiseBinaryOpINS_8internal13scalar_sum_opIddEEKNS3_IS6_KNS_7ProductIS1_NS0_IdLin1ELi1ELi0ELin1ELi1EEELi0EEESA_EEKS1_EEEERKNS_9EigenBaseIT_EE, symObjAddr: 0x2F54, symBinAddr: 0x100003804, symSize: 0x40 }
  - { offsetInCU: 0x14D1F8, offset: 0x14D1F8, size: 0x8, addend: 0x0, symName: __ZNK5Eigen9EigenBaseINS_13CwiseBinaryOpINS_8internal13scalar_sum_opIddEEKNS1_IS4_KNS_7ProductINS_6MatrixIdLin1ELin1ELi0ELin1ELin1EEENS6_IdLin1ELi1ELi0ELin1ELi1EEELi0EEESA_EEKS7_EEE7derivedEv, symObjAddr: 0x2F94, symBinAddr: 0x100003844, symSize: 0x14 }
  - { offsetInCU: 0x14D21E, offset: 0x14D21E, size: 0x8, addend: 0x0, symName: __ZN5Eigen15PlainObjectBaseINS_6MatrixIdLin1ELin1ELi0ELin1ELin1EEEEC2INS_13CwiseBinaryOpINS_8internal13scalar_sum_opIddEEKNS5_IS8_KNS_7ProductIS2_NS1_IdLin1ELi1ELi0ELin1ELi1EEELi0EEESC_EEKS2_EEEERKNS_9DenseBaseIT_EE, symObjAddr: 0x2FA8, symBinAddr: 0x100003858, symSize: 0x84 }
  - { offsetInCU: 0x14D260, offset: 0x14D260, size: 0x8, addend: 0x0, symName: __ZN5Eigen10MatrixBaseINS_6MatrixIdLin1ELin1ELi0ELin1ELin1EEEEC2Ev, symObjAddr: 0x302C, symBinAddr: 0x1000038DC, symSize: 0x2C }
  - { offsetInCU: 0x14D28A, offset: 0x14D28A, size: 0x8, addend: 0x0, symName: __ZN5Eigen12DenseStorageIdLin1ELin1ELin1ELi0EEC1Ev, symObjAddr: 0x3058, symBinAddr: 0x100003908, symSize: 0x2C }
  - { offsetInCU: 0x14D2B4, offset: 0x14D2B4, size: 0x8, addend: 0x0, symName: __ZN5Eigen15PlainObjectBaseINS_6MatrixIdLin1ELin1ELi0ELin1ELin1EEEE22_check_template_paramsEv, symObjAddr: 0x3084, symBinAddr: 0x100003934, symSize: 0x4 }
  - { offsetInCU: 0x14D309, offset: 0x14D309, size: 0x8, addend: 0x0, symName: __ZN5Eigen15PlainObjectBaseINS_6MatrixIdLin1ELin1ELi0ELin1ELin1EEEE10resizeLikeINS_13CwiseBinaryOpINS_8internal13scalar_sum_opIddEEKNS5_IS8_KNS_7ProductIS2_NS1_IdLin1ELi1ELi0ELin1ELi1EEELi0EEESC_EEKS2_EEEEvRKNS_9EigenBaseIT_EE, symObjAddr: 0x3088, symBinAddr: 0x100003938, symSize: 0x11C }
  - { offsetInCU: 0x14D39D, offset: 0x14D39D, size: 0x8, addend: 0x0, symName: __ZN5Eigen15PlainObjectBaseINS_6MatrixIdLin1ELin1ELi0ELin1ELin1EEEE12_set_noaliasINS_13CwiseBinaryOpINS_8internal13scalar_sum_opIddEEKNS5_IS8_KNS_7ProductIS2_NS1_IdLin1ELi1ELi0ELin1ELi1EEELi0EEESC_EEKS2_EEEERS2_RKNS_9DenseBaseIT_EE, symObjAddr: 0x31A4, symBinAddr: 0x100003A54, symSize: 0x60 }
  - { offsetInCU: 0x14D3DB, offset: 0x14D3DB, size: 0x8, addend: 0x0, symName: __ZN5Eigen9DenseBaseINS_6MatrixIdLin1ELin1ELi0ELin1ELin1EEEEC2Ev, symObjAddr: 0x3204, symBinAddr: 0x100003AB4, symSize: 0x14 }
  - { offsetInCU: 0x14D405, offset: 0x14D405, size: 0x8, addend: 0x0, symName: __ZN5Eigen12DenseStorageIdLin1ELin1ELin1ELi0EEC2Ev, symObjAddr: 0x3218, symBinAddr: 0x100003AC8, symSize: 0x20 }
  - { offsetInCU: 0x14D42F, offset: 0x14D42F, size: 0x8, addend: 0x0, symName: __ZNK5Eigen13CwiseBinaryOpINS_8internal13scalar_sum_opIddEEKNS0_IS3_KNS_7ProductINS_6MatrixIdLin1ELin1ELi0ELin1ELin1EEENS5_IdLin1ELi1ELi0ELin1ELi1EEELi0EEES9_EEKS6_E4rowsEv, symObjAddr: 0x3238, symBinAddr: 0x100003AE8, symSize: 0x28 }
  - { offsetInCU: 0x14D455, offset: 0x14D455, size: 0x8, addend: 0x0, symName: __ZNK5Eigen13CwiseBinaryOpINS_8internal13scalar_sum_opIddEEKNS0_IS3_KNS_7ProductINS_6MatrixIdLin1ELin1ELi0ELin1ELin1EEENS5_IdLin1ELi1ELi0ELin1ELi1EEELi0EEES9_EEKS6_E4colsEv, symObjAddr: 0x3260, symBinAddr: 0x100003B10, symSize: 0x28 }
  - { offsetInCU: 0x14D47B, offset: 0x14D47B, size: 0x8, addend: 0x0, symName: __ZN5Eigen15PlainObjectBaseINS_6MatrixIdLin1ELin1ELi0ELin1ELin1EEEE6resizeEll, symObjAddr: 0x3288, symBinAddr: 0x100003B38, symSize: 0x14C }
  - { offsetInCU: 0x14D4F7, offset: 0x14D4F7, size: 0x8, addend: 0x0, symName: __ZN5Eigen12DenseStorageIdLin1ELin1ELin1ELi0EE6resizeElll, symObjAddr: 0x3408, symBinAddr: 0x100003CB8, symSize: 0xB4 }
  - { offsetInCU: 0x14D54A, offset: 0x14D54A, size: 0x8, addend: 0x0, symName: __ZN5Eigen9EigenBaseINS_6MatrixIdLin1ELin1ELi0ELin1ELin1EEEE7derivedEv, symObjAddr: 0x3680, symBinAddr: 0x100003F30, symSize: 0x14 }
  - { offsetInCU: 0x14D570, offset: 0x14D570, size: 0x8, addend: 0x0, symName: __ZN5Eigen8internal9assign_opIddEC1Ev, symObjAddr: 0x3694, symBinAddr: 0x100003F44, symSize: 0x2C }
  - { offsetInCU: 0x14D59A, offset: 0x14D59A, size: 0x8, addend: 0x0, symName: __ZN5Eigen8internal10AssignmentINS_6MatrixIdLin1ELin1ELi0ELin1ELin1EEENS_13CwiseBinaryOpINS0_13scalar_sum_opIddEEKNS4_IS6_KNS_7ProductIS3_NS2_IdLin1ELi1ELi0ELin1ELi1EEELi0EEESA_EEKS3_EENS0_9assign_opIddEENS0_11Dense2DenseEvE3runERS3_RKSE_RKSG_, symObjAddr: 0x36C0, symBinAddr: 0x100003F70, symSize: 0x40 }
  - { offsetInCU: 0x14D5DC, offset: 0x14D5DC, size: 0x8, addend: 0x0, symName: __ZN5Eigen8internal27checkTransposeAliasing_implINS_6MatrixIdLin1ELin1ELi0ELin1ELin1EEENS_13CwiseBinaryOpINS0_13scalar_sum_opIddEEKNS4_IS6_KNS_7ProductIS3_NS2_IdLin1ELi1ELi0ELin1ELi1EEELi0EEESA_EEKS3_EELb0EE3runERSD_RKSE_, symObjAddr: 0x3840, symBinAddr: 0x1000040F0, symSize: 0x14 }
  - { offsetInCU: 0x14D607, offset: 0x14D607, size: 0x8, addend: 0x0, symName: __ZN5Eigen8internal9evaluatorINS_13CwiseBinaryOpINS0_13scalar_sum_opIddEEKNS2_IS4_KNS_7ProductINS_6MatrixIdLin1ELin1ELi0ELin1ELin1EEENS6_IdLin1ELi1ELi0ELin1ELi1EEELi0EEESA_EEKS7_EEEC1ERKSE_, symObjAddr: 0x3854, symBinAddr: 0x100004104, symSize: 0x34 }
  - { offsetInCU: 0x14D640, offset: 0x14D640, size: 0x8, addend: 0x0, symName: __ZN5Eigen8internal9evaluatorINS_6MatrixIdLin1ELin1ELi0ELin1ELin1EEEEC1ERKS3_, symObjAddr: 0x3980, symBinAddr: 0x100004230, symSize: 0x34 }
  - { offsetInCU: 0x14D679, offset: 0x14D679, size: 0x8, addend: 0x0, symName: __ZNK5Eigen9EigenBaseINS_6MatrixIdLin1ELin1ELi0ELin1ELin1EEEE18const_cast_derivedEv, symObjAddr: 0x39B4, symBinAddr: 0x100004264, symSize: 0x14 }
  - { offsetInCU: 0x14D69F, offset: 0x14D69F, size: 0x8, addend: 0x0, symName: __ZN5Eigen8internal31generic_dense_assignment_kernelINS0_9evaluatorINS_6MatrixIdLin1ELin1ELi0ELin1ELin1EEEEENS2_INS_13CwiseBinaryOpINS0_13scalar_sum_opIddEEKNS6_IS8_KNS_7ProductIS4_NS3_IdLin1ELi1ELi0ELin1ELi1EEELi0EEESC_EEKS4_EEEENS0_9assign_opIddEELi0EEC1ERS5_RKSH_RKSJ_RS4_, symObjAddr: 0x39C8, symBinAddr: 0x100004278, symSize: 0x4C }
  - { offsetInCU: 0x14D705, offset: 0x14D705, size: 0x8, addend: 0x0, symName: __ZN5Eigen8internal9evaluatorINS_6MatrixIdLin1ELin1ELi0ELin1ELin1EEEED1Ev, symObjAddr: 0x3ABC, symBinAddr: 0x10000436C, symSize: 0x2C }
  - { offsetInCU: 0x14D732, offset: 0x14D732, size: 0x8, addend: 0x0, symName: __ZN5Eigen8internal9evaluatorINS_13CwiseBinaryOpINS0_13scalar_sum_opIddEEKNS2_IS4_KNS_7ProductINS_6MatrixIdLin1ELin1ELi0ELin1ELin1EEENS6_IdLin1ELi1ELi0ELin1ELi1EEELi0EEESA_EEKS7_EEED1Ev, symObjAddr: 0x3AE8, symBinAddr: 0x100004398, symSize: 0x2C }
  - { offsetInCU: 0x14D75F, offset: 0x14D75F, size: 0x8, addend: 0x0, symName: __ZN5Eigen8internal9evaluatorINS_13CwiseBinaryOpINS0_13scalar_sum_opIddEEKNS2_IS4_KNS_7ProductINS_6MatrixIdLin1ELin1ELi0ELin1ELin1EEENS6_IdLin1ELi1ELi0ELin1ELi1EEELi0EEESA_EEKS7_EEEC2ERKSE_, symObjAddr: 0x3B14, symBinAddr: 0x1000043C4, symSize: 0x34 }
  - { offsetInCU: 0x14D798, offset: 0x14D798, size: 0x8, addend: 0x0, symName: __ZN5Eigen8internal16binary_evaluatorINS_13CwiseBinaryOpINS0_13scalar_sum_opIddEEKNS2_IS4_KNS_7ProductINS_6MatrixIdLin1ELin1ELi0ELin1ELin1EEENS6_IdLin1ELi1ELi0ELin1ELi1EEELi0EEESA_EEKS7_EENS0_10IndexBasedESF_ddEC2ERKSE_, symObjAddr: 0x3B48, symBinAddr: 0x1000043F8, symSize: 0x64 }
  - { offsetInCU: 0x14D7D1, offset: 0x14D7D1, size: 0x8, addend: 0x0, symName: __ZN5Eigen8internal14evaluator_baseINS_13CwiseBinaryOpINS0_13scalar_sum_opIddEEKNS2_IS4_KNS_7ProductINS_6MatrixIdLin1ELin1ELi0ELin1ELin1EEENS6_IdLin1ELi1ELi0ELin1ELi1EEELi0EEESA_EEKS7_EEEC2Ev, symObjAddr: 0x3BAC, symBinAddr: 0x10000445C, symSize: 0x14 }
  - { offsetInCU: 0x14D7FB, offset: 0x14D7FB, size: 0x8, addend: 0x0, symName: __ZN5Eigen8internal16binary_evaluatorINS_13CwiseBinaryOpINS0_13scalar_sum_opIddEEKNS2_IS4_KNS_7ProductINS_6MatrixIdLin1ELin1ELi0ELin1ELin1EEENS6_IdLin1ELi1ELi0ELin1ELi1EEELi0EEESA_EEKS7_EENS0_10IndexBasedESF_ddE4DataC1ERKSE_, symObjAddr: 0x3BC0, symBinAddr: 0x100004470, symSize: 0x34 }
  - { offsetInCU: 0x14D834, offset: 0x14D834, size: 0x8, addend: 0x0, symName: __ZN5Eigen8internal14evaluator_baseINS_13CwiseBinaryOpINS0_13scalar_sum_opIddEEKNS2_IS4_KNS_7ProductINS_6MatrixIdLin1ELin1ELi0ELin1ELin1EEENS6_IdLin1ELi1ELi0ELin1ELi1EEELi0EEESA_EEKS7_EEED2Ev, symObjAddr: 0x3BF4, symBinAddr: 0x1000044A4, symSize: 0x14 }
  - { offsetInCU: 0x14D85E, offset: 0x14D85E, size: 0x8, addend: 0x0, symName: __ZN5Eigen8internal16binary_evaluatorINS_13CwiseBinaryOpINS0_13scalar_sum_opIddEEKNS2_IS4_KNS_7ProductINS_6MatrixIdLin1ELin1ELi0ELin1ELin1EEENS6_IdLin1ELi1ELi0ELin1ELi1EEELi0EEESA_EEKS7_EENS0_10IndexBasedESF_ddE4DataC2ERKSE_, symObjAddr: 0x3C08, symBinAddr: 0x1000044B8, symSize: 0xA8 }
  - { offsetInCU: 0x14D897, offset: 0x14D897, size: 0x8, addend: 0x0, symName: __ZNK5Eigen13CwiseBinaryOpINS_8internal13scalar_sum_opIddEEKNS0_IS3_KNS_7ProductINS_6MatrixIdLin1ELin1ELi0ELin1ELin1EEENS5_IdLin1ELi1ELi0ELin1ELi1EEELi0EEES9_EEKS6_E7functorEv, symObjAddr: 0x3CB0, symBinAddr: 0x100004560, symSize: 0x18 }
  - { offsetInCU: 0x14D8BD, offset: 0x14D8BD, size: 0x8, addend: 0x0, symName: __ZNK5Eigen13CwiseBinaryOpINS_8internal13scalar_sum_opIddEEKNS0_IS3_KNS_7ProductINS_6MatrixIdLin1ELin1ELi0ELin1ELin1EEENS5_IdLin1ELi1ELi0ELin1ELi1EEELi0EEES9_EEKS6_E3lhsEv, symObjAddr: 0x3CC8, symBinAddr: 0x100004578, symSize: 0x18 }
  - { offsetInCU: 0x14D8E3, offset: 0x14D8E3, size: 0x8, addend: 0x0, symName: __ZN5Eigen8internal9evaluatorIKNS_13CwiseBinaryOpINS0_13scalar_sum_opIddEEKNS_7ProductINS_6MatrixIdLin1ELin1ELi0ELin1ELin1EEENS6_IdLin1ELi1ELi0ELin1ELi1EEELi0EEESA_EEEC1ERSC_, symObjAddr: 0x3CE0, symBinAddr: 0x100004590, symSize: 0x34 }
  - { offsetInCU: 0x14D91B, offset: 0x14D91B, size: 0x8, addend: 0x0, symName: __ZNK5Eigen13CwiseBinaryOpINS_8internal13scalar_sum_opIddEEKNS0_IS3_KNS_7ProductINS_6MatrixIdLin1ELin1ELi0ELin1ELin1EEENS5_IdLin1ELi1ELi0ELin1ELi1EEELi0EEES9_EEKS6_E3rhsEv, symObjAddr: 0x3D14, symBinAddr: 0x1000045C4, symSize: 0x18 }
  - { offsetInCU: 0x14D941, offset: 0x14D941, size: 0x8, addend: 0x0, symName: __ZN5Eigen8internal9evaluatorIKNS_6MatrixIdLin1ELin1ELi0ELin1ELin1EEEEC1ERS4_, symObjAddr: 0x3D2C, symBinAddr: 0x1000045DC, symSize: 0x34 }
  - { offsetInCU: 0x14D979, offset: 0x14D979, size: 0x8, addend: 0x0, symName: __ZN5Eigen8internal9evaluatorIKNS_13CwiseBinaryOpINS0_13scalar_sum_opIddEEKNS_7ProductINS_6MatrixIdLin1ELin1ELi0ELin1ELin1EEENS6_IdLin1ELi1ELi0ELin1ELi1EEELi0EEESA_EEED1Ev, symObjAddr: 0x3D60, symBinAddr: 0x100004610, symSize: 0x2C }
  - { offsetInCU: 0x14D9A5, offset: 0x14D9A5, size: 0x8, addend: 0x0, symName: __ZN5Eigen8internal9evaluatorIKNS_13CwiseBinaryOpINS0_13scalar_sum_opIddEEKNS_7ProductINS_6MatrixIdLin1ELin1ELi0ELin1ELin1EEENS6_IdLin1ELi1ELi0ELin1ELi1EEELi0EEESA_EEEC2ERSC_, symObjAddr: 0x3D8C, symBinAddr: 0x10000463C, symSize: 0x34 }
  - { offsetInCU: 0x14D9DD, offset: 0x14D9DD, size: 0x8, addend: 0x0, symName: __ZN5Eigen8internal9evaluatorINS_13CwiseBinaryOpINS0_13scalar_sum_opIddEEKNS_7ProductINS_6MatrixIdLin1ELin1ELi0ELin1ELin1EEENS6_IdLin1ELi1ELi0ELin1ELi1EEELi0EEESA_EEEC2ERKSB_, symObjAddr: 0x3DC0, symBinAddr: 0x100004670, symSize: 0x34 }
  - { offsetInCU: 0x14DA16, offset: 0x14DA16, size: 0x8, addend: 0x0, symName: __ZN5Eigen8internal16binary_evaluatorINS_13CwiseBinaryOpINS0_13scalar_sum_opIddEEKNS_7ProductINS_6MatrixIdLin1ELin1ELi0ELin1ELin1EEENS6_IdLin1ELi1ELi0ELin1ELi1EEELi0EEESA_EENS0_10IndexBasedESC_ddEC2ERKSB_, symObjAddr: 0x3DF4, symBinAddr: 0x1000046A4, symSize: 0x64 }
  - { offsetInCU: 0x14DA4F, offset: 0x14DA4F, size: 0x8, addend: 0x0, symName: __ZN5Eigen8internal14evaluator_baseINS_13CwiseBinaryOpINS0_13scalar_sum_opIddEEKNS_7ProductINS_6MatrixIdLin1ELin1ELi0ELin1ELin1EEENS6_IdLin1ELi1ELi0ELin1ELi1EEELi0EEESA_EEEC2Ev, symObjAddr: 0x3E58, symBinAddr: 0x100004708, symSize: 0x14 }
  - { offsetInCU: 0x14DA79, offset: 0x14DA79, size: 0x8, addend: 0x0, symName: __ZN5Eigen8internal16binary_evaluatorINS_13CwiseBinaryOpINS0_13scalar_sum_opIddEEKNS_7ProductINS_6MatrixIdLin1ELin1ELi0ELin1ELin1EEENS6_IdLin1ELi1ELi0ELin1ELi1EEELi0EEESA_EENS0_10IndexBasedESC_ddE4DataC1ERKSB_, symObjAddr: 0x3E6C, symBinAddr: 0x10000471C, symSize: 0x34 }
  - { offsetInCU: 0x14DAB2, offset: 0x14DAB2, size: 0x8, addend: 0x0, symName: __ZN5Eigen8internal14evaluator_baseINS_13CwiseBinaryOpINS0_13scalar_sum_opIddEEKNS_7ProductINS_6MatrixIdLin1ELin1ELi0ELin1ELin1EEENS6_IdLin1ELi1ELi0ELin1ELi1EEELi0EEESA_EEED2Ev, symObjAddr: 0x3EA0, symBinAddr: 0x100004750, symSize: 0x14 }
  - { offsetInCU: 0x14DADC, offset: 0x14DADC, size: 0x8, addend: 0x0, symName: __ZN5Eigen8internal16binary_evaluatorINS_13CwiseBinaryOpINS0_13scalar_sum_opIddEEKNS_7ProductINS_6MatrixIdLin1ELin1ELi0ELin1ELin1EEENS6_IdLin1ELi1ELi0ELin1ELi1EEELi0EEESA_EENS0_10IndexBasedESC_ddE4DataC2ERKSB_, symObjAddr: 0x3EB4, symBinAddr: 0x100004764, symSize: 0xA8 }
  - { offsetInCU: 0x14DB15, offset: 0x14DB15, size: 0x8, addend: 0x0, symName: __ZNK5Eigen13CwiseBinaryOpINS_8internal13scalar_sum_opIddEEKNS_7ProductINS_6MatrixIdLin1ELin1ELi0ELin1ELin1EEENS5_IdLin1ELi1ELi0ELin1ELi1EEELi0EEES9_E7functorEv, symObjAddr: 0x3F5C, symBinAddr: 0x10000480C, symSize: 0x18 }
  - { offsetInCU: 0x14DB3B, offset: 0x14DB3B, size: 0x8, addend: 0x0, symName: __ZNK5Eigen13CwiseBinaryOpINS_8internal13scalar_sum_opIddEEKNS_7ProductINS_6MatrixIdLin1ELin1ELi0ELin1ELin1EEENS5_IdLin1ELi1ELi0ELin1ELi1EEELi0EEES9_E3lhsEv, symObjAddr: 0x3F74, symBinAddr: 0x100004824, symSize: 0x14 }
  - { offsetInCU: 0x14DB61, offset: 0x14DB61, size: 0x8, addend: 0x0, symName: __ZN5Eigen8internal9evaluatorIKNS_7ProductINS_6MatrixIdLin1ELin1ELi0ELin1ELin1EEENS3_IdLin1ELi1ELi0ELin1ELi1EEELi0EEEEC1ERS7_, symObjAddr: 0x3F88, symBinAddr: 0x100004838, symSize: 0x34 }
  - { offsetInCU: 0x14DB99, offset: 0x14DB99, size: 0x8, addend: 0x0, symName: __ZNK5Eigen13CwiseBinaryOpINS_8internal13scalar_sum_opIddEEKNS_7ProductINS_6MatrixIdLin1ELin1ELi0ELin1ELin1EEENS5_IdLin1ELi1ELi0ELin1ELi1EEELi0EEES9_E3rhsEv, symObjAddr: 0x3FBC, symBinAddr: 0x10000486C, symSize: 0x18 }
  - { offsetInCU: 0x14DBBF, offset: 0x14DBBF, size: 0x8, addend: 0x0, symName: __ZN5Eigen8internal9evaluatorIKNS_7ProductINS_6MatrixIdLin1ELin1ELi0ELin1ELin1EEENS3_IdLin1ELi1ELi0ELin1ELi1EEELi0EEEED1Ev, symObjAddr: 0x3FD4, symBinAddr: 0x100004884, symSize: 0x2C }
  - { offsetInCU: 0x14DBEB, offset: 0x14DBEB, size: 0x8, addend: 0x0, symName: __ZN5Eigen8internal9evaluatorIKNS_7ProductINS_6MatrixIdLin1ELin1ELi0ELin1ELin1EEENS3_IdLin1ELi1ELi0ELin1ELi1EEELi0EEEEC2ERS7_, symObjAddr: 0x4000, symBinAddr: 0x1000048B0, symSize: 0x34 }
  - { offsetInCU: 0x14DC23, offset: 0x14DC23, size: 0x8, addend: 0x0, symName: __ZN5Eigen8internal9evaluatorINS_7ProductINS_6MatrixIdLin1ELin1ELi0ELin1ELin1EEENS3_IdLin1ELi1ELi0ELin1ELi1EEELi0EEEEC2ERKS6_, symObjAddr: 0x4034, symBinAddr: 0x1000048E4, symSize: 0x34 }
  - { offsetInCU: 0x14DC5B, offset: 0x14DC5B, size: 0x8, addend: 0x0, symName: __ZN5Eigen8internal17product_evaluatorINS_7ProductINS_6MatrixIdLin1ELin1ELi0ELin1ELin1EEENS3_IdLin1ELi1ELi0ELin1ELi1EEELi0EEELi7ENS_10DenseShapeES7_ddEC2ERKS6_, symObjAddr: 0x4068, symBinAddr: 0x100004918, symSize: 0x108 }
  - { offsetInCU: 0x14DC93, offset: 0x14DC93, size: 0x8, addend: 0x0, symName: __ZN5Eigen8internal9evaluatorINS_6MatrixIdLin1ELi1ELi0ELin1ELi1EEEEC2Ev, symObjAddr: 0x4170, symBinAddr: 0x100004A20, symSize: 0x2C }
  - { offsetInCU: 0x14DCC2, offset: 0x14DCC2, size: 0x8, addend: 0x0, symName: __ZN5Eigen6MatrixIdLin1ELi1ELi0ELin1ELi1EEC1IllEERKT_RKT0_, symObjAddr: 0x419C, symBinAddr: 0x100004A4C, symSize: 0x3C }
  - { offsetInCU: 0x14DD1C, offset: 0x14DD1C, size: 0x8, addend: 0x0, symName: __ZN5Eigen8internal9evaluatorINS_6MatrixIdLin1ELi1ELi0ELin1ELi1EEEEC1ERKS3_, symObjAddr: 0x41D8, symBinAddr: 0x100004A88, symSize: 0x34 }
  - { offsetInCU: 0x14DD55, offset: 0x14DD55, size: 0x8, addend: 0x0, symName: __ZN5Eigen8internal25generic_product_impl_baseINS_6MatrixIdLin1ELin1ELi0ELin1ELin1EEENS2_IdLin1ELi1ELi0ELin1ELi1EEENS0_20generic_product_implIS3_S4_NS_10DenseShapeES6_Li7EEEE6evalToIS4_EEvRT_RKS3_RKS4_, symObjAddr: 0x420C, symBinAddr: 0x100004ABC, symSize: 0x48 }
  - { offsetInCU: 0x14DDA0, offset: 0x14DDA0, size: 0x8, addend: 0x0, symName: __ZNK5Eigen7ProductINS_6MatrixIdLin1ELin1ELi0ELin1ELin1EEENS1_IdLin1ELi1ELi0ELin1ELi1EEELi0EE3lhsEv, symObjAddr: 0x4254, symBinAddr: 0x100004B04, symSize: 0x18 }
  - { offsetInCU: 0x14DDC6, offset: 0x14DDC6, size: 0x8, addend: 0x0, symName: __ZNK5Eigen7ProductINS_6MatrixIdLin1ELin1ELi0ELin1ELin1EEENS1_IdLin1ELi1ELi0ELin1ELi1EEELi0EE3rhsEv, symObjAddr: 0x426C, symBinAddr: 0x100004B1C, symSize: 0x18 }
  - { offsetInCU: 0x14DDEC, offset: 0x14DDEC, size: 0x8, addend: 0x0, symName: __ZN5Eigen8internal9evaluatorINS_6MatrixIdLin1ELi1ELi0ELin1ELi1EEEED2Ev, symObjAddr: 0x4284, symBinAddr: 0x100004B34, symSize: 0x2C }
  - { offsetInCU: 0x14DE19, offset: 0x14DE19, size: 0x8, addend: 0x0, symName: __ZN5Eigen8internal9evaluatorINS_15PlainObjectBaseINS_6MatrixIdLin1ELi1ELi0ELin1ELi1EEEEEEC2Ev, symObjAddr: 0x42B0, symBinAddr: 0x100004B60, symSize: 0x64 }
  - { offsetInCU: 0x14DE43, offset: 0x14DE43, size: 0x8, addend: 0x0, symName: __ZN5Eigen8internal14evaluator_baseINS_6MatrixIdLin1ELi1ELi0ELin1ELi1EEEEC2Ev, symObjAddr: 0x4314, symBinAddr: 0x100004BC4, symSize: 0x14 }
  - { offsetInCU: 0x14DE6D, offset: 0x14DE6D, size: 0x8, addend: 0x0, symName: __ZN5Eigen8internal30plainobjectbase_evaluator_dataIdLi0EEC1EPKdl, symObjAddr: 0x4328, symBinAddr: 0x100004BD8, symSize: 0x3C }
  - { offsetInCU: 0x14DEB3, offset: 0x14DEB3, size: 0x8, addend: 0x0, symName: __ZN5Eigen8internal14evaluator_baseINS_6MatrixIdLin1ELi1ELi0ELin1ELi1EEEED2Ev, symObjAddr: 0x4364, symBinAddr: 0x100004C14, symSize: 0x14 }
  - { offsetInCU: 0x14DEDD, offset: 0x14DEDD, size: 0x8, addend: 0x0, symName: __ZN5Eigen8internal30plainobjectbase_evaluator_dataIdLi0EEC2EPKdl, symObjAddr: 0x4378, symBinAddr: 0x100004C28, symSize: 0x40 }
  - { offsetInCU: 0x14DF23, offset: 0x14DF23, size: 0x8, addend: 0x0, symName: __ZN5Eigen6MatrixIdLin1ELi1ELi0ELin1ELi1EEC2IllEERKT_RKT0_, symObjAddr: 0x43C8, symBinAddr: 0x100004C78, symSize: 0x80 }
  - { offsetInCU: 0x14DF7D, offset: 0x14DF7D, size: 0x8, addend: 0x0, symName: __ZN5Eigen15PlainObjectBaseINS_6MatrixIdLin1ELi1ELi0ELin1ELi1EEEEC2Ev, symObjAddr: 0x4448, symBinAddr: 0x100004CF8, symSize: 0x34 }
  - { offsetInCU: 0x14DFA7, offset: 0x14DFA7, size: 0x8, addend: 0x0, symName: __ZN5Eigen15PlainObjectBaseINS_6MatrixIdLin1ELi1ELi0ELin1ELi1EEEE22_check_template_paramsEv, symObjAddr: 0x447C, symBinAddr: 0x100004D2C, symSize: 0x4 }
  - { offsetInCU: 0x14DFC0, offset: 0x14DFC0, size: 0x8, addend: 0x0, symName: __ZN5Eigen15PlainObjectBaseINS_6MatrixIdLin1ELi1ELi0ELin1ELi1EEEE6_init2IllEEvllPNS_8internal9enable_ifILb1ET_E4typeE, symObjAddr: 0x4480, symBinAddr: 0x100004D30, symSize: 0x44 }
  - { offsetInCU: 0x14E03F, offset: 0x14E03F, size: 0x8, addend: 0x0, symName: __ZN5Eigen10MatrixBaseINS_6MatrixIdLin1ELi1ELi0ELin1ELi1EEEEC2Ev, symObjAddr: 0x44C4, symBinAddr: 0x100004D74, symSize: 0x2C }
  - { offsetInCU: 0x14E069, offset: 0x14E069, size: 0x8, addend: 0x0, symName: __ZN5Eigen12DenseStorageIdLin1ELin1ELi1ELi0EEC1Ev, symObjAddr: 0x44F0, symBinAddr: 0x100004DA0, symSize: 0x2C }
  - { offsetInCU: 0x14E093, offset: 0x14E093, size: 0x8, addend: 0x0, symName: __ZN5Eigen9DenseBaseINS_6MatrixIdLin1ELi1ELi0ELin1ELi1EEEEC2Ev, symObjAddr: 0x451C, symBinAddr: 0x100004DCC, symSize: 0x14 }
  - { offsetInCU: 0x14E0BD, offset: 0x14E0BD, size: 0x8, addend: 0x0, symName: __ZN5Eigen12DenseStorageIdLin1ELin1ELi1ELi0EEC2Ev, symObjAddr: 0x4530, symBinAddr: 0x100004DE0, symSize: 0x1C }
  - { offsetInCU: 0x14E0E7, offset: 0x14E0E7, size: 0x8, addend: 0x0, symName: __ZN5Eigen15PlainObjectBaseINS_6MatrixIdLin1ELi1ELi0ELin1ELi1EEEE6resizeEll, symObjAddr: 0x454C, symBinAddr: 0x100004DFC, symSize: 0x168 }
  - { offsetInCU: 0x14E163, offset: 0x14E163, size: 0x8, addend: 0x0, symName: __ZN5Eigen12DenseStorageIdLin1ELin1ELi1ELi0EE6resizeElll, symObjAddr: 0x46B4, symBinAddr: 0x100004F64, symSize: 0xA4 }
  - { offsetInCU: 0x14E1B2, offset: 0x14E1B2, size: 0x8, addend: 0x0, symName: __ZN5Eigen8internal9evaluatorINS_6MatrixIdLin1ELi1ELi0ELin1ELi1EEEEC2ERKS3_, symObjAddr: 0x4758, symBinAddr: 0x100005008, symSize: 0x34 }
  - { offsetInCU: 0x14E1EB, offset: 0x14E1EB, size: 0x8, addend: 0x0, symName: __ZN5Eigen8internal9evaluatorINS_15PlainObjectBaseINS_6MatrixIdLin1ELi1ELi0ELin1ELi1EEEEEEC2ERKS5_, symObjAddr: 0x478C, symBinAddr: 0x10000503C, symSize: 0x78 }
  - { offsetInCU: 0x14E223, offset: 0x14E223, size: 0x8, addend: 0x0, symName: __ZNK5Eigen15PlainObjectBaseINS_6MatrixIdLin1ELi1ELi0ELin1ELi1EEEE4dataEv, symObjAddr: 0x4804, symBinAddr: 0x1000050B4, symSize: 0x24 }
  - { offsetInCU: 0x14E249, offset: 0x14E249, size: 0x8, addend: 0x0, symName: __ZNK5Eigen12DenseStorageIdLin1ELin1ELi1ELi0EE4dataEv, symObjAddr: 0x4828, symBinAddr: 0x1000050D8, symSize: 0x18 }
  - { offsetInCU: 0x14E26F, offset: 0x14E26F, size: 0x8, addend: 0x0, symName: __ZN5Eigen9DenseBaseINS_6MatrixIdLin1ELi1ELi0ELin1ELi1EEEE7setZeroEv, symObjAddr: 0x4840, symBinAddr: 0x1000050F0, symSize: 0x30 }
  - { offsetInCU: 0x14E2A2, offset: 0x14E2A2, size: 0x8, addend: 0x0, symName: __ZN5Eigen8internal25generic_product_impl_baseINS_6MatrixIdLin1ELin1ELi0ELin1ELin1EEENS2_IdLin1ELi1ELi0ELin1ELi1EEENS0_20generic_product_implIS3_S4_NS_10DenseShapeES6_Li7EEEE13scaleAndAddToIS4_EEvRT_RKS3_RKS4_RKd, symObjAddr: 0x4870, symBinAddr: 0x100005120, symSize: 0x3C }
  - { offsetInCU: 0x14E2FC, offset: 0x14E2FC, size: 0x8, addend: 0x0, symName: __ZN5Eigen9DenseBaseINS_6MatrixIdLin1ELi1ELi0ELin1ELi1EEEE11setConstantERKd, symObjAddr: 0x48AC, symBinAddr: 0x10000515C, symSize: 0x64 }
  - { offsetInCU: 0x14E334, offset: 0x14E334, size: 0x8, addend: 0x0, symName: __ZN5Eigen9DenseBaseINS_6MatrixIdLin1ELi1ELi0ELin1ELi1EEEE8ConstantEllRKd, symObjAddr: 0x4910, symBinAddr: 0x1000051C0, symSize: 0x60 }
  - { offsetInCU: 0x14E378, offset: 0x14E378, size: 0x8, addend: 0x0, symName: __ZNK5Eigen9EigenBaseINS_6MatrixIdLin1ELi1ELi0ELin1ELi1EEEE4rowsEv, symObjAddr: 0x4970, symBinAddr: 0x100005220, symSize: 0x28 }
  - { offsetInCU: 0x14E39E, offset: 0x14E39E, size: 0x8, addend: 0x0, symName: __ZNK5Eigen9EigenBaseINS_6MatrixIdLin1ELi1ELi0ELin1ELi1EEEE4colsEv, symObjAddr: 0x4998, symBinAddr: 0x100005248, symSize: 0x28 }
  - { offsetInCU: 0x14E3C4, offset: 0x14E3C4, size: 0x8, addend: 0x0, symName: __ZN5Eigen9EigenBaseINS_6MatrixIdLin1ELi1ELi0ELin1ELi1EEEE7derivedEv, symObjAddr: 0x49C0, symBinAddr: 0x100005270, symSize: 0x14 }
  - { offsetInCU: 0x14E3EA, offset: 0x14E3EA, size: 0x8, addend: 0x0, symName: __ZN5Eigen6MatrixIdLin1ELi1ELi0ELin1ELi1EEaSINS_14CwiseNullaryOpINS_8internal18scalar_constant_opIdEES1_EEEERS1_RKNS_9DenseBaseIT_EE, symObjAddr: 0x49D4, symBinAddr: 0x100005284, symSize: 0x2C }
  - { offsetInCU: 0x14E427, offset: 0x14E427, size: 0x8, addend: 0x0, symName: __ZN5Eigen9DenseBaseINS_6MatrixIdLin1ELi1ELi0ELin1ELi1EEEE11NullaryExprINS_8internal18scalar_constant_opIdEEEEKNS_14CwiseNullaryOpIT_S2_EEllRKS9_, symObjAddr: 0x4A00, symBinAddr: 0x1000052B0, symSize: 0x48 }
  - { offsetInCU: 0x14E474, offset: 0x14E474, size: 0x8, addend: 0x0, symName: __ZN5Eigen8internal18scalar_constant_opIdEC1ERKd, symObjAddr: 0x4A48, symBinAddr: 0x1000052F8, symSize: 0x34 }
  - { offsetInCU: 0x14E4AC, offset: 0x14E4AC, size: 0x8, addend: 0x0, symName: __ZN5Eigen14CwiseNullaryOpINS_8internal18scalar_constant_opIdEENS_6MatrixIdLin1ELi1ELi0ELin1ELi1EEEEC1EllRKS3_, symObjAddr: 0x4A7C, symBinAddr: 0x10000532C, symSize: 0x44 }
  - { offsetInCU: 0x14E500, offset: 0x14E500, size: 0x8, addend: 0x0, symName: __ZN5Eigen14CwiseNullaryOpINS_8internal18scalar_constant_opIdEENS_6MatrixIdLin1ELi1ELi0ELin1ELi1EEEEC2EllRKS3_, symObjAddr: 0x4AC0, symBinAddr: 0x100005370, symSize: 0xE8 }
  - { offsetInCU: 0x14E554, offset: 0x14E554, size: 0x8, addend: 0x0, symName: __ZN5Eigen10MatrixBaseINS_14CwiseNullaryOpINS_8internal18scalar_constant_opIdEENS_6MatrixIdLin1ELi1ELi0ELin1ELi1EEEEEEC2Ev, symObjAddr: 0x4BA8, symBinAddr: 0x100005458, symSize: 0x2C }
  - { offsetInCU: 0x14E57E, offset: 0x14E57E, size: 0x8, addend: 0x0, symName: __ZN5Eigen8internal19variable_if_dynamicIlLin1EEC1El, symObjAddr: 0x4BD4, symBinAddr: 0x100005484, symSize: 0x34 }
  - { offsetInCU: 0x14E5B6, offset: 0x14E5B6, size: 0x8, addend: 0x0, symName: __ZN5Eigen8internal19variable_if_dynamicIlLi1EEC1El, symObjAddr: 0x4C08, symBinAddr: 0x1000054B8, symSize: 0x34 }
  - { offsetInCU: 0x14E5EE, offset: 0x14E5EE, size: 0x8, addend: 0x0, symName: __ZN5Eigen8internal18scalar_constant_opIdEC1ERKS2_, symObjAddr: 0x4C3C, symBinAddr: 0x1000054EC, symSize: 0x34 }
  - { offsetInCU: 0x14E626, offset: 0x14E626, size: 0x8, addend: 0x0, symName: __ZN5Eigen9DenseBaseINS_14CwiseNullaryOpINS_8internal18scalar_constant_opIdEENS_6MatrixIdLin1ELi1ELi0ELin1ELi1EEEEEEC2Ev, symObjAddr: 0x4C70, symBinAddr: 0x100005520, symSize: 0x14 }
  - { offsetInCU: 0x14E650, offset: 0x14E650, size: 0x8, addend: 0x0, symName: __ZN5Eigen8internal19variable_if_dynamicIlLin1EEC2El, symObjAddr: 0x4C84, symBinAddr: 0x100005534, symSize: 0x20 }
  - { offsetInCU: 0x14E688, offset: 0x14E688, size: 0x8, addend: 0x0, symName: __ZN5Eigen8internal19variable_if_dynamicIlLi1EEC2El, symObjAddr: 0x4CA4, symBinAddr: 0x100005554, symSize: 0x64 }
  - { offsetInCU: 0x14E6C0, offset: 0x14E6C0, size: 0x8, addend: 0x0, symName: __ZN5Eigen8internal18scalar_constant_opIdEC2ERKS2_, symObjAddr: 0x4D08, symBinAddr: 0x1000055B8, symSize: 0x24 }
  - { offsetInCU: 0x14E6F8, offset: 0x14E6F8, size: 0x8, addend: 0x0, symName: __ZN5Eigen8internal18scalar_constant_opIdEC2ERKd, symObjAddr: 0x4D2C, symBinAddr: 0x1000055DC, symSize: 0x24 }
  - { offsetInCU: 0x14E730, offset: 0x14E730, size: 0x8, addend: 0x0, symName: __ZN5Eigen15PlainObjectBaseINS_6MatrixIdLin1ELi1ELi0ELin1ELi1EEEE4_setINS_14CwiseNullaryOpINS_8internal18scalar_constant_opIdEES2_EEEERS2_RKNS_9DenseBaseIT_EE, symObjAddr: 0x4D50, symBinAddr: 0x100005600, symSize: 0x4C }
  - { offsetInCU: 0x14E76E, offset: 0x14E76E, size: 0x8, addend: 0x0, symName: __ZNK5Eigen9EigenBaseINS_14CwiseNullaryOpINS_8internal18scalar_constant_opIdEENS_6MatrixIdLin1ELi1ELi0ELin1ELi1EEEEEE7derivedEv, symObjAddr: 0x4DEC, symBinAddr: 0x10000569C, symSize: 0x14 }
  - { offsetInCU: 0x14E794, offset: 0x14E794, size: 0x8, addend: 0x0, symName: __ZN5Eigen8internal10AssignmentINS_6MatrixIdLin1ELi1ELi0ELin1ELi1EEENS_14CwiseNullaryOpINS0_18scalar_constant_opIdEES3_EENS0_9assign_opIddEENS0_11Dense2DenseEvE3runERS3_RKS7_RKS9_, symObjAddr: 0x4E74, symBinAddr: 0x100005724, symSize: 0x40 }
  - { offsetInCU: 0x14E7D6, offset: 0x14E7D6, size: 0x8, addend: 0x0, symName: __ZN5Eigen15PlainObjectBaseINS_6MatrixIdLin1ELi1ELi0ELin1ELi1EEEE4dataEv, symObjAddr: 0x5070, symBinAddr: 0x100005920, symSize: 0x24 }
  - { offsetInCU: 0x14E7FC, offset: 0x14E7FC, size: 0x8, addend: 0x0, symName: __ZNK5Eigen9EigenBaseINS_6MatrixIdLin1ELi1ELi0ELin1ELi1EEEE4sizeEv, symObjAddr: 0x5094, symBinAddr: 0x100005944, symSize: 0x44 }
  - { offsetInCU: 0x14E822, offset: 0x14E822, size: 0x8, addend: 0x0, symName: __ZNK5Eigen14CwiseNullaryOpINS_8internal18scalar_constant_opIdEENS_6MatrixIdLin1ELi1ELi0ELin1ELi1EEEE7functorEv, symObjAddr: 0x50D8, symBinAddr: 0x100005988, symSize: 0x18 }
  - { offsetInCU: 0x14E848, offset: 0x14E848, size: 0x8, addend: 0x0, symName: __ZNK5Eigen8internal18scalar_constant_opIdEclEv, symObjAddr: 0x50F0, symBinAddr: 0x1000059A0, symSize: 0x18 }
  - { offsetInCU: 0x14E86E, offset: 0x14E86E, size: 0x8, addend: 0x0, symName: __ZNK5Eigen14CwiseNullaryOpINS_8internal18scalar_constant_opIdEENS_6MatrixIdLin1ELi1ELi0ELin1ELi1EEEE4rowsEv, symObjAddr: 0x5108, symBinAddr: 0x1000059B8, symSize: 0x24 }
  - { offsetInCU: 0x14E894, offset: 0x14E894, size: 0x8, addend: 0x0, symName: __ZNK5Eigen14CwiseNullaryOpINS_8internal18scalar_constant_opIdEENS_6MatrixIdLin1ELi1ELi0ELin1ELi1EEEE4colsEv, symObjAddr: 0x512C, symBinAddr: 0x1000059DC, symSize: 0x20 }
  - { offsetInCU: 0x14E8BA, offset: 0x14E8BA, size: 0x8, addend: 0x0, symName: __ZNK5Eigen8internal19variable_if_dynamicIlLin1EE5valueEv, symObjAddr: 0x514C, symBinAddr: 0x1000059FC, symSize: 0x18 }
  - { offsetInCU: 0x14E8E0, offset: 0x14E8E0, size: 0x8, addend: 0x0, symName: __ZN5Eigen8internal19variable_if_dynamicIlLi1EE5valueEv, symObjAddr: 0x5164, symBinAddr: 0x100005A14, symSize: 0x8 }
  - { offsetInCU: 0x14E8F4, offset: 0x14E8F4, size: 0x8, addend: 0x0, symName: __ZN5Eigen12DenseStorageIdLin1ELin1ELi1ELi0EE4dataEv, symObjAddr: 0x51E4, symBinAddr: 0x100005A94, symSize: 0x18 }
  - { offsetInCU: 0x14E924, offset: 0x14E924, size: 0x8, addend: 0x0, symName: __ZN5Eigen8internal20generic_product_implINS_6MatrixIdLin1ELin1ELi0ELin1ELin1EEENS2_IdLin1ELi1ELi0ELin1ELi1EEENS_10DenseShapeES5_Li7EE13scaleAndAddToIS4_EEvRT_RKS3_RKS4_RKd, symObjAddr: 0x51FC, symBinAddr: 0x100005AAC, symSize: 0xFC }
  - { offsetInCU: 0x14E99C, offset: 0x14E99C, size: 0x8, addend: 0x0, symName: __ZNK5Eigen9DenseBaseINS_6MatrixIdLin1ELin1ELi0ELin1ELin1EEEE3rowEl, symObjAddr: 0x52F8, symBinAddr: 0x100005BA8, symSize: 0x3C }
  - { offsetInCU: 0x14E9D1, offset: 0x14E9D1, size: 0x8, addend: 0x0, symName: __ZNK5Eigen9DenseBaseINS_5BlockIKNS_6MatrixIdLin1ELin1ELi0ELin1ELin1EEELi1ELin1ELb0EEEE9conjugateEv, symObjAddr: 0x5334, symBinAddr: 0x100005BE4, symSize: 0x24 }
  - { offsetInCU: 0x14E9F7, offset: 0x14E9F7, size: 0x8, addend: 0x0, symName: __ZNK5Eigen10MatrixBaseINS_5BlockIKNS_6MatrixIdLin1ELin1ELi0ELin1ELin1EEELi1ELin1ELb0EEEE3dotINS1_IKNS2_IdLin1ELi1ELi0ELin1ELi1EEELin1ELi1ELb1EEEEENS_20ScalarBinaryOpTraitsIdNS_8internal6traitsIT_E6ScalarENSC_17scalar_product_opIdSG_EEE10ReturnTypeERKNS0_ISE_EE, symObjAddr: 0x5358, symBinAddr: 0x100005C08, symSize: 0x80 }
  - { offsetInCU: 0x14EA36, offset: 0x14EA36, size: 0x8, addend: 0x0, symName: __ZNK5Eigen9DenseBaseINS_6MatrixIdLin1ELi1ELi0ELin1ELi1EEEE3colEl, symObjAddr: 0x53D8, symBinAddr: 0x100005C88, symSize: 0x3C }
  - { offsetInCU: 0x14EA6B, offset: 0x14EA6B, size: 0x8, addend: 0x0, symName: __ZN5Eigen15PlainObjectBaseINS_6MatrixIdLin1ELi1ELi0ELin1ELi1EEEE8coeffRefEll, symObjAddr: 0x5414, symBinAddr: 0x100005CC4, symSize: 0x6C }
  - { offsetInCU: 0x14EC31, offset: 0x14EC31, size: 0x8, addend: 0x0, symName: __ZN5Eigen8internal19gemv_dense_selectorILi2ELi0ELb1EE3runINS_6MatrixIdLin1ELin1ELi0ELin1ELin1EEENS4_IdLin1ELi1ELi0ELin1ELi1EEES6_EEvRKT_RKT0_RT1_RKNSD_6ScalarE, symObjAddr: 0x5480, symBinAddr: 0x100005D30, symSize: 0x260 }
  - { offsetInCU: 0x14EE98, offset: 0x14EE98, size: 0x8, addend: 0x0, symName: __ZN5Eigen5BlockIKNS_6MatrixIdLin1ELin1ELi0ELin1ELin1EEELi1ELin1ELb0EEC1ERS3_l, symObjAddr: 0x56E0, symBinAddr: 0x100005F90, symSize: 0x3C }
  - { offsetInCU: 0x14EEDE, offset: 0x14EEDE, size: 0x8, addend: 0x0, symName: __ZN5Eigen5BlockIKNS_6MatrixIdLin1ELin1ELi0ELin1ELin1EEELi1ELin1ELb0EEC2ERS3_l, symObjAddr: 0x571C, symBinAddr: 0x100005FCC, symSize: 0xCC }
  - { offsetInCU: 0x14EF24, offset: 0x14EF24, size: 0x8, addend: 0x0, symName: __ZN5Eigen9BlockImplIKNS_6MatrixIdLin1ELin1ELi0ELin1ELin1EEELi1ELin1ELb0ENS_5DenseEEC2ERS3_l, symObjAddr: 0x57E8, symBinAddr: 0x100006098, symSize: 0x3C }
  - { offsetInCU: 0x14EF6A, offset: 0x14EF6A, size: 0x8, addend: 0x0, symName: __ZN5Eigen8internal15BlockImpl_denseIKNS_6MatrixIdLin1ELin1ELi0ELin1ELin1EEELi1ELin1ELb0ELb1EEC2ERS4_l, symObjAddr: 0x5824, symBinAddr: 0x1000060D4, symSize: 0xAC }
  - { offsetInCU: 0x14EFB2, offset: 0x14EFB2, size: 0x8, addend: 0x0, symName: __ZNK5Eigen15PlainObjectBaseINS_6MatrixIdLin1ELin1ELi0ELin1ELin1EEEE4dataEv, symObjAddr: 0x58D0, symBinAddr: 0x100006180, symSize: 0x24 }
  - { offsetInCU: 0x14EFD8, offset: 0x14EFD8, size: 0x8, addend: 0x0, symName: __ZNK5Eigen6MatrixIdLin1ELin1ELi0ELin1ELin1EE11innerStrideEv, symObjAddr: 0x58F4, symBinAddr: 0x1000061A4, symSize: 0x14 }
  - { offsetInCU: 0x14EFFE, offset: 0x14EFFE, size: 0x8, addend: 0x0, symName: __ZN5Eigen7MapBaseINS_5BlockIKNS_6MatrixIdLin1ELin1ELi0ELin1ELin1EEELi1ELin1ELb0EEELi0EEC2EPKdll, symObjAddr: 0x5908, symBinAddr: 0x1000061B8, symSize: 0x130 }
  - { offsetInCU: 0x14F052, offset: 0x14F052, size: 0x8, addend: 0x0, symName: __ZN5Eigen8internal15BlockImpl_denseIKNS_6MatrixIdLin1ELin1ELi0ELin1ELin1EEELi1ELin1ELb0ELb1EE4initEv, symObjAddr: 0x5A38, symBinAddr: 0x1000062E8, symSize: 0x34 }
  - { offsetInCU: 0x14F078, offset: 0x14F078, size: 0x8, addend: 0x0, symName: __ZNK5Eigen12DenseStorageIdLin1ELin1ELin1ELi0EE4dataEv, symObjAddr: 0x5A6C, symBinAddr: 0x10000631C, symSize: 0x18 }
  - { offsetInCU: 0x14F09E, offset: 0x14F09E, size: 0x8, addend: 0x0, symName: __ZN5Eigen10MatrixBaseINS_5BlockIKNS_6MatrixIdLin1ELin1ELi0ELin1ELin1EEELi1ELin1ELb0EEEEC2Ev, symObjAddr: 0x5A84, symBinAddr: 0x100006334, symSize: 0x2C }
  - { offsetInCU: 0x14F0C8, offset: 0x14F0C8, size: 0x8, addend: 0x0, symName: __ZNK5Eigen7MapBaseINS_5BlockIKNS_6MatrixIdLin1ELin1ELi0ELin1ELin1EEELi1ELin1ELb0EEELi0EE11checkSanityIS5_EEvNS_8internal9enable_ifIXeqsr8internal6traitsIT_EE9AlignmentLi0EEPvE4typeE, symObjAddr: 0x5AB0, symBinAddr: 0x100006360, symSize: 0x14 }
  - { offsetInCU: 0x14F102, offset: 0x14F102, size: 0x8, addend: 0x0, symName: __ZN5Eigen9DenseBaseINS_5BlockIKNS_6MatrixIdLin1ELin1ELi0ELin1ELin1EEELi1ELin1ELb0EEEEC2Ev, symObjAddr: 0x5AC4, symBinAddr: 0x100006374, symSize: 0x14 }
  - { offsetInCU: 0x14F12C, offset: 0x14F12C, size: 0x8, addend: 0x0, symName: __ZNK5Eigen9EigenBaseINS_5BlockIKNS_6MatrixIdLin1ELin1ELi0ELin1ELin1EEELi1ELin1ELb0EEEE7derivedEv, symObjAddr: 0x5AD8, symBinAddr: 0x100006388, symSize: 0x14 }
  - { offsetInCU: 0x14F152, offset: 0x14F152, size: 0x8, addend: 0x0, symName: __ZNK5Eigen9EigenBaseINS_5BlockIKNS_6MatrixIdLin1ELin1ELi0ELin1ELin1EEELi1ELin1ELb0EEEE4sizeEv, symObjAddr: 0x5AEC, symBinAddr: 0x10000639C, symSize: 0x44 }
  - { offsetInCU: 0x14F178, offset: 0x14F178, size: 0x8, addend: 0x0, symName: __ZNK5Eigen9EigenBaseINS_5BlockIKNS_6MatrixIdLin1ELi1ELi0ELin1ELi1EEELin1ELi1ELb1EEEE4sizeEv, symObjAddr: 0x5B30, symBinAddr: 0x1000063E0, symSize: 0x44 }
  - { offsetInCU: 0x14F19E, offset: 0x14F19E, size: 0x8, addend: 0x0, symName: __ZN5Eigen8internal11dot_nocheckINS_5BlockIKNS_6MatrixIdLin1ELin1ELi0ELin1ELin1EEELi1ELin1ELb0EEENS2_IKNS3_IdLin1ELi1ELi0ELin1ELi1EEELin1ELi1ELb1EEELb1EE3runERKNS_10MatrixBaseIS6_EERKNSB_IS9_EE, symObjAddr: 0x5B74, symBinAddr: 0x100006424, symSize: 0x78 }
  - { offsetInCU: 0x14F1CF, offset: 0x14F1CF, size: 0x8, addend: 0x0, symName: __ZNK5Eigen9EigenBaseINS_5BlockIKNS_6MatrixIdLin1ELin1ELi0ELin1ELin1EEELi1ELin1ELb0EEEE4rowsEv, symObjAddr: 0x5BEC, symBinAddr: 0x10000649C, symSize: 0x28 }
  - { offsetInCU: 0x14F1F5, offset: 0x14F1F5, size: 0x8, addend: 0x0, symName: __ZNK5Eigen9EigenBaseINS_5BlockIKNS_6MatrixIdLin1ELin1ELi0ELin1ELin1EEELi1ELin1ELb0EEEE4colsEv, symObjAddr: 0x5C14, symBinAddr: 0x1000064C4, symSize: 0x28 }
  - { offsetInCU: 0x14F21B, offset: 0x14F21B, size: 0x8, addend: 0x0, symName: __ZNK5Eigen7MapBaseINS_5BlockIKNS_6MatrixIdLin1ELin1ELi0ELin1ELin1EEELi1ELin1ELb0EEELi0EE4rowsEv, symObjAddr: 0x5C3C, symBinAddr: 0x1000064EC, symSize: 0x20 }
  - { offsetInCU: 0x14F241, offset: 0x14F241, size: 0x8, addend: 0x0, symName: __ZNK5Eigen7MapBaseINS_5BlockIKNS_6MatrixIdLin1ELin1ELi0ELin1ELin1EEELi1ELin1ELb0EEELi0EE4colsEv, symObjAddr: 0x5C5C, symBinAddr: 0x10000650C, symSize: 0x28 }
  - { offsetInCU: 0x14F267, offset: 0x14F267, size: 0x8, addend: 0x0, symName: __ZNK5Eigen9EigenBaseINS_5BlockIKNS_6MatrixIdLin1ELi1ELi0ELin1ELi1EEELin1ELi1ELb1EEEE4rowsEv, symObjAddr: 0x5C84, symBinAddr: 0x100006534, symSize: 0x38 }
  - { offsetInCU: 0x14F28D, offset: 0x14F28D, size: 0x8, addend: 0x0, symName: __ZNK5Eigen9EigenBaseINS_5BlockIKNS_6MatrixIdLin1ELi1ELi0ELin1ELi1EEELin1ELi1ELb1EEEE4colsEv, symObjAddr: 0x5CBC, symBinAddr: 0x10000656C, symSize: 0x28 }
  - { offsetInCU: 0x14F2B3, offset: 0x14F2B3, size: 0x8, addend: 0x0, symName: __ZNK5Eigen9EigenBaseINS_5BlockIKNS_6MatrixIdLin1ELi1ELi0ELin1ELi1EEELin1ELi1ELb1EEEE7derivedEv, symObjAddr: 0x5CE4, symBinAddr: 0x100006594, symSize: 0x14 }
  - { offsetInCU: 0x14F2D9, offset: 0x14F2D9, size: 0x8, addend: 0x0, symName: __ZNK5Eigen7MapBaseINS_5BlockIKNS_6MatrixIdLin1ELi1ELi0ELin1ELi1EEELin1ELi1ELb1EEELi0EE4rowsEv, symObjAddr: 0x5CF8, symBinAddr: 0x1000065A8, symSize: 0x28 }
  - { offsetInCU: 0x14F2FF, offset: 0x14F2FF, size: 0x8, addend: 0x0, symName: __ZNK5Eigen7MapBaseINS_5BlockIKNS_6MatrixIdLin1ELi1ELi0ELin1ELi1EEELin1ELi1ELb1EEELi0EE4colsEv, symObjAddr: 0x5D20, symBinAddr: 0x1000065D0, symSize: 0x20 }
  - { offsetInCU: 0x14F325, offset: 0x14F325, size: 0x8, addend: 0x0, symName: __ZNK5Eigen9DenseBaseINS_5BlockIKNS_6MatrixIdLin1ELin1ELi0ELin1ELin1EEELi1ELin1ELb0EEEE9transposeEv, symObjAddr: 0x5D40, symBinAddr: 0x1000065F0, symSize: 0x34 }
  - { offsetInCU: 0x14F34D, offset: 0x14F34D, size: 0x8, addend: 0x0, symName: __ZNK5Eigen10MatrixBaseINS_9TransposeIKNS_5BlockIKNS_6MatrixIdLin1ELin1ELi0ELin1ELin1EEELi1ELin1ELb0EEEEEE10binaryExprINS_8internal22scalar_conj_product_opIddEENS2_IKNS3_IdLin1ELi1ELi0ELin1ELi1EEELin1ELi1ELb1EEEEEKNS_13CwiseBinaryOpIT_KS8_KT0_EERKNS0_ISK_EERKSI_, symObjAddr: 0x5D74, symBinAddr: 0x100006624, symSize: 0x54 }
  - { offsetInCU: 0x14F3A1, offset: 0x14F3A1, size: 0x8, addend: 0x0, symName: __ZN5Eigen8internal22scalar_conj_product_opIddEC1Ev, symObjAddr: 0x5DC8, symBinAddr: 0x100006678, symSize: 0x2C }
  - { offsetInCU: 0x14F3CB, offset: 0x14F3CB, size: 0x8, addend: 0x0, symName: __ZNK5Eigen9DenseBaseINS_13CwiseBinaryOpINS_8internal22scalar_conj_product_opIddEEKNS_9TransposeIKNS_5BlockIKNS_6MatrixIdLin1ELin1ELi0ELin1ELin1EEELi1ELin1ELb0EEEEEKNS6_IKNS7_IdLin1ELi1ELi0ELin1ELi1EEELin1ELi1ELb1EEEEEE3sumEv, symObjAddr: 0x5DF4, symBinAddr: 0x1000066A4, symSize: 0x74 }
  - { offsetInCU: 0x14F3F4, offset: 0x14F3F4, size: 0x8, addend: 0x0, symName: __ZN5Eigen9TransposeIKNS_5BlockIKNS_6MatrixIdLin1ELin1ELi0ELin1ELin1EEELi1ELin1ELb0EEEEC1ERS6_, symObjAddr: 0x5E68, symBinAddr: 0x100006718, symSize: 0x34 }
  - { offsetInCU: 0x14F42C, offset: 0x14F42C, size: 0x8, addend: 0x0, symName: __ZN5Eigen9TransposeIKNS_5BlockIKNS_6MatrixIdLin1ELin1ELi0ELin1ELin1EEELi1ELin1ELb0EEEEC2ERS6_, symObjAddr: 0x5E9C, symBinAddr: 0x10000674C, symSize: 0x40 }
  - { offsetInCU: 0x14F464, offset: 0x14F464, size: 0x8, addend: 0x0, symName: __ZN5Eigen13TransposeImplIKNS_5BlockIKNS_6MatrixIdLin1ELin1ELi0ELin1ELin1EEELi1ELin1ELb0EEENS_5DenseEEC2Ev, symObjAddr: 0x5EDC, symBinAddr: 0x10000678C, symSize: 0x2C }
  - { offsetInCU: 0x14F48E, offset: 0x14F48E, size: 0x8, addend: 0x0, symName: __ZN5Eigen10MatrixBaseINS_9TransposeIKNS_5BlockIKNS_6MatrixIdLin1ELin1ELi0ELin1ELin1EEELi1ELin1ELb0EEEEEEC2Ev, symObjAddr: 0x5F08, symBinAddr: 0x1000067B8, symSize: 0x2C }
  - { offsetInCU: 0x14F4B8, offset: 0x14F4B8, size: 0x8, addend: 0x0, symName: __ZN5Eigen9DenseBaseINS_9TransposeIKNS_5BlockIKNS_6MatrixIdLin1ELin1ELi0ELin1ELin1EEELi1ELin1ELb0EEEEEEC2Ev, symObjAddr: 0x5F34, symBinAddr: 0x1000067E4, symSize: 0x14 }
  - { offsetInCU: 0x14F4E2, offset: 0x14F4E2, size: 0x8, addend: 0x0, symName: __ZNK5Eigen9EigenBaseINS_9TransposeIKNS_5BlockIKNS_6MatrixIdLin1ELin1ELi0ELin1ELin1EEELi1ELin1ELb0EEEEEE7derivedEv, symObjAddr: 0x5F48, symBinAddr: 0x1000067F8, symSize: 0x14 }
  - { offsetInCU: 0x14F508, offset: 0x14F508, size: 0x8, addend: 0x0, symName: __ZN5Eigen13CwiseBinaryOpINS_8internal22scalar_conj_product_opIddEEKNS_9TransposeIKNS_5BlockIKNS_6MatrixIdLin1ELin1ELi0ELin1ELin1EEELi1ELin1ELb0EEEEEKNS5_IKNS6_IdLin1ELi1ELi0ELin1ELi1EEELin1ELi1ELb1EEEEC1ERSC_RSG_RKS3_, symObjAddr: 0x5F5C, symBinAddr: 0x10000680C, symSize: 0x44 }
  - { offsetInCU: 0x14F55C, offset: 0x14F55C, size: 0x8, addend: 0x0, symName: __ZN5Eigen13CwiseBinaryOpINS_8internal22scalar_conj_product_opIddEEKNS_9TransposeIKNS_5BlockIKNS_6MatrixIdLin1ELin1ELi0ELin1ELin1EEELi1ELin1ELb0EEEEEKNS5_IKNS6_IdLin1ELi1ELi0ELin1ELi1EEELin1ELi1ELb1EEEEC2ERSC_RSG_RKS3_, symObjAddr: 0x5FA0, symBinAddr: 0x100006850, symSize: 0x104 }
  - { offsetInCU: 0x14F5B5, offset: 0x14F5B5, size: 0x8, addend: 0x0, symName: __ZN5Eigen17CwiseBinaryOpImplINS_8internal22scalar_conj_product_opIddEEKNS_9TransposeIKNS_5BlockIKNS_6MatrixIdLin1ELin1ELi0ELin1ELin1EEELi1ELin1ELb0EEEEEKNS5_IKNS6_IdLin1ELi1ELi0ELin1ELi1EEELin1ELi1ELb1EEENS_5DenseEEC2Ev, symObjAddr: 0x60A4, symBinAddr: 0x100006954, symSize: 0x2C }
  - { offsetInCU: 0x14F5E1, offset: 0x14F5E1, size: 0x8, addend: 0x0, symName: __ZN5Eigen8internal22scalar_conj_product_opIddEC1ERKS2_, symObjAddr: 0x60D0, symBinAddr: 0x100006980, symSize: 0x34 }
  - { offsetInCU: 0x14F616, offset: 0x14F616, size: 0x8, addend: 0x0, symName: __ZNK5Eigen9TransposeIKNS_5BlockIKNS_6MatrixIdLin1ELin1ELi0ELin1ELin1EEELi1ELin1ELb0EEEE4rowsEv, symObjAddr: 0x6104, symBinAddr: 0x1000069B4, symSize: 0x24 }
  - { offsetInCU: 0x14F63C, offset: 0x14F63C, size: 0x8, addend: 0x0, symName: __ZNK5Eigen9TransposeIKNS_5BlockIKNS_6MatrixIdLin1ELin1ELi0ELin1ELin1EEELi1ELin1ELb0EEEE4colsEv, symObjAddr: 0x6128, symBinAddr: 0x1000069D8, symSize: 0x24 }
  - { offsetInCU: 0x14F662, offset: 0x14F662, size: 0x8, addend: 0x0, symName: __ZN5Eigen10MatrixBaseINS_13CwiseBinaryOpINS_8internal22scalar_conj_product_opIddEEKNS_9TransposeIKNS_5BlockIKNS_6MatrixIdLin1ELin1ELi0ELin1ELin1EEELi1ELin1ELb0EEEEEKNS6_IKNS7_IdLin1ELi1ELi0ELin1ELi1EEELin1ELi1ELb1EEEEEEC2Ev, symObjAddr: 0x614C, symBinAddr: 0x1000069FC, symSize: 0x2C }
  - { offsetInCU: 0x14F68C, offset: 0x14F68C, size: 0x8, addend: 0x0, symName: __ZN5Eigen9DenseBaseINS_13CwiseBinaryOpINS_8internal22scalar_conj_product_opIddEEKNS_9TransposeIKNS_5BlockIKNS_6MatrixIdLin1ELin1ELi0ELin1ELin1EEELi1ELin1ELb0EEEEEKNS6_IKNS7_IdLin1ELi1ELi0ELin1ELi1EEELin1ELi1ELb1EEEEEEC2Ev, symObjAddr: 0x6178, symBinAddr: 0x100006A28, symSize: 0x14 }
  - { offsetInCU: 0x14F6B6, offset: 0x14F6B6, size: 0x8, addend: 0x0, symName: __ZN5Eigen8internal22scalar_conj_product_opIddEC2ERKS2_, symObjAddr: 0x618C, symBinAddr: 0x100006A3C, symSize: 0x18 }
  - { offsetInCU: 0x14F6EB, offset: 0x14F6EB, size: 0x8, addend: 0x0, symName: __ZN5Eigen8internal22scalar_conj_product_opIddEC2Ev, symObjAddr: 0x61A4, symBinAddr: 0x100006A54, symSize: 0x14 }
  - { offsetInCU: 0x14F715, offset: 0x14F715, size: 0x8, addend: 0x0, symName: __ZNK5Eigen9EigenBaseINS_13CwiseBinaryOpINS_8internal22scalar_conj_product_opIddEEKNS_9TransposeIKNS_5BlockIKNS_6MatrixIdLin1ELin1ELi0ELin1ELin1EEELi1ELin1ELb0EEEEEKNS6_IKNS7_IdLin1ELi1ELi0ELin1ELi1EEELin1ELi1ELb1EEEEEE4sizeEv, symObjAddr: 0x61B8, symBinAddr: 0x100006A68, symSize: 0x44 }
  - { offsetInCU: 0x14F73B, offset: 0x14F73B, size: 0x8, addend: 0x0, symName: __ZNK5Eigen9EigenBaseINS_13CwiseBinaryOpINS_8internal22scalar_conj_product_opIddEEKNS_9TransposeIKNS_5BlockIKNS_6MatrixIdLin1ELin1ELi0ELin1ELin1EEELi1ELin1ELb0EEEEEKNS6_IKNS7_IdLin1ELi1ELi0ELin1ELi1EEELin1ELi1ELb1EEEEEE7derivedEv, symObjAddr: 0x61FC, symBinAddr: 0x100006AAC, symSize: 0x14 }
  - { offsetInCU: 0x14F761, offset: 0x14F761, size: 0x8, addend: 0x0, symName: __ZNK5Eigen9DenseBaseINS_13CwiseBinaryOpINS_8internal22scalar_conj_product_opIddEEKNS_9TransposeIKNS_5BlockIKNS_6MatrixIdLin1ELin1ELi0ELin1ELin1EEELi1ELin1ELb0EEEEEKNS6_IKNS7_IdLin1ELi1ELi0ELin1ELi1EEELin1ELi1ELb1EEEEEE5reduxINS2_13scalar_sum_opIddEEEEdRKT_, symObjAddr: 0x6210, symBinAddr: 0x100006AC0, symSize: 0x10C }
  - { offsetInCU: 0x14F7BD, offset: 0x14F7BD, size: 0x8, addend: 0x0, symName: __ZNK5Eigen9EigenBaseINS_13CwiseBinaryOpINS_8internal22scalar_conj_product_opIddEEKNS_9TransposeIKNS_5BlockIKNS_6MatrixIdLin1ELin1ELi0ELin1ELin1EEELi1ELin1ELb0EEEEEKNS6_IKNS7_IdLin1ELi1ELi0ELin1ELi1EEELin1ELi1ELb1EEEEEE4rowsEv, symObjAddr: 0x631C, symBinAddr: 0x100006BCC, symSize: 0x38 }
  - { offsetInCU: 0x14F7E3, offset: 0x14F7E3, size: 0x8, addend: 0x0, symName: __ZNK5Eigen9EigenBaseINS_13CwiseBinaryOpINS_8internal22scalar_conj_product_opIddEEKNS_9TransposeIKNS_5BlockIKNS_6MatrixIdLin1ELin1ELi0ELin1ELin1EEELi1ELin1ELb0EEEEEKNS6_IKNS7_IdLin1ELi1ELi0ELin1ELi1EEELin1ELi1ELb1EEEEEE4colsEv, symObjAddr: 0x6354, symBinAddr: 0x100006C04, symSize: 0x38 }
  - { offsetInCU: 0x14F809, offset: 0x14F809, size: 0x8, addend: 0x0, symName: __ZNK5Eigen13CwiseBinaryOpINS_8internal22scalar_conj_product_opIddEEKNS_9TransposeIKNS_5BlockIKNS_6MatrixIdLin1ELin1ELi0ELin1ELin1EEELi1ELin1ELb0EEEEEKNS5_IKNS6_IdLin1ELi1ELi0ELin1ELi1EEELin1ELi1ELb1EEEE4rowsEv, symObjAddr: 0x638C, symBinAddr: 0x100006C3C, symSize: 0x28 }
  - { offsetInCU: 0x14F82F, offset: 0x14F82F, size: 0x8, addend: 0x0, symName: __ZNK5Eigen13CwiseBinaryOpINS_8internal22scalar_conj_product_opIddEEKNS_9TransposeIKNS_5BlockIKNS_6MatrixIdLin1ELin1ELi0ELin1ELin1EEELi1ELin1ELb0EEEEEKNS5_IKNS6_IdLin1ELi1ELi0ELin1ELi1EEELin1ELi1ELb1EEEE4colsEv, symObjAddr: 0x63B4, symBinAddr: 0x100006C64, symSize: 0x24 }
  - { offsetInCU: 0x14F936, offset: 0x14F936, size: 0x8, addend: 0x0, symName: __ZN5Eigen8internal15redux_evaluatorINS_13CwiseBinaryOpINS0_22scalar_conj_product_opIddEEKNS_9TransposeIKNS_5BlockIKNS_6MatrixIdLin1ELin1ELi0ELin1ELin1EEELi1ELin1ELb0EEEEEKNS6_IKNS7_IdLin1ELi1ELi0ELin1ELi1EEELin1ELi1ELb1EEEEEEC1ERKSI_, symObjAddr: 0x63D8, symBinAddr: 0x100006C88, symSize: 0x34 }
  - { offsetInCU: 0x14F974, offset: 0x14F974, size: 0x8, addend: 0x0, symName: __ZN5Eigen8internal10redux_implINS0_13scalar_sum_opIddEENS0_15redux_evaluatorINS_13CwiseBinaryOpINS0_22scalar_conj_product_opIddEEKNS_9TransposeIKNS_5BlockIKNS_6MatrixIdLin1ELin1ELi0ELin1ELin1EEELi1ELin1ELb0EEEEEKNS9_IKNSA_IdLin1ELi1ELi0ELin1ELi1EEELin1ELi1ELb1EEEEEEELi0ELi0EE3runISL_EEdRKSM_RKS3_RKT_, symObjAddr: 0x640C, symBinAddr: 0x100006CBC, symSize: 0x1E0 }
  - { offsetInCU: 0x14FA1F, offset: 0x14FA1F, size: 0x8, addend: 0x0, symName: __ZN5Eigen8internal15redux_evaluatorINS_13CwiseBinaryOpINS0_22scalar_conj_product_opIddEEKNS_9TransposeIKNS_5BlockIKNS_6MatrixIdLin1ELin1ELi0ELin1ELin1EEELi1ELin1ELb0EEEEEKNS6_IKNS7_IdLin1ELi1ELi0ELin1ELi1EEELin1ELi1ELb1EEEEEED1Ev, symObjAddr: 0x65EC, symBinAddr: 0x100006E9C, symSize: 0x2C }
  - { offsetInCU: 0x14FA4C, offset: 0x14FA4C, size: 0x8, addend: 0x0, symName: __ZN5Eigen8internal15redux_evaluatorINS_13CwiseBinaryOpINS0_22scalar_conj_product_opIddEEKNS_9TransposeIKNS_5BlockIKNS_6MatrixIdLin1ELin1ELi0ELin1ELin1EEELi1ELin1ELb0EEEEEKNS6_IKNS7_IdLin1ELi1ELi0ELin1ELi1EEELin1ELi1ELb1EEEEEEC2ERKSI_, symObjAddr: 0x6618, symBinAddr: 0x100006EC8, symSize: 0x34 }
  - { offsetInCU: 0x14FA85, offset: 0x14FA85, size: 0x8, addend: 0x0, symName: __ZN5Eigen8internal9evaluatorINS_13CwiseBinaryOpINS0_22scalar_conj_product_opIddEEKNS_9TransposeIKNS_5BlockIKNS_6MatrixIdLin1ELin1ELi0ELin1ELin1EEELi1ELin1ELb0EEEEEKNS6_IKNS7_IdLin1ELi1ELi0ELin1ELi1EEELin1ELi1ELb1EEEEEEC2ERKSI_, symObjAddr: 0x664C, symBinAddr: 0x100006EFC, symSize: 0x34 }
  - { offsetInCU: 0x14FABE, offset: 0x14FABE, size: 0x8, addend: 0x0, symName: __ZN5Eigen8internal16binary_evaluatorINS_13CwiseBinaryOpINS0_22scalar_conj_product_opIddEEKNS_9TransposeIKNS_5BlockIKNS_6MatrixIdLin1ELin1ELi0ELin1ELin1EEELi1ELin1ELb0EEEEEKNS6_IKNS7_IdLin1ELi1ELi0ELin1ELi1EEELin1ELi1ELb1EEEEENS0_10IndexBasedESJ_ddEC2ERKSI_, symObjAddr: 0x6680, symBinAddr: 0x100006F30, symSize: 0x64 }
  - { offsetInCU: 0x14FAF7, offset: 0x14FAF7, size: 0x8, addend: 0x0, symName: __ZN5Eigen8internal14evaluator_baseINS_13CwiseBinaryOpINS0_22scalar_conj_product_opIddEEKNS_9TransposeIKNS_5BlockIKNS_6MatrixIdLin1ELin1ELi0ELin1ELin1EEELi1ELin1ELb0EEEEEKNS6_IKNS7_IdLin1ELi1ELi0ELin1ELi1EEELin1ELi1ELb1EEEEEEC2Ev, symObjAddr: 0x66E4, symBinAddr: 0x100006F94, symSize: 0x14 }
  - { offsetInCU: 0x14FB21, offset: 0x14FB21, size: 0x8, addend: 0x0, symName: __ZN5Eigen8internal16binary_evaluatorINS_13CwiseBinaryOpINS0_22scalar_conj_product_opIddEEKNS_9TransposeIKNS_5BlockIKNS_6MatrixIdLin1ELin1ELi0ELin1ELin1EEELi1ELin1ELb0EEEEEKNS6_IKNS7_IdLin1ELi1ELi0ELin1ELi1EEELin1ELi1ELb1EEEEENS0_10IndexBasedESJ_ddE4DataC1ERKSI_, symObjAddr: 0x66F8, symBinAddr: 0x100006FA8, symSize: 0x34 }
  - { offsetInCU: 0x14FB5A, offset: 0x14FB5A, size: 0x8, addend: 0x0, symName: __ZN5Eigen8internal14evaluator_baseINS_13CwiseBinaryOpINS0_22scalar_conj_product_opIddEEKNS_9TransposeIKNS_5BlockIKNS_6MatrixIdLin1ELin1ELi0ELin1ELin1EEELi1ELin1ELb0EEEEEKNS6_IKNS7_IdLin1ELi1ELi0ELin1ELi1EEELin1ELi1ELb1EEEEEED2Ev, symObjAddr: 0x672C, symBinAddr: 0x100006FDC, symSize: 0x14 }
  - { offsetInCU: 0x14FB84, offset: 0x14FB84, size: 0x8, addend: 0x0, symName: __ZN5Eigen8internal16binary_evaluatorINS_13CwiseBinaryOpINS0_22scalar_conj_product_opIddEEKNS_9TransposeIKNS_5BlockIKNS_6MatrixIdLin1ELin1ELi0ELin1ELin1EEELi1ELin1ELb0EEEEEKNS6_IKNS7_IdLin1ELi1ELi0ELin1ELi1EEELin1ELi1ELb1EEEEENS0_10IndexBasedESJ_ddE4DataC2ERKSI_, symObjAddr: 0x6740, symBinAddr: 0x100006FF0, symSize: 0xA8 }
  - { offsetInCU: 0x14FBBD, offset: 0x14FBBD, size: 0x8, addend: 0x0, symName: __ZNK5Eigen13CwiseBinaryOpINS_8internal22scalar_conj_product_opIddEEKNS_9TransposeIKNS_5BlockIKNS_6MatrixIdLin1ELin1ELi0ELin1ELin1EEELi1ELin1ELb0EEEEEKNS5_IKNS6_IdLin1ELi1ELi0ELin1ELi1EEELin1ELi1ELb1EEEE7functorEv, symObjAddr: 0x67E8, symBinAddr: 0x100007098, symSize: 0x18 }
  - { offsetInCU: 0x14FBE3, offset: 0x14FBE3, size: 0x8, addend: 0x0, symName: __ZNK5Eigen13CwiseBinaryOpINS_8internal22scalar_conj_product_opIddEEKNS_9TransposeIKNS_5BlockIKNS_6MatrixIdLin1ELin1ELi0ELin1ELin1EEELi1ELin1ELb0EEEEEKNS5_IKNS6_IdLin1ELi1ELi0ELin1ELi1EEELin1ELi1ELb1EEEE3lhsEv, symObjAddr: 0x6800, symBinAddr: 0x1000070B0, symSize: 0x14 }
  - { offsetInCU: 0x14FC09, offset: 0x14FC09, size: 0x8, addend: 0x0, symName: __ZN5Eigen8internal9evaluatorIKNS_9TransposeIKNS_5BlockIKNS_6MatrixIdLin1ELin1ELi0ELin1ELin1EEELi1ELin1ELb0EEEEEEC1ERSA_, symObjAddr: 0x6814, symBinAddr: 0x1000070C4, symSize: 0x34 }
  - { offsetInCU: 0x14FC41, offset: 0x14FC41, size: 0x8, addend: 0x0, symName: __ZNK5Eigen13CwiseBinaryOpINS_8internal22scalar_conj_product_opIddEEKNS_9TransposeIKNS_5BlockIKNS_6MatrixIdLin1ELin1ELi0ELin1ELin1EEELi1ELin1ELb0EEEEEKNS5_IKNS6_IdLin1ELi1ELi0ELin1ELi1EEELin1ELi1ELb1EEEE3rhsEv, symObjAddr: 0x6848, symBinAddr: 0x1000070F8, symSize: 0x18 }
  - { offsetInCU: 0x14FC67, offset: 0x14FC67, size: 0x8, addend: 0x0, symName: __ZN5Eigen8internal9evaluatorIKNS_5BlockIKNS_6MatrixIdLin1ELi1ELi0ELin1ELi1EEELin1ELi1ELb1EEEEC1ERS7_, symObjAddr: 0x6860, symBinAddr: 0x100007110, symSize: 0x34 }
  - { offsetInCU: 0x14FC9F, offset: 0x14FC9F, size: 0x8, addend: 0x0, symName: __ZN5Eigen8internal9evaluatorIKNS_9TransposeIKNS_5BlockIKNS_6MatrixIdLin1ELin1ELi0ELin1ELin1EEELi1ELin1ELb0EEEEEED1Ev, symObjAddr: 0x6894, symBinAddr: 0x100007144, symSize: 0x2C }
  - { offsetInCU: 0x14FCCB, offset: 0x14FCCB, size: 0x8, addend: 0x0, symName: __ZN5Eigen8internal9evaluatorIKNS_9TransposeIKNS_5BlockIKNS_6MatrixIdLin1ELin1ELi0ELin1ELin1EEELi1ELin1ELb0EEEEEEC2ERSA_, symObjAddr: 0x68C0, symBinAddr: 0x100007170, symSize: 0x34 }
  - { offsetInCU: 0x14FD03, offset: 0x14FD03, size: 0x8, addend: 0x0, symName: __ZN5Eigen8internal9evaluatorINS_9TransposeIKNS_5BlockIKNS_6MatrixIdLin1ELin1ELi0ELin1ELin1EEELi1ELin1ELb0EEEEEEC2ERKS9_, symObjAddr: 0x68F4, symBinAddr: 0x1000071A4, symSize: 0x34 }
  - { offsetInCU: 0x14FD3B, offset: 0x14FD3B, size: 0x8, addend: 0x0, symName: __ZN5Eigen8internal15unary_evaluatorINS_9TransposeIKNS_5BlockIKNS_6MatrixIdLin1ELin1ELi0ELin1ELin1EEELi1ELin1ELb0EEEEENS0_10IndexBasedEdEC2ERKS9_, symObjAddr: 0x6928, symBinAddr: 0x1000071D8, symSize: 0x74 }
  - { offsetInCU: 0x14FD74, offset: 0x14FD74, size: 0x8, addend: 0x0, symName: __ZN5Eigen8internal14evaluator_baseINS_9TransposeIKNS_5BlockIKNS_6MatrixIdLin1ELin1ELi0ELin1ELin1EEELi1ELin1ELb0EEEEEEC2Ev, symObjAddr: 0x699C, symBinAddr: 0x10000724C, symSize: 0x14 }
  - { offsetInCU: 0x14FD9E, offset: 0x14FD9E, size: 0x8, addend: 0x0, symName: __ZNK5Eigen9TransposeIKNS_5BlockIKNS_6MatrixIdLin1ELin1ELi0ELin1ELin1EEELi1ELin1ELb0EEEE16nestedExpressionEv, symObjAddr: 0x69B0, symBinAddr: 0x100007260, symSize: 0x14 }
  - { offsetInCU: 0x14FDC4, offset: 0x14FDC4, size: 0x8, addend: 0x0, symName: __ZN5Eigen8internal9evaluatorIKNS_5BlockIKNS_6MatrixIdLin1ELin1ELi0ELin1ELin1EEELi1ELin1ELb0EEEEC1ERS7_, symObjAddr: 0x69C4, symBinAddr: 0x100007274, symSize: 0x34 }
  - { offsetInCU: 0x14FDFC, offset: 0x14FDFC, size: 0x8, addend: 0x0, symName: __ZN5Eigen8internal14evaluator_baseINS_9TransposeIKNS_5BlockIKNS_6MatrixIdLin1ELin1ELi0ELin1ELin1EEELi1ELin1ELb0EEEEEED2Ev, symObjAddr: 0x69F8, symBinAddr: 0x1000072A8, symSize: 0x14 }
  - { offsetInCU: 0x14FE26, offset: 0x14FE26, size: 0x8, addend: 0x0, symName: __ZN5Eigen8internal9evaluatorIKNS_5BlockIKNS_6MatrixIdLin1ELin1ELi0ELin1ELin1EEELi1ELin1ELb0EEEEC2ERS7_, symObjAddr: 0x6A0C, symBinAddr: 0x1000072BC, symSize: 0x34 }
  - { offsetInCU: 0x14FE5E, offset: 0x14FE5E, size: 0x8, addend: 0x0, symName: __ZN5Eigen8internal9evaluatorINS_5BlockIKNS_6MatrixIdLin1ELin1ELi0ELin1ELin1EEELi1ELin1ELb0EEEEC2ERKS6_, symObjAddr: 0x6A40, symBinAddr: 0x1000072F0, symSize: 0x34 }
  - { offsetInCU: 0x14FE97, offset: 0x14FE97, size: 0x8, addend: 0x0, symName: __ZN5Eigen8internal15block_evaluatorIKNS_6MatrixIdLin1ELin1ELi0ELin1ELin1EEELi1ELin1ELb0ELb1EEC2ERKNS_5BlockIS4_Li1ELin1ELb0EEE, symObjAddr: 0x6A74, symBinAddr: 0x100007324, symSize: 0xDC }
  - { offsetInCU: 0x14FED0, offset: 0x14FED0, size: 0x8, addend: 0x0, symName: __ZN5Eigen8internal17mapbase_evaluatorINS_5BlockIKNS_6MatrixIdLin1ELin1ELi0ELin1ELin1EEELi1ELin1ELb0EEENS3_IdLi1ELin1ELi1ELi1ELin1EEEEC2ERKS6_, symObjAddr: 0x6B50, symBinAddr: 0x100007400, symSize: 0xB0 }
  - { offsetInCU: 0x14FF09, offset: 0x14FF09, size: 0x8, addend: 0x0, symName: __ZNK5Eigen7MapBaseINS_5BlockIKNS_6MatrixIdLin1ELin1ELi0ELin1ELin1EEELi1ELin1ELb0EEELi0EE4dataEv, symObjAddr: 0x6C00, symBinAddr: 0x1000074B0, symSize: 0x18 }
  - { offsetInCU: 0x14FF2F, offset: 0x14FF2F, size: 0x8, addend: 0x0, symName: __ZN5Eigen8internal17mapbase_evaluatorINS_5BlockIKNS_6MatrixIdLin1ELin1ELi0ELin1ELin1EEELi1ELin1ELb0EEENS3_IdLi1ELin1ELi1ELi1ELin1EEEED2Ev, symObjAddr: 0x6C18, symBinAddr: 0x1000074C8, symSize: 0x2C }
  - { offsetInCU: 0x14FF5C, offset: 0x14FF5C, size: 0x8, addend: 0x0, symName: __ZN5Eigen8internal14evaluator_baseINS_5BlockIKNS_6MatrixIdLin1ELin1ELi0ELin1ELin1EEELi1ELin1ELb0EEEEC2Ev, symObjAddr: 0x6C44, symBinAddr: 0x1000074F4, symSize: 0x14 }
  - { offsetInCU: 0x14FF86, offset: 0x14FF86, size: 0x8, addend: 0x0, symName: __ZNK5Eigen8internal15BlockImpl_denseIKNS_6MatrixIdLin1ELin1ELi0ELin1ELin1EEELi1ELin1ELb0ELb1EE11innerStrideEv, symObjAddr: 0x6C58, symBinAddr: 0x100007508, symSize: 0x28 }
  - { offsetInCU: 0x14FFAC, offset: 0x14FFAC, size: 0x8, addend: 0x0, symName: __ZNK5Eigen8internal15BlockImpl_denseIKNS_6MatrixIdLin1ELin1ELi0ELin1ELin1EEELi1ELin1ELb0ELb1EE11outerStrideEv, symObjAddr: 0x6C80, symBinAddr: 0x100007530, symSize: 0x28 }
  - { offsetInCU: 0x14FFD2, offset: 0x14FFD2, size: 0x8, addend: 0x0, symName: __ZN5Eigen8internal14evaluator_baseINS_5BlockIKNS_6MatrixIdLin1ELin1ELi0ELin1ELin1EEELi1ELin1ELb0EEEED2Ev, symObjAddr: 0x6CA8, symBinAddr: 0x100007558, symSize: 0x14 }
  - { offsetInCU: 0x14FFFC, offset: 0x14FFFC, size: 0x8, addend: 0x0, symName: __ZNK5Eigen6MatrixIdLin1ELin1ELi0ELin1ELin1EE11outerStrideEv, symObjAddr: 0x6CBC, symBinAddr: 0x10000756C, symSize: 0x34 }
  - { offsetInCU: 0x150022, offset: 0x150022, size: 0x8, addend: 0x0, symName: __ZNK5Eigen9DenseBaseINS_6MatrixIdLin1ELin1ELi0ELin1ELin1EEEE9innerSizeEv, symObjAddr: 0x6CF0, symBinAddr: 0x1000075A0, symSize: 0x24 }
  - { offsetInCU: 0x150048, offset: 0x150048, size: 0x8, addend: 0x0, symName: __ZNK5Eigen9EigenBaseINS_6MatrixIdLin1ELin1ELi0ELin1ELin1EEEE4rowsEv, symObjAddr: 0x6D14, symBinAddr: 0x1000075C4, symSize: 0x28 }
  - { offsetInCU: 0x15006E, offset: 0x15006E, size: 0x8, addend: 0x0, symName: __ZN5Eigen8internal9evaluatorIKNS_5BlockIKNS_6MatrixIdLin1ELi1ELi0ELin1ELi1EEELin1ELi1ELb1EEEEC2ERS7_, symObjAddr: 0x6D3C, symBinAddr: 0x1000075EC, symSize: 0x34 }
  - { offsetInCU: 0x1500A6, offset: 0x1500A6, size: 0x8, addend: 0x0, symName: __ZN5Eigen8internal9evaluatorINS_5BlockIKNS_6MatrixIdLin1ELi1ELi0ELin1ELi1EEELin1ELi1ELb1EEEEC2ERKS6_, symObjAddr: 0x6D70, symBinAddr: 0x100007620, symSize: 0x34 }
  - { offsetInCU: 0x1500DF, offset: 0x1500DF, size: 0x8, addend: 0x0, symName: __ZN5Eigen8internal15block_evaluatorIKNS_6MatrixIdLin1ELi1ELi0ELin1ELi1EEELin1ELi1ELb1ELb1EEC2ERKNS_5BlockIS4_Lin1ELi1ELb1EEE, symObjAddr: 0x6DA4, symBinAddr: 0x100007654, symSize: 0xDC }
  - { offsetInCU: 0x150118, offset: 0x150118, size: 0x8, addend: 0x0, symName: __ZN5Eigen8internal17mapbase_evaluatorINS_5BlockIKNS_6MatrixIdLin1ELi1ELi0ELin1ELi1EEELin1ELi1ELb1EEES4_EC2ERKS6_, symObjAddr: 0x6E80, symBinAddr: 0x100007730, symSize: 0xB0 }
  - { offsetInCU: 0x150151, offset: 0x150151, size: 0x8, addend: 0x0, symName: __ZNK5Eigen7MapBaseINS_5BlockIKNS_6MatrixIdLin1ELi1ELi0ELin1ELi1EEELin1ELi1ELb1EEELi0EE4dataEv, symObjAddr: 0x6F30, symBinAddr: 0x1000077E0, symSize: 0x18 }
  - { offsetInCU: 0x150177, offset: 0x150177, size: 0x8, addend: 0x0, symName: __ZN5Eigen8internal17mapbase_evaluatorINS_5BlockIKNS_6MatrixIdLin1ELi1ELi0ELin1ELi1EEELin1ELi1ELb1EEES4_ED2Ev, symObjAddr: 0x6F48, symBinAddr: 0x1000077F8, symSize: 0x2C }
  - { offsetInCU: 0x1501A4, offset: 0x1501A4, size: 0x8, addend: 0x0, symName: __ZN5Eigen8internal14evaluator_baseINS_5BlockIKNS_6MatrixIdLin1ELi1ELi0ELin1ELi1EEELin1ELi1ELb1EEEEC2Ev, symObjAddr: 0x6F74, symBinAddr: 0x100007824, symSize: 0x14 }
  - { offsetInCU: 0x1501CE, offset: 0x1501CE, size: 0x8, addend: 0x0, symName: __ZNK5Eigen8internal15BlockImpl_denseIKNS_6MatrixIdLin1ELi1ELi0ELin1ELi1EEELin1ELi1ELb1ELb1EE11innerStrideEv, symObjAddr: 0x6F88, symBinAddr: 0x100007838, symSize: 0x28 }
  - { offsetInCU: 0x1501F4, offset: 0x1501F4, size: 0x8, addend: 0x0, symName: __ZNK5Eigen8internal15BlockImpl_denseIKNS_6MatrixIdLin1ELi1ELi0ELin1ELi1EEELin1ELi1ELb1ELb1EE11outerStrideEv, symObjAddr: 0x6FB0, symBinAddr: 0x100007860, symSize: 0x28 }
  - { offsetInCU: 0x15021A, offset: 0x15021A, size: 0x8, addend: 0x0, symName: __ZN5Eigen8internal14evaluator_baseINS_5BlockIKNS_6MatrixIdLin1ELi1ELi0ELin1ELi1EEELin1ELi1ELb1EEEED2Ev, symObjAddr: 0x6FD8, symBinAddr: 0x100007888, symSize: 0x14 }
  - { offsetInCU: 0x150244, offset: 0x150244, size: 0x8, addend: 0x0, symName: __ZNK5Eigen6MatrixIdLin1ELi1ELi0ELin1ELi1EE11innerStrideEv, symObjAddr: 0x6FEC, symBinAddr: 0x10000789C, symSize: 0x14 }
  - { offsetInCU: 0x15026A, offset: 0x15026A, size: 0x8, addend: 0x0, symName: __ZNK5Eigen6MatrixIdLin1ELi1ELi0ELin1ELi1EE11outerStrideEv, symObjAddr: 0x7000, symBinAddr: 0x1000078B0, symSize: 0x34 }
  - { offsetInCU: 0x150290, offset: 0x150290, size: 0x8, addend: 0x0, symName: __ZNK5Eigen9DenseBaseINS_6MatrixIdLin1ELi1ELi0ELin1ELi1EEEE9innerSizeEv, symObjAddr: 0x7034, symBinAddr: 0x1000078E4, symSize: 0x24 }
  - { offsetInCU: 0x1502B6, offset: 0x1502B6, size: 0x8, addend: 0x0, symName: __ZN5Eigen8internal9evaluatorIKNS_9TransposeIKNS_5BlockIKNS_6MatrixIdLin1ELin1ELi0ELin1ELin1EEELi1ELin1ELb0EEEEEED2Ev, symObjAddr: 0x7058, symBinAddr: 0x100007908, symSize: 0x2C }
  - { offsetInCU: 0x1502E2, offset: 0x1502E2, size: 0x8, addend: 0x0, symName: __ZN5Eigen8internal9evaluatorINS_9TransposeIKNS_5BlockIKNS_6MatrixIdLin1ELin1ELi0ELin1ELin1EEELi1ELin1ELb0EEEEEED2Ev, symObjAddr: 0x7084, symBinAddr: 0x100007934, symSize: 0x2C }
  - { offsetInCU: 0x15030E, offset: 0x15030E, size: 0x8, addend: 0x0, symName: __ZN5Eigen8internal15unary_evaluatorINS_9TransposeIKNS_5BlockIKNS_6MatrixIdLin1ELin1ELi0ELin1ELin1EEELi1ELin1ELb0EEEEENS0_10IndexBasedEdED2Ev, symObjAddr: 0x70B0, symBinAddr: 0x100007960, symSize: 0x34 }
  - { offsetInCU: 0x15033A, offset: 0x15033A, size: 0x8, addend: 0x0, symName: __ZN5Eigen8internal9evaluatorIKNS_5BlockIKNS_6MatrixIdLin1ELin1ELi0ELin1ELin1EEELi1ELin1ELb0EEEED1Ev, symObjAddr: 0x70E4, symBinAddr: 0x100007994, symSize: 0x2C }
  - { offsetInCU: 0x150366, offset: 0x150366, size: 0x8, addend: 0x0, symName: __ZN5Eigen8internal9evaluatorIKNS_5BlockIKNS_6MatrixIdLin1ELin1ELi0ELin1ELin1EEELi1ELin1ELb0EEEED2Ev, symObjAddr: 0x7110, symBinAddr: 0x1000079C0, symSize: 0x2C }
  - { offsetInCU: 0x150392, offset: 0x150392, size: 0x8, addend: 0x0, symName: __ZN5Eigen8internal9evaluatorINS_5BlockIKNS_6MatrixIdLin1ELin1ELi0ELin1ELin1EEELi1ELin1ELb0EEEED2Ev, symObjAddr: 0x713C, symBinAddr: 0x1000079EC, symSize: 0x2C }
  - { offsetInCU: 0x1503BF, offset: 0x1503BF, size: 0x8, addend: 0x0, symName: __ZN5Eigen8internal15block_evaluatorIKNS_6MatrixIdLin1ELin1ELi0ELin1ELin1EEELi1ELin1ELb0ELb1EED2Ev, symObjAddr: 0x7168, symBinAddr: 0x100007A18, symSize: 0x2C }
  - { offsetInCU: 0x1503EC, offset: 0x1503EC, size: 0x8, addend: 0x0, symName: __ZNK5Eigen8internal15redux_evaluatorINS_13CwiseBinaryOpINS0_22scalar_conj_product_opIddEEKNS_9TransposeIKNS_5BlockIKNS_6MatrixIdLin1ELin1ELi0ELin1ELin1EEELi1ELin1ELb0EEEEEKNS6_IKNS7_IdLin1ELi1ELi0ELin1ELi1EEELin1ELi1ELb1EEEEEE17coeffByOuterInnerEll, symObjAddr: 0x7194, symBinAddr: 0x100007A44, symSize: 0x34 }
  - { offsetInCU: 0x150430, offset: 0x150430, size: 0x8, addend: 0x0, symName: __ZNK5Eigen9DenseBaseINS_13CwiseBinaryOpINS_8internal22scalar_conj_product_opIddEEKNS_9TransposeIKNS_5BlockIKNS_6MatrixIdLin1ELin1ELi0ELin1ELin1EEELi1ELin1ELb0EEEEEKNS6_IKNS7_IdLin1ELi1ELi0ELin1ELi1EEELin1ELi1ELb1EEEEEE9innerSizeEv, symObjAddr: 0x71C8, symBinAddr: 0x100007A78, symSize: 0x24 }
  - { offsetInCU: 0x150456, offset: 0x150456, size: 0x8, addend: 0x0, symName: __ZNK5Eigen8internal13scalar_sum_opIddEclERKdS4_, symObjAddr: 0x71EC, symBinAddr: 0x100007A9C, symSize: 0x2C }
  - { offsetInCU: 0x150498, offset: 0x150498, size: 0x8, addend: 0x0, symName: __ZNK5Eigen9DenseBaseINS_13CwiseBinaryOpINS_8internal22scalar_conj_product_opIddEEKNS_9TransposeIKNS_5BlockIKNS_6MatrixIdLin1ELin1ELi0ELin1ELin1EEELi1ELin1ELb0EEEEEKNS6_IKNS7_IdLin1ELi1ELi0ELin1ELi1EEELin1ELi1ELb1EEEEEE9outerSizeEv, symObjAddr: 0x7218, symBinAddr: 0x100007AC8, symSize: 0x14 }
  - { offsetInCU: 0x1504BE, offset: 0x1504BE, size: 0x8, addend: 0x0, symName: __ZNK5Eigen8internal16binary_evaluatorINS_13CwiseBinaryOpINS0_22scalar_conj_product_opIddEEKNS_9TransposeIKNS_5BlockIKNS_6MatrixIdLin1ELin1ELi0ELin1ELin1EEELi1ELin1ELb0EEEEEKNS6_IKNS7_IdLin1ELi1ELi0ELin1ELi1EEELin1ELi1ELb1EEEEENS0_10IndexBasedESJ_ddE5coeffEll, symObjAddr: 0x722C, symBinAddr: 0x100007ADC, symSize: 0x7C }
  - { offsetInCU: 0x150502, offset: 0x150502, size: 0x8, addend: 0x0, symName: __ZNK5Eigen8internal16binary_evaluatorINS_13CwiseBinaryOpINS0_22scalar_conj_product_opIddEEKNS_9TransposeIKNS_5BlockIKNS_6MatrixIdLin1ELin1ELi0ELin1ELin1EEELi1ELin1ELb0EEEEEKNS6_IKNS7_IdLin1ELi1ELi0ELin1ELi1EEELin1ELi1ELb1EEEEENS0_10IndexBasedESJ_ddE4Data4funcEv, symObjAddr: 0x72A8, symBinAddr: 0x100007B58, symSize: 0x14 }
  - { offsetInCU: 0x150528, offset: 0x150528, size: 0x8, addend: 0x0, symName: __ZNK5Eigen8internal22scalar_conj_product_opIddEclERKdS4_, symObjAddr: 0x72BC, symBinAddr: 0x100007B6C, symSize: 0x34 }
  - { offsetInCU: 0x15056A, offset: 0x15056A, size: 0x8, addend: 0x0, symName: __ZNK5Eigen8internal15unary_evaluatorINS_9TransposeIKNS_5BlockIKNS_6MatrixIdLin1ELin1ELi0ELin1ELin1EEELi1ELin1ELb0EEEEENS0_10IndexBasedEdE5coeffEll, symObjAddr: 0x72F0, symBinAddr: 0x100007BA0, symSize: 0x34 }
  - { offsetInCU: 0x1505AE, offset: 0x1505AE, size: 0x8, addend: 0x0, symName: __ZNK5Eigen8internal17mapbase_evaluatorINS_5BlockIKNS_6MatrixIdLin1ELi1ELi0ELin1ELi1EEELin1ELi1ELb1EEES4_E5coeffEll, symObjAddr: 0x7324, symBinAddr: 0x100007BD4, symSize: 0x78 }
  - { offsetInCU: 0x1505FC, offset: 0x1505FC, size: 0x8, addend: 0x0, symName: __ZNK5Eigen8internal11conj_helperIddLb0ELb0EE4pmulERKdS4_, symObjAddr: 0x739C, symBinAddr: 0x100007C4C, symSize: 0x4C }
  - { offsetInCU: 0x150648, offset: 0x150648, size: 0x8, addend: 0x0, symName: __ZNK5Eigen8internal7conj_ifILb0EE5pconjIdEERKT_S6_, symObjAddr: 0x7410, symBinAddr: 0x100007CC0, symSize: 0x18 }
  - { offsetInCU: 0x150685, offset: 0x150685, size: 0x8, addend: 0x0, symName: __ZNK5Eigen8internal17mapbase_evaluatorINS_5BlockIKNS_6MatrixIdLin1ELin1ELi0ELin1ELin1EEELi1ELin1ELb0EEENS3_IdLi1ELin1ELi1ELi1ELin1EEEE5coeffEll, symObjAddr: 0x7428, symBinAddr: 0x100007CD8, symSize: 0x78 }
  - { offsetInCU: 0x1506C9, offset: 0x1506C9, size: 0x8, addend: 0x0, symName: __ZNK5Eigen8internal17mapbase_evaluatorINS_5BlockIKNS_6MatrixIdLin1ELin1ELi0ELin1ELin1EEELi1ELin1ELb0EEENS3_IdLi1ELin1ELi1ELi1ELin1EEEE9colStrideEv, symObjAddr: 0x74A0, symBinAddr: 0x100007D50, symSize: 0x28 }
  - { offsetInCU: 0x1506EF, offset: 0x1506EF, size: 0x8, addend: 0x0, symName: __ZNK5Eigen8internal17mapbase_evaluatorINS_5BlockIKNS_6MatrixIdLin1ELin1ELi0ELin1ELin1EEELi1ELin1ELb0EEENS3_IdLi1ELin1ELi1ELi1ELin1EEEE9rowStrideEv, symObjAddr: 0x74C8, symBinAddr: 0x100007D78, symSize: 0x20 }
  - { offsetInCU: 0x150715, offset: 0x150715, size: 0x8, addend: 0x0, symName: __ZNK5Eigen8internal17mapbase_evaluatorINS_5BlockIKNS_6MatrixIdLin1ELi1ELi0ELin1ELi1EEELin1ELi1ELb1EEES4_E9colStrideEv, symObjAddr: 0x74E8, symBinAddr: 0x100007D98, symSize: 0x28 }
  - { offsetInCU: 0x15073B, offset: 0x15073B, size: 0x8, addend: 0x0, symName: __ZNK5Eigen8internal17mapbase_evaluatorINS_5BlockIKNS_6MatrixIdLin1ELi1ELi0ELin1ELi1EEELin1ELi1ELb1EEES4_E9rowStrideEv, symObjAddr: 0x7510, symBinAddr: 0x100007DC0, symSize: 0x20 }
  - { offsetInCU: 0x150761, offset: 0x150761, size: 0x8, addend: 0x0, symName: __ZN5Eigen8internal15redux_evaluatorINS_13CwiseBinaryOpINS0_22scalar_conj_product_opIddEEKNS_9TransposeIKNS_5BlockIKNS_6MatrixIdLin1ELin1ELi0ELin1ELin1EEELi1ELin1ELb0EEEEEKNS6_IKNS7_IdLin1ELi1ELi0ELin1ELi1EEELin1ELi1ELb1EEEEEED2Ev, symObjAddr: 0x7530, symBinAddr: 0x100007DE0, symSize: 0x2C }
  - { offsetInCU: 0x15078E, offset: 0x15078E, size: 0x8, addend: 0x0, symName: __ZN5Eigen8internal9evaluatorINS_13CwiseBinaryOpINS0_22scalar_conj_product_opIddEEKNS_9TransposeIKNS_5BlockIKNS_6MatrixIdLin1ELin1ELi0ELin1ELin1EEELi1ELin1ELb0EEEEEKNS6_IKNS7_IdLin1ELi1ELi0ELin1ELi1EEELin1ELi1ELb1EEEEEED2Ev, symObjAddr: 0x755C, symBinAddr: 0x100007E0C, symSize: 0x2C }
  - { offsetInCU: 0x1507BB, offset: 0x1507BB, size: 0x8, addend: 0x0, symName: __ZN5Eigen8internal16binary_evaluatorINS_13CwiseBinaryOpINS0_22scalar_conj_product_opIddEEKNS_9TransposeIKNS_5BlockIKNS_6MatrixIdLin1ELin1ELi0ELin1ELin1EEELi1ELin1ELb0EEEEEKNS6_IKNS7_IdLin1ELi1ELi0ELin1ELi1EEELin1ELi1ELb1EEEEENS0_10IndexBasedESJ_ddED2Ev, symObjAddr: 0x7588, symBinAddr: 0x100007E38, symSize: 0x34 }
  - { offsetInCU: 0x1507E7, offset: 0x1507E7, size: 0x8, addend: 0x0, symName: __ZN5Eigen8internal16binary_evaluatorINS_13CwiseBinaryOpINS0_22scalar_conj_product_opIddEEKNS_9TransposeIKNS_5BlockIKNS_6MatrixIdLin1ELin1ELi0ELin1ELin1EEELi1ELin1ELb0EEEEEKNS6_IKNS7_IdLin1ELi1ELi0ELin1ELi1EEELin1ELi1ELb1EEEEENS0_10IndexBasedESJ_ddE4DataD1Ev, symObjAddr: 0x75BC, symBinAddr: 0x100007E6C, symSize: 0x2C }
  - { offsetInCU: 0x150814, offset: 0x150814, size: 0x8, addend: 0x0, symName: __ZN5Eigen8internal16binary_evaluatorINS_13CwiseBinaryOpINS0_22scalar_conj_product_opIddEEKNS_9TransposeIKNS_5BlockIKNS_6MatrixIdLin1ELin1ELi0ELin1ELin1EEELi1ELin1ELb0EEEEEKNS6_IKNS7_IdLin1ELi1ELi0ELin1ELi1EEELin1ELi1ELb1EEEEENS0_10IndexBasedESJ_ddE4DataD2Ev, symObjAddr: 0x75E8, symBinAddr: 0x100007E98, symSize: 0x3C }
  - { offsetInCU: 0x150841, offset: 0x150841, size: 0x8, addend: 0x0, symName: __ZN5Eigen8internal9evaluatorIKNS_5BlockIKNS_6MatrixIdLin1ELi1ELi0ELin1ELi1EEELin1ELi1ELb1EEEED1Ev, symObjAddr: 0x7624, symBinAddr: 0x100007ED4, symSize: 0x2C }
  - { offsetInCU: 0x15086D, offset: 0x15086D, size: 0x8, addend: 0x0, symName: __ZN5Eigen8internal9evaluatorIKNS_5BlockIKNS_6MatrixIdLin1ELi1ELi0ELin1ELi1EEELin1ELi1ELb1EEEED2Ev, symObjAddr: 0x7650, symBinAddr: 0x100007F00, symSize: 0x2C }
  - { offsetInCU: 0x150899, offset: 0x150899, size: 0x8, addend: 0x0, symName: __ZN5Eigen8internal9evaluatorINS_5BlockIKNS_6MatrixIdLin1ELi1ELi0ELin1ELi1EEELin1ELi1ELb1EEEED2Ev, symObjAddr: 0x767C, symBinAddr: 0x100007F2C, symSize: 0x2C }
  - { offsetInCU: 0x1508C6, offset: 0x1508C6, size: 0x8, addend: 0x0, symName: __ZN5Eigen8internal15block_evaluatorIKNS_6MatrixIdLin1ELi1ELi0ELin1ELi1EEELin1ELi1ELb1ELb1EED2Ev, symObjAddr: 0x76A8, symBinAddr: 0x100007F58, symSize: 0x2C }
  - { offsetInCU: 0x1508F3, offset: 0x1508F3, size: 0x8, addend: 0x0, symName: __ZN5Eigen5BlockIKNS_6MatrixIdLin1ELi1ELi0ELin1ELi1EEELin1ELi1ELb1EEC1ERS3_l, symObjAddr: 0x76D4, symBinAddr: 0x100007F84, symSize: 0x3C }
  - { offsetInCU: 0x150939, offset: 0x150939, size: 0x8, addend: 0x0, symName: __ZN5Eigen5BlockIKNS_6MatrixIdLin1ELi1ELi0ELin1ELi1EEELin1ELi1ELb1EEC2ERS3_l, symObjAddr: 0x7710, symBinAddr: 0x100007FC0, symSize: 0xAC }
  - { offsetInCU: 0x15097F, offset: 0x15097F, size: 0x8, addend: 0x0, symName: __ZN5Eigen9BlockImplIKNS_6MatrixIdLin1ELi1ELi0ELin1ELi1EEELin1ELi1ELb1ENS_5DenseEEC2ERS3_l, symObjAddr: 0x77BC, symBinAddr: 0x10000806C, symSize: 0x3C }
  - { offsetInCU: 0x1509C5, offset: 0x1509C5, size: 0x8, addend: 0x0, symName: __ZN5Eigen8internal15BlockImpl_denseIKNS_6MatrixIdLin1ELi1ELi0ELin1ELi1EEELin1ELi1ELb1ELb1EEC2ERS4_l, symObjAddr: 0x77F8, symBinAddr: 0x1000080A8, symSize: 0xAC }
  - { offsetInCU: 0x150A0D, offset: 0x150A0D, size: 0x8, addend: 0x0, symName: __ZN5Eigen7MapBaseINS_5BlockIKNS_6MatrixIdLin1ELi1ELi0ELin1ELi1EEELin1ELi1ELb1EEELi0EEC2EPKdll, symObjAddr: 0x78A4, symBinAddr: 0x100008154, symSize: 0x11C }
  - { offsetInCU: 0x150A61, offset: 0x150A61, size: 0x8, addend: 0x0, symName: __ZN5Eigen8internal19variable_if_dynamicIlLi0EEC1El, symObjAddr: 0x79C0, symBinAddr: 0x100008270, symSize: 0x34 }
  - { offsetInCU: 0x150A99, offset: 0x150A99, size: 0x8, addend: 0x0, symName: __ZN5Eigen8internal15BlockImpl_denseIKNS_6MatrixIdLin1ELi1ELi0ELin1ELi1EEELin1ELi1ELb1ELb1EE4initEv, symObjAddr: 0x79F4, symBinAddr: 0x1000082A4, symSize: 0x34 }
  - { offsetInCU: 0x150ABF, offset: 0x150ABF, size: 0x8, addend: 0x0, symName: __ZN5Eigen10MatrixBaseINS_5BlockIKNS_6MatrixIdLin1ELi1ELi0ELin1ELi1EEELin1ELi1ELb1EEEEC2Ev, symObjAddr: 0x7A28, symBinAddr: 0x1000082D8, symSize: 0x2C }
  - { offsetInCU: 0x150AE9, offset: 0x150AE9, size: 0x8, addend: 0x0, symName: __ZNK5Eigen7MapBaseINS_5BlockIKNS_6MatrixIdLin1ELi1ELi0ELin1ELi1EEELin1ELi1ELb1EEELi0EE11checkSanityIS5_EEvNS_8internal9enable_ifIXeqsr8internal6traitsIT_EE9AlignmentLi0EEPvE4typeE, symObjAddr: 0x7A54, symBinAddr: 0x100008304, symSize: 0x14 }
  - { offsetInCU: 0x150B23, offset: 0x150B23, size: 0x8, addend: 0x0, symName: __ZN5Eigen9DenseBaseINS_5BlockIKNS_6MatrixIdLin1ELi1ELi0ELin1ELi1EEELin1ELi1ELb1EEEEC2Ev, symObjAddr: 0x7A68, symBinAddr: 0x100008318, symSize: 0x14 }
  - { offsetInCU: 0x150B4D, offset: 0x150B4D, size: 0x8, addend: 0x0, symName: __ZN5Eigen8internal19variable_if_dynamicIlLi0EEC2El, symObjAddr: 0x7A7C, symBinAddr: 0x10000832C, symSize: 0x64 }
  - { offsetInCU: 0x150B85, offset: 0x150B85, size: 0x8, addend: 0x0, symName: __ZN5Eigen8internal11blas_traitsINS_6MatrixIdLin1ELin1ELi0ELin1ELin1EEEE7extractERKS3_, symObjAddr: 0x7AE0, symBinAddr: 0x100008390, symSize: 0x14 }
  - { offsetInCU: 0x150BA9, offset: 0x150BA9, size: 0x8, addend: 0x0, symName: __ZN5Eigen8internal11blas_traitsINS_6MatrixIdLin1ELi1ELi0ELin1ELi1EEEE7extractERKS3_, symObjAddr: 0x7AF4, symBinAddr: 0x1000083A4, symSize: 0x14 }
  - { offsetInCU: 0x150BCD, offset: 0x150BCD, size: 0x8, addend: 0x0, symName: __ZN5Eigen8internal10get_factorIddE3runERKd, symObjAddr: 0x7B08, symBinAddr: 0x1000083B8, symSize: 0x24 }
  - { offsetInCU: 0x150CA1, offset: 0x150CA1, size: 0x8, addend: 0x0, symName: __ZN5Eigen8internal11blas_traitsINS_6MatrixIdLin1ELin1ELi0ELin1ELin1EEEE19extractScalarFactorERKS3_, symObjAddr: 0x9100, symBinAddr: 0x1000099B0, symSize: 0x14 }
  - { offsetInCU: 0x150CC1, offset: 0x150CC1, size: 0x8, addend: 0x0, symName: __ZN5Eigen8internal11blas_traitsINS_6MatrixIdLin1ELi1ELi0ELin1ELi1EEEE19extractScalarFactorERKS3_, symObjAddr: 0x9114, symBinAddr: 0x1000099C4, symSize: 0x14 }
  - { offsetInCU: 0x150CE1, offset: 0x150CE1, size: 0x8, addend: 0x0, symName: __ZN5Eigen8internal17real_default_implIdLb0EE3runERKd, symObjAddr: 0x914C, symBinAddr: 0x1000099FC, symSize: 0x18 }
  - { offsetInCU: 0x150D04, offset: 0x150D04, size: 0x8, addend: 0x0, symName: __ZNK5Eigen8internal16blas_data_mapperIKdlLi0ELi0ELi1EE6strideEv, symObjAddr: 0x9164, symBinAddr: 0x100009A14, symSize: 0x18 }
  - { offsetInCU: 0x150D34, offset: 0x150D34, size: 0x8, addend: 0x0, symName: __ZNK5Eigen8internal11conj_helperI19__simd128_float64_tS2_Lb0ELb0EE5pmaddERKS2_S5_S5_, symObjAddr: 0x91C0, symBinAddr: 0x100009A70, symSize: 0x54 }
  - { offsetInCU: 0x150D8E, offset: 0x150D8E, size: 0x8, addend: 0x0, symName: __ZNKSt3__16__lessIllEclB7v160006ERKlS3_, symObjAddr: 0x933C, symBinAddr: 0x100009BEC, symSize: 0x34 }
  - { offsetInCU: 0x150DD0, offset: 0x150DD0, size: 0x8, addend: 0x0, symName: __ZNK5Eigen8internal7conj_ifILb0EE5pconjI19__simd128_float64_tEERKT_S7_, symObjAddr: 0x9370, symBinAddr: 0x100009C20, symSize: 0x18 }
  - { offsetInCU: 0x150E0D, offset: 0x150E0D, size: 0x8, addend: 0x0, symName: __ZN5Eigen8internal9evaluatorINS_15PlainObjectBaseINS_6MatrixIdLin1ELi1ELi0ELin1ELi1EEEEEED2Ev, symObjAddr: 0x9388, symBinAddr: 0x100009C38, symSize: 0x2C }
  - { offsetInCU: 0x150E39, offset: 0x150E39, size: 0x8, addend: 0x0, symName: __ZN5Eigen8internal9evaluatorIKNS_7ProductINS_6MatrixIdLin1ELin1ELi0ELin1ELin1EEENS3_IdLin1ELi1ELi0ELin1ELi1EEELi0EEEED2Ev, symObjAddr: 0x93B4, symBinAddr: 0x100009C64, symSize: 0x2C }
  - { offsetInCU: 0x150E65, offset: 0x150E65, size: 0x8, addend: 0x0, symName: __ZN5Eigen8internal9evaluatorINS_7ProductINS_6MatrixIdLin1ELin1ELi0ELin1ELin1EEENS3_IdLin1ELi1ELi0ELin1ELi1EEELi0EEEED2Ev, symObjAddr: 0x93E0, symBinAddr: 0x100009C90, symSize: 0x2C }
  - { offsetInCU: 0x150E91, offset: 0x150E91, size: 0x8, addend: 0x0, symName: __ZN5Eigen8internal17product_evaluatorINS_7ProductINS_6MatrixIdLin1ELin1ELi0ELin1ELin1EEENS3_IdLin1ELi1ELi0ELin1ELi1EEELi0EEELi7ENS_10DenseShapeES7_ddED2Ev, symObjAddr: 0x940C, symBinAddr: 0x100009CBC, symSize: 0x38 }
  - { offsetInCU: 0x150EBD, offset: 0x150EBD, size: 0x8, addend: 0x0, symName: __ZN5Eigen8internal9evaluatorIKNS_6MatrixIdLin1ELin1ELi0ELin1ELin1EEEEC2ERS4_, symObjAddr: 0x9444, symBinAddr: 0x100009CF4, symSize: 0x34 }
  - { offsetInCU: 0x150EF5, offset: 0x150EF5, size: 0x8, addend: 0x0, symName: __ZN5Eigen8internal9evaluatorINS_6MatrixIdLin1ELin1ELi0ELin1ELin1EEEEC2ERKS3_, symObjAddr: 0x9478, symBinAddr: 0x100009D28, symSize: 0x34 }
  - { offsetInCU: 0x150F2E, offset: 0x150F2E, size: 0x8, addend: 0x0, symName: __ZN5Eigen8internal9evaluatorINS_15PlainObjectBaseINS_6MatrixIdLin1ELin1ELi0ELin1ELin1EEEEEEC2ERKS5_, symObjAddr: 0x94AC, symBinAddr: 0x100009D5C, symSize: 0x80 }
  - { offsetInCU: 0x150F66, offset: 0x150F66, size: 0x8, addend: 0x0, symName: __ZN5Eigen8internal14evaluator_baseINS_6MatrixIdLin1ELin1ELi0ELin1ELin1EEEEC2Ev, symObjAddr: 0x952C, symBinAddr: 0x100009DDC, symSize: 0x14 }
  - { offsetInCU: 0x150F90, offset: 0x150F90, size: 0x8, addend: 0x0, symName: __ZNK5Eigen15DenseCoeffsBaseINS_6MatrixIdLin1ELin1ELi0ELin1ELin1EEELi3EE11outerStrideEv, symObjAddr: 0x9540, symBinAddr: 0x100009DF0, symSize: 0x28 }
  - { offsetInCU: 0x150FB6, offset: 0x150FB6, size: 0x8, addend: 0x0, symName: __ZN5Eigen8internal30plainobjectbase_evaluator_dataIdLin1EEC1EPKdl, symObjAddr: 0x9568, symBinAddr: 0x100009E18, symSize: 0x3C }
  - { offsetInCU: 0x150FFC, offset: 0x150FFC, size: 0x8, addend: 0x0, symName: __ZN5Eigen8internal14evaluator_baseINS_6MatrixIdLin1ELin1ELi0ELin1ELin1EEEED2Ev, symObjAddr: 0x95A4, symBinAddr: 0x100009E54, symSize: 0x14 }
  - { offsetInCU: 0x151026, offset: 0x151026, size: 0x8, addend: 0x0, symName: __ZN5Eigen8internal30plainobjectbase_evaluator_dataIdLin1EEC2EPKdl, symObjAddr: 0x95B8, symBinAddr: 0x100009E68, symSize: 0x2C }
  - { offsetInCU: 0x15106C, offset: 0x15106C, size: 0x8, addend: 0x0, symName: __ZN5Eigen8internal9evaluatorIKNS_13CwiseBinaryOpINS0_13scalar_sum_opIddEEKNS_7ProductINS_6MatrixIdLin1ELin1ELi0ELin1ELin1EEENS6_IdLin1ELi1ELi0ELin1ELi1EEELi0EEESA_EEED2Ev, symObjAddr: 0x95E4, symBinAddr: 0x100009E94, symSize: 0x2C }
  - { offsetInCU: 0x151098, offset: 0x151098, size: 0x8, addend: 0x0, symName: __ZN5Eigen8internal9evaluatorINS_13CwiseBinaryOpINS0_13scalar_sum_opIddEEKNS_7ProductINS_6MatrixIdLin1ELin1ELi0ELin1ELin1EEENS6_IdLin1ELi1ELi0ELin1ELi1EEELi0EEESA_EEED2Ev, symObjAddr: 0x9610, symBinAddr: 0x100009EC0, symSize: 0x2C }
  - { offsetInCU: 0x1510C5, offset: 0x1510C5, size: 0x8, addend: 0x0, symName: __ZN5Eigen8internal16binary_evaluatorINS_13CwiseBinaryOpINS0_13scalar_sum_opIddEEKNS_7ProductINS_6MatrixIdLin1ELin1ELi0ELin1ELin1EEENS6_IdLin1ELi1ELi0ELin1ELi1EEELi0EEESA_EENS0_10IndexBasedESC_ddED2Ev, symObjAddr: 0x963C, symBinAddr: 0x100009EEC, symSize: 0x34 }
  - { offsetInCU: 0x1510F1, offset: 0x1510F1, size: 0x8, addend: 0x0, symName: __ZN5Eigen8internal16binary_evaluatorINS_13CwiseBinaryOpINS0_13scalar_sum_opIddEEKNS_7ProductINS_6MatrixIdLin1ELin1ELi0ELin1ELin1EEENS6_IdLin1ELi1ELi0ELin1ELi1EEELi0EEESA_EENS0_10IndexBasedESC_ddE4DataD1Ev, symObjAddr: 0x9670, symBinAddr: 0x100009F20, symSize: 0x2C }
  - { offsetInCU: 0x15111E, offset: 0x15111E, size: 0x8, addend: 0x0, symName: __ZN5Eigen8internal16binary_evaluatorINS_13CwiseBinaryOpINS0_13scalar_sum_opIddEEKNS_7ProductINS_6MatrixIdLin1ELin1ELi0ELin1ELin1EEENS6_IdLin1ELi1ELi0ELin1ELi1EEELi0EEESA_EENS0_10IndexBasedESC_ddE4DataD2Ev, symObjAddr: 0x969C, symBinAddr: 0x100009F4C, symSize: 0x3C }
  - { offsetInCU: 0x15114B, offset: 0x15114B, size: 0x8, addend: 0x0, symName: __ZN5Eigen8internal31generic_dense_assignment_kernelINS0_9evaluatorINS_6MatrixIdLin1ELin1ELi0ELin1ELin1EEEEENS2_INS_13CwiseBinaryOpINS0_13scalar_sum_opIddEEKNS6_IS8_KNS_7ProductIS4_NS3_IdLin1ELi1ELi0ELin1ELi1EEELi0EEESC_EEKS4_EEEENS0_9assign_opIddEELi0EEC2ERS5_RKSH_RKSJ_RS4_, symObjAddr: 0x96D8, symBinAddr: 0x100009F88, symSize: 0x44 }
  - { offsetInCU: 0x1511B1, offset: 0x1511B1, size: 0x8, addend: 0x0, symName: __ZNK5Eigen8internal31generic_dense_assignment_kernelINS0_9evaluatorINS_6MatrixIdLin1ELin1ELi0ELin1ELin1EEEEENS2_INS_13CwiseBinaryOpINS0_13scalar_sum_opIddEEKNS6_IS8_KNS_7ProductIS4_NS3_IdLin1ELi1ELi0ELin1ELi1EEELi0EEESC_EEKS4_EEEENS0_9assign_opIddEELi0EE4sizeEv, symObjAddr: 0x971C, symBinAddr: 0x100009FCC, symSize: 0x28 }
  - { offsetInCU: 0x1511D7, offset: 0x1511D7, size: 0x8, addend: 0x0, symName: __ZN5Eigen8internal31unaligned_dense_assignment_loopILb1EE3runINS0_31generic_dense_assignment_kernelINS0_9evaluatorINS_6MatrixIdLin1ELin1ELi0ELin1ELin1EEEEENS5_INS_13CwiseBinaryOpINS0_13scalar_sum_opIddEEKNS9_ISB_KNS_7ProductIS7_NS6_IdLin1ELi1ELi0ELin1ELi1EEELi0EEESF_EEKS7_EEEENS0_9assign_opIddEELi0EEEEEvRT_ll, symObjAddr: 0x9744, symBinAddr: 0x100009FF4, symSize: 0x18 }
  - { offsetInCU: 0x151216, offset: 0x151216, size: 0x8, addend: 0x0, symName: __ZN5Eigen8internal31generic_dense_assignment_kernelINS0_9evaluatorINS_6MatrixIdLin1ELin1ELi0ELin1ELin1EEEEENS2_INS_13CwiseBinaryOpINS0_13scalar_sum_opIddEEKNS6_IS8_KNS_7ProductIS4_NS3_IdLin1ELi1ELi0ELin1ELi1EEELi0EEESC_EEKS4_EEEENS0_9assign_opIddEELi0EE12assignPacketILi16ELi16E19__simd128_float64_tEEvl, symObjAddr: 0x975C, symBinAddr: 0x10000A00C, symSize: 0x64 }
  - { offsetInCU: 0x151268, offset: 0x151268, size: 0x8, addend: 0x0, symName: __ZN5Eigen8internal31unaligned_dense_assignment_loopILb0EE3runINS0_31generic_dense_assignment_kernelINS0_9evaluatorINS_6MatrixIdLin1ELin1ELi0ELin1ELin1EEEEENS5_INS_13CwiseBinaryOpINS0_13scalar_sum_opIddEEKNS9_ISB_KNS_7ProductIS7_NS6_IdLin1ELi1ELi0ELin1ELi1EEELi0EEESF_EEKS7_EEEENS0_9assign_opIddEELi0EEEEEvRT_ll, symObjAddr: 0x97C0, symBinAddr: 0x10000A070, symSize: 0x68 }
  - { offsetInCU: 0x1512D0, offset: 0x1512D0, size: 0x8, addend: 0x0, symName: __ZNK5Eigen9EigenBaseINS_6MatrixIdLin1ELin1ELi0ELin1ELin1EEEE4sizeEv, symObjAddr: 0x9828, symBinAddr: 0x10000A0D8, symSize: 0x44 }
  - { offsetInCU: 0x1512F6, offset: 0x1512F6, size: 0x8, addend: 0x0, symName: __ZNK5Eigen9EigenBaseINS_6MatrixIdLin1ELin1ELi0ELin1ELin1EEEE4colsEv, symObjAddr: 0x986C, symBinAddr: 0x10000A11C, symSize: 0x28 }
  - { offsetInCU: 0x15131C, offset: 0x15131C, size: 0x8, addend: 0x0, symName: __ZNK5Eigen8internal9assign_opIddE12assignPacketILi16E19__simd128_float64_tEEvPdRKT0_, symObjAddr: 0x9894, symBinAddr: 0x10000A144, symSize: 0x40 }
  - { offsetInCU: 0x151396, offset: 0x151396, size: 0x8, addend: 0x0, symName: __ZN5Eigen8internal9evaluatorINS_15PlainObjectBaseINS_6MatrixIdLin1ELin1ELi0ELin1ELin1EEEEEE8coeffRefEl, symObjAddr: 0x98D4, symBinAddr: 0x10000A184, symSize: 0x24 }
  - { offsetInCU: 0x1513CA, offset: 0x1513CA, size: 0x8, addend: 0x0, symName: __ZNK5Eigen8internal16binary_evaluatorINS_13CwiseBinaryOpINS0_13scalar_sum_opIddEEKNS2_IS4_KNS_7ProductINS_6MatrixIdLin1ELin1ELi0ELin1ELin1EEENS6_IdLin1ELi1ELi0ELin1ELi1EEELi0EEESA_EEKS7_EENS0_10IndexBasedESF_ddE6packetILi16E19__simd128_float64_tEET0_l, symObjAddr: 0x98F8, symBinAddr: 0x10000A1A8, symSize: 0x70 }
  - { offsetInCU: 0x151412, offset: 0x151412, size: 0x8, addend: 0x0, symName: __ZNK5Eigen8internal16binary_evaluatorINS_13CwiseBinaryOpINS0_13scalar_sum_opIddEEKNS2_IS4_KNS_7ProductINS_6MatrixIdLin1ELin1ELi0ELin1ELin1EEENS6_IdLin1ELi1ELi0ELin1ELi1EEELi0EEESA_EEKS7_EENS0_10IndexBasedESF_ddE4Data4funcEv, symObjAddr: 0x9994, symBinAddr: 0x10000A244, symSize: 0x14 }
  - { offsetInCU: 0x151438, offset: 0x151438, size: 0x8, addend: 0x0, symName: __ZNK5Eigen8internal13scalar_sum_opIddE8packetOpI19__simd128_float64_tEET_RKS5_S7_, symObjAddr: 0x99A8, symBinAddr: 0x10000A258, symSize: 0x30 }
  - { offsetInCU: 0x151483, offset: 0x151483, size: 0x8, addend: 0x0, symName: __ZNK5Eigen8internal16binary_evaluatorINS_13CwiseBinaryOpINS0_13scalar_sum_opIddEEKNS_7ProductINS_6MatrixIdLin1ELin1ELi0ELin1ELin1EEENS6_IdLin1ELi1ELi0ELin1ELi1EEELi0EEESA_EENS0_10IndexBasedESC_ddE6packetILi16E19__simd128_float64_tEET0_l, symObjAddr: 0x99D8, symBinAddr: 0x10000A288, symSize: 0x70 }
  - { offsetInCU: 0x1514CB, offset: 0x1514CB, size: 0x8, addend: 0x0, symName: __ZNK5Eigen8internal9evaluatorINS_15PlainObjectBaseINS_6MatrixIdLin1ELin1ELi0ELin1ELin1EEEEEE6packetILi16E19__simd128_float64_tEET0_l, symObjAddr: 0x9A48, symBinAddr: 0x10000A2F8, symSize: 0x3C }
  - { offsetInCU: 0x15152F, offset: 0x15152F, size: 0x8, addend: 0x0, symName: __ZNK5Eigen8internal16binary_evaluatorINS_13CwiseBinaryOpINS0_13scalar_sum_opIddEEKNS_7ProductINS_6MatrixIdLin1ELin1ELi0ELin1ELin1EEENS6_IdLin1ELi1ELi0ELin1ELi1EEELi0EEESA_EENS0_10IndexBasedESC_ddE4Data4funcEv, symObjAddr: 0x9AC4, symBinAddr: 0x10000A374, symSize: 0x14 }
  - { offsetInCU: 0x151555, offset: 0x151555, size: 0x8, addend: 0x0, symName: __ZNK5Eigen8internal9evaluatorINS_15PlainObjectBaseINS_6MatrixIdLin1ELi1ELi0ELin1ELi1EEEEEE6packetILi16E19__simd128_float64_tEET0_l, symObjAddr: 0x9AD8, symBinAddr: 0x10000A388, symSize: 0x3C }
  - { offsetInCU: 0x1515B9, offset: 0x1515B9, size: 0x8, addend: 0x0, symName: __ZN5Eigen8internal31generic_dense_assignment_kernelINS0_9evaluatorINS_6MatrixIdLin1ELin1ELi0ELin1ELin1EEEEENS2_INS_13CwiseBinaryOpINS0_13scalar_sum_opIddEEKNS6_IS8_KNS_7ProductIS4_NS3_IdLin1ELi1ELi0ELin1ELi1EEELi0EEESC_EEKS4_EEEENS0_9assign_opIddEELi0EE11assignCoeffEl, symObjAddr: 0x9B3C, symBinAddr: 0x10000A3EC, symSize: 0x64 }
  - { offsetInCU: 0x1515EE, offset: 0x1515EE, size: 0x8, addend: 0x0, symName: __ZNK5Eigen8internal9assign_opIddE11assignCoeffERdRKd, symObjAddr: 0x9BA0, symBinAddr: 0x10000A450, symSize: 0x28 }
  - { offsetInCU: 0x151630, offset: 0x151630, size: 0x8, addend: 0x0, symName: __ZNK5Eigen8internal16binary_evaluatorINS_13CwiseBinaryOpINS0_13scalar_sum_opIddEEKNS2_IS4_KNS_7ProductINS_6MatrixIdLin1ELin1ELi0ELin1ELin1EEENS6_IdLin1ELi1ELi0ELin1ELi1EEELi0EEESA_EEKS7_EENS0_10IndexBasedESF_ddE5coeffEl, symObjAddr: 0x9BC8, symBinAddr: 0x10000A478, symSize: 0x6C }
  - { offsetInCU: 0x151665, offset: 0x151665, size: 0x8, addend: 0x0, symName: __ZNK5Eigen8internal16binary_evaluatorINS_13CwiseBinaryOpINS0_13scalar_sum_opIddEEKNS_7ProductINS_6MatrixIdLin1ELin1ELi0ELin1ELin1EEENS6_IdLin1ELi1ELi0ELin1ELi1EEELi0EEESA_EENS0_10IndexBasedESC_ddE5coeffEl, symObjAddr: 0x9C34, symBinAddr: 0x10000A4E4, symSize: 0x64 }
  - { offsetInCU: 0x15169A, offset: 0x15169A, size: 0x8, addend: 0x0, symName: __ZNK5Eigen8internal9evaluatorINS_15PlainObjectBaseINS_6MatrixIdLin1ELin1ELi0ELin1ELin1EEEEEE5coeffEl, symObjAddr: 0x9C98, symBinAddr: 0x10000A548, symSize: 0x24 }
  - { offsetInCU: 0x1516CE, offset: 0x1516CE, size: 0x8, addend: 0x0, symName: __ZNK5Eigen8internal9evaluatorINS_15PlainObjectBaseINS_6MatrixIdLin1ELi1ELi0ELin1ELi1EEEEEE5coeffEl, symObjAddr: 0x9CBC, symBinAddr: 0x10000A56C, symSize: 0x24 }
  - { offsetInCU: 0x151702, offset: 0x151702, size: 0x8, addend: 0x0, symName: __ZN5Eigen8internal9evaluatorINS_6MatrixIdLin1ELin1ELi0ELin1ELin1EEEED2Ev, symObjAddr: 0x9CE0, symBinAddr: 0x10000A590, symSize: 0x2C }
  - { offsetInCU: 0x15172F, offset: 0x15172F, size: 0x8, addend: 0x0, symName: __ZN5Eigen8internal9evaluatorINS_15PlainObjectBaseINS_6MatrixIdLin1ELin1ELi0ELin1ELin1EEEEEED2Ev, symObjAddr: 0x9D0C, symBinAddr: 0x10000A5BC, symSize: 0x2C }
  - { offsetInCU: 0x15175B, offset: 0x15175B, size: 0x8, addend: 0x0, symName: __ZN5Eigen8internal9evaluatorINS_13CwiseBinaryOpINS0_13scalar_sum_opIddEEKNS2_IS4_KNS_7ProductINS_6MatrixIdLin1ELin1ELi0ELin1ELin1EEENS6_IdLin1ELi1ELi0ELin1ELi1EEELi0EEESA_EEKS7_EEED2Ev, symObjAddr: 0x9D38, symBinAddr: 0x10000A5E8, symSize: 0x2C }
  - { offsetInCU: 0x151788, offset: 0x151788, size: 0x8, addend: 0x0, symName: __ZN5Eigen8internal16binary_evaluatorINS_13CwiseBinaryOpINS0_13scalar_sum_opIddEEKNS2_IS4_KNS_7ProductINS_6MatrixIdLin1ELin1ELi0ELin1ELin1EEENS6_IdLin1ELi1ELi0ELin1ELi1EEELi0EEESA_EEKS7_EENS0_10IndexBasedESF_ddED2Ev, symObjAddr: 0x9D64, symBinAddr: 0x10000A614, symSize: 0x34 }
  - { offsetInCU: 0x1517B4, offset: 0x1517B4, size: 0x8, addend: 0x0, symName: __ZN5Eigen8internal16binary_evaluatorINS_13CwiseBinaryOpINS0_13scalar_sum_opIddEEKNS2_IS4_KNS_7ProductINS_6MatrixIdLin1ELin1ELi0ELin1ELin1EEENS6_IdLin1ELi1ELi0ELin1ELi1EEELi0EEESA_EEKS7_EENS0_10IndexBasedESF_ddE4DataD1Ev, symObjAddr: 0x9D98, symBinAddr: 0x10000A648, symSize: 0x2C }
  - { offsetInCU: 0x1517E1, offset: 0x1517E1, size: 0x8, addend: 0x0, symName: __ZN5Eigen8internal16binary_evaluatorINS_13CwiseBinaryOpINS0_13scalar_sum_opIddEEKNS2_IS4_KNS_7ProductINS_6MatrixIdLin1ELin1ELi0ELin1ELin1EEENS6_IdLin1ELi1ELi0ELin1ELi1EEELi0EEESA_EEKS7_EENS0_10IndexBasedESF_ddE4DataD2Ev, symObjAddr: 0x9DC4, symBinAddr: 0x10000A674, symSize: 0x3C }
  - { offsetInCU: 0x15180E, offset: 0x15180E, size: 0x8, addend: 0x0, symName: __ZN5Eigen8internal9evaluatorIKNS_6MatrixIdLin1ELin1ELi0ELin1ELin1EEEED1Ev, symObjAddr: 0x9E00, symBinAddr: 0x10000A6B0, symSize: 0x2C }
  - { offsetInCU: 0x15183A, offset: 0x15183A, size: 0x8, addend: 0x0, symName: __ZN5Eigen8internal9evaluatorIKNS_6MatrixIdLin1ELin1ELi0ELin1ELin1EEEED2Ev, symObjAddr: 0x9E2C, symBinAddr: 0x10000A6DC, symSize: 0x2C }
  - { offsetInCU: 0x151866, offset: 0x151866, size: 0x8, addend: 0x0, symName: __ZN5Eigen8internal9assign_opIddEC2Ev, symObjAddr: 0x9E58, symBinAddr: 0x10000A708, symSize: 0x14 }
  - { offsetInCU: 0x151890, offset: 0x151890, size: 0x8, addend: 0x0, symName: __ZN5Eigen13CwiseBinaryOpINS_8internal13scalar_sum_opIddEEKNS_7ProductINS_6MatrixIdLin1ELin1ELi0ELin1ELin1EEENS5_IdLin1ELi1ELi0ELin1ELi1EEELi0EEEKS6_EC1ERS9_RSA_RKS3_, symObjAddr: 0x9E6C, symBinAddr: 0x10000A71C, symSize: 0x44 }
  - { offsetInCU: 0x1518E4, offset: 0x1518E4, size: 0x8, addend: 0x0, symName: __ZN5Eigen13CwiseBinaryOpINS_8internal13scalar_sum_opIddEEKNS_7ProductINS_6MatrixIdLin1ELin1ELi0ELin1ELin1EEENS5_IdLin1ELi1ELi0ELin1ELi1EEELi0EEEKS6_EC2ERS9_RSA_RKS3_, symObjAddr: 0x9EB0, symBinAddr: 0x10000A760, symSize: 0xF4 }
  - { offsetInCU: 0x15193D, offset: 0x15193D, size: 0x8, addend: 0x0, symName: __ZN5Eigen17CwiseBinaryOpImplINS_8internal13scalar_sum_opIddEEKNS_7ProductINS_6MatrixIdLin1ELin1ELi0ELin1ELin1EEENS5_IdLin1ELi1ELi0ELin1ELi1EEELi0EEEKS6_NS_5DenseEEC2Ev, symObjAddr: 0x9FA4, symBinAddr: 0x10000A854, symSize: 0x2C }
  - { offsetInCU: 0x151969, offset: 0x151969, size: 0x8, addend: 0x0, symName: __ZN5Eigen10MatrixBaseINS_13CwiseBinaryOpINS_8internal13scalar_sum_opIddEEKNS_7ProductINS_6MatrixIdLin1ELin1ELi0ELin1ELin1EEENS6_IdLin1ELi1ELi0ELin1ELi1EEELi0EEEKS7_EEEC2Ev, symObjAddr: 0x9FD0, symBinAddr: 0x10000A880, symSize: 0x2C }
  - { offsetInCU: 0x151993, offset: 0x151993, size: 0x8, addend: 0x0, symName: __ZN5Eigen9DenseBaseINS_13CwiseBinaryOpINS_8internal13scalar_sum_opIddEEKNS_7ProductINS_6MatrixIdLin1ELin1ELi0ELin1ELin1EEENS6_IdLin1ELi1ELi0ELin1ELi1EEELi0EEEKS7_EEEC2Ev, symObjAddr: 0x9FFC, symBinAddr: 0x10000A8AC, symSize: 0x14 }
  - { offsetInCU: 0x1519BD, offset: 0x1519BD, size: 0x8, addend: 0x0, symName: __ZN5Eigen6MatrixIdLin1ELi1ELi0ELin1ELi1EEC2INS_13CwiseBinaryOpINS_8internal13scalar_sum_opIddEEKNS_7ProductINS0_IdLin1ELin1ELi0ELin1ELin1EEES1_Li0EEEKS8_EEEERKNS_9EigenBaseIT_EE, symObjAddr: 0xA010, symBinAddr: 0x10000A8C0, symSize: 0x40 }
  - { offsetInCU: 0x1519FF, offset: 0x1519FF, size: 0x8, addend: 0x0, symName: __ZNK5Eigen9EigenBaseINS_13CwiseBinaryOpINS_8internal13scalar_sum_opIddEEKNS_7ProductINS_6MatrixIdLin1ELin1ELi0ELin1ELin1EEENS6_IdLin1ELi1ELi0ELin1ELi1EEELi0EEEKS7_EEE7derivedEv, symObjAddr: 0xA050, symBinAddr: 0x10000A900, symSize: 0x14 }
  - { offsetInCU: 0x151A25, offset: 0x151A25, size: 0x8, addend: 0x0, symName: __ZN5Eigen15PlainObjectBaseINS_6MatrixIdLin1ELi1ELi0ELin1ELi1EEEEC2INS_13CwiseBinaryOpINS_8internal13scalar_sum_opIddEEKNS_7ProductINS1_IdLin1ELin1ELi0ELin1ELin1EEES2_Li0EEEKSA_EEEERKNS_9DenseBaseIT_EE, symObjAddr: 0xA064, symBinAddr: 0x10000A914, symSize: 0x80 }
  - { offsetInCU: 0x151A67, offset: 0x151A67, size: 0x8, addend: 0x0, symName: __ZN5Eigen15PlainObjectBaseINS_6MatrixIdLin1ELi1ELi0ELin1ELi1EEEE10resizeLikeINS_13CwiseBinaryOpINS_8internal13scalar_sum_opIddEEKNS_7ProductINS1_IdLin1ELin1ELi0ELin1ELin1EEES2_Li0EEEKSA_EEEEvRKNS_9EigenBaseIT_EE, symObjAddr: 0xA0E4, symBinAddr: 0x10000A994, symSize: 0x170 }
  - { offsetInCU: 0x151AFB, offset: 0x151AFB, size: 0x8, addend: 0x0, symName: __ZN5Eigen15PlainObjectBaseINS_6MatrixIdLin1ELi1ELi0ELin1ELi1EEEE12_set_noaliasINS_13CwiseBinaryOpINS_8internal13scalar_sum_opIddEEKNS_7ProductINS1_IdLin1ELin1ELi0ELin1ELin1EEES2_Li0EEEKSA_EEEERS2_RKNS_9DenseBaseIT_EE, symObjAddr: 0xA254, symBinAddr: 0x10000AB04, symSize: 0x60 }
  - { offsetInCU: 0x151B39, offset: 0x151B39, size: 0x8, addend: 0x0, symName: __ZNK5Eigen13CwiseBinaryOpINS_8internal13scalar_sum_opIddEEKNS_7ProductINS_6MatrixIdLin1ELin1ELi0ELin1ELin1EEENS5_IdLin1ELi1ELi0ELin1ELi1EEELi0EEEKS6_E4rowsEv, symObjAddr: 0xA2B4, symBinAddr: 0x10000AB64, symSize: 0x28 }
  - { offsetInCU: 0x151B5F, offset: 0x151B5F, size: 0x8, addend: 0x0, symName: __ZNK5Eigen13CwiseBinaryOpINS_8internal13scalar_sum_opIddEEKNS_7ProductINS_6MatrixIdLin1ELin1ELi0ELin1ELin1EEENS5_IdLin1ELi1ELi0ELin1ELi1EEELi0EEEKS6_E4colsEv, symObjAddr: 0xA2DC, symBinAddr: 0x10000AB8C, symSize: 0x24 }
  - { offsetInCU: 0x151B85, offset: 0x151B85, size: 0x8, addend: 0x0, symName: __ZN5Eigen8internal10AssignmentINS_6MatrixIdLin1ELi1ELi0ELin1ELi1EEENS_13CwiseBinaryOpINS0_13scalar_sum_opIddEEKNS_7ProductINS2_IdLin1ELin1ELi0ELin1ELin1EEES3_Li0EEEKS8_EENS0_9assign_opIddEENS0_11Dense2DenseEvE3runERS3_RKSC_RKSE_, symObjAddr: 0xA33C, symBinAddr: 0x10000ABEC, symSize: 0x40 }
  - { offsetInCU: 0x151BC7, offset: 0x151BC7, size: 0x8, addend: 0x0, symName: __ZN5Eigen8internal9evaluatorINS_13CwiseBinaryOpINS0_13scalar_sum_opIddEEKNS_7ProductINS_6MatrixIdLin1ELin1ELi0ELin1ELin1EEENS6_IdLin1ELi1ELi0ELin1ELi1EEELi0EEEKS7_EEEC1ERKSC_, symObjAddr: 0xA470, symBinAddr: 0x10000AD20, symSize: 0x34 }
  - { offsetInCU: 0x151C00, offset: 0x151C00, size: 0x8, addend: 0x0, symName: __ZNK5Eigen9EigenBaseINS_6MatrixIdLin1ELi1ELi0ELin1ELi1EEEE18const_cast_derivedEv, symObjAddr: 0xA59C, symBinAddr: 0x10000AE4C, symSize: 0x14 }
  - { offsetInCU: 0x151C26, offset: 0x151C26, size: 0x8, addend: 0x0, symName: __ZN5Eigen8internal31generic_dense_assignment_kernelINS0_9evaluatorINS_6MatrixIdLin1ELi1ELi0ELin1ELi1EEEEENS2_INS_13CwiseBinaryOpINS0_13scalar_sum_opIddEEKNS_7ProductINS3_IdLin1ELin1ELi0ELin1ELin1EEES4_Li0EEEKSA_EEEENS0_9assign_opIddEELi0EEC1ERS5_RKSF_RKSH_RS4_, symObjAddr: 0xA5B0, symBinAddr: 0x10000AE60, symSize: 0x4C }
  - { offsetInCU: 0x151C8C, offset: 0x151C8C, size: 0x8, addend: 0x0, symName: __ZN5Eigen8internal9evaluatorINS_6MatrixIdLin1ELi1ELi0ELin1ELi1EEEED1Ev, symObjAddr: 0xA6A4, symBinAddr: 0x10000AF54, symSize: 0x2C }
  - { offsetInCU: 0x151CB9, offset: 0x151CB9, size: 0x8, addend: 0x0, symName: __ZN5Eigen8internal9evaluatorINS_13CwiseBinaryOpINS0_13scalar_sum_opIddEEKNS_7ProductINS_6MatrixIdLin1ELin1ELi0ELin1ELin1EEENS6_IdLin1ELi1ELi0ELin1ELi1EEELi0EEEKS7_EEED1Ev, symObjAddr: 0xA6D0, symBinAddr: 0x10000AF80, symSize: 0x2C }
  - { offsetInCU: 0x151CE6, offset: 0x151CE6, size: 0x8, addend: 0x0, symName: __ZN5Eigen8internal9evaluatorINS_13CwiseBinaryOpINS0_13scalar_sum_opIddEEKNS_7ProductINS_6MatrixIdLin1ELin1ELi0ELin1ELin1EEENS6_IdLin1ELi1ELi0ELin1ELi1EEELi0EEEKS7_EEEC2ERKSC_, symObjAddr: 0xA6FC, symBinAddr: 0x10000AFAC, symSize: 0x34 }
  - { offsetInCU: 0x151D1F, offset: 0x151D1F, size: 0x8, addend: 0x0, symName: __ZN5Eigen8internal16binary_evaluatorINS_13CwiseBinaryOpINS0_13scalar_sum_opIddEEKNS_7ProductINS_6MatrixIdLin1ELin1ELi0ELin1ELin1EEENS6_IdLin1ELi1ELi0ELin1ELi1EEELi0EEEKS7_EENS0_10IndexBasedESD_ddEC2ERKSC_, symObjAddr: 0xA730, symBinAddr: 0x10000AFE0, symSize: 0x64 }
  - { offsetInCU: 0x151D58, offset: 0x151D58, size: 0x8, addend: 0x0, symName: __ZN5Eigen8internal14evaluator_baseINS_13CwiseBinaryOpINS0_13scalar_sum_opIddEEKNS_7ProductINS_6MatrixIdLin1ELin1ELi0ELin1ELin1EEENS6_IdLin1ELi1ELi0ELin1ELi1EEELi0EEEKS7_EEEC2Ev, symObjAddr: 0xA794, symBinAddr: 0x10000B044, symSize: 0x14 }
  - { offsetInCU: 0x151D82, offset: 0x151D82, size: 0x8, addend: 0x0, symName: __ZN5Eigen8internal16binary_evaluatorINS_13CwiseBinaryOpINS0_13scalar_sum_opIddEEKNS_7ProductINS_6MatrixIdLin1ELin1ELi0ELin1ELin1EEENS6_IdLin1ELi1ELi0ELin1ELi1EEELi0EEEKS7_EENS0_10IndexBasedESD_ddE4DataC1ERKSC_, symObjAddr: 0xA7A8, symBinAddr: 0x10000B058, symSize: 0x34 }
  - { offsetInCU: 0x151DBB, offset: 0x151DBB, size: 0x8, addend: 0x0, symName: __ZN5Eigen8internal14evaluator_baseINS_13CwiseBinaryOpINS0_13scalar_sum_opIddEEKNS_7ProductINS_6MatrixIdLin1ELin1ELi0ELin1ELin1EEENS6_IdLin1ELi1ELi0ELin1ELi1EEELi0EEEKS7_EEED2Ev, symObjAddr: 0xA7DC, symBinAddr: 0x10000B08C, symSize: 0x14 }
  - { offsetInCU: 0x151DE5, offset: 0x151DE5, size: 0x8, addend: 0x0, symName: __ZN5Eigen8internal16binary_evaluatorINS_13CwiseBinaryOpINS0_13scalar_sum_opIddEEKNS_7ProductINS_6MatrixIdLin1ELin1ELi0ELin1ELin1EEENS6_IdLin1ELi1ELi0ELin1ELi1EEELi0EEEKS7_EENS0_10IndexBasedESD_ddE4DataC2ERKSC_, symObjAddr: 0xA7F0, symBinAddr: 0x10000B0A0, symSize: 0xA8 }
  - { offsetInCU: 0x151E1E, offset: 0x151E1E, size: 0x8, addend: 0x0, symName: __ZNK5Eigen13CwiseBinaryOpINS_8internal13scalar_sum_opIddEEKNS_7ProductINS_6MatrixIdLin1ELin1ELi0ELin1ELin1EEENS5_IdLin1ELi1ELi0ELin1ELi1EEELi0EEEKS6_E7functorEv, symObjAddr: 0xA898, symBinAddr: 0x10000B148, symSize: 0x18 }
  - { offsetInCU: 0x151E44, offset: 0x151E44, size: 0x8, addend: 0x0, symName: __ZNK5Eigen13CwiseBinaryOpINS_8internal13scalar_sum_opIddEEKNS_7ProductINS_6MatrixIdLin1ELin1ELi0ELin1ELin1EEENS5_IdLin1ELi1ELi0ELin1ELi1EEELi0EEEKS6_E3lhsEv, symObjAddr: 0xA8B0, symBinAddr: 0x10000B160, symSize: 0x14 }
  - { offsetInCU: 0x151E6A, offset: 0x151E6A, size: 0x8, addend: 0x0, symName: __ZNK5Eigen13CwiseBinaryOpINS_8internal13scalar_sum_opIddEEKNS_7ProductINS_6MatrixIdLin1ELin1ELi0ELin1ELin1EEENS5_IdLin1ELi1ELi0ELin1ELi1EEELi0EEEKS6_E3rhsEv, symObjAddr: 0xA8C4, symBinAddr: 0x10000B174, symSize: 0x18 }
  - { offsetInCU: 0x151E90, offset: 0x151E90, size: 0x8, addend: 0x0, symName: __ZN5Eigen8internal31generic_dense_assignment_kernelINS0_9evaluatorINS_6MatrixIdLin1ELi1ELi0ELin1ELi1EEEEENS2_INS_13CwiseBinaryOpINS0_13scalar_sum_opIddEEKNS_7ProductINS3_IdLin1ELin1ELi0ELin1ELin1EEES4_Li0EEEKSA_EEEENS0_9assign_opIddEELi0EEC2ERS5_RKSF_RKSH_RS4_, symObjAddr: 0xA8DC, symBinAddr: 0x10000B18C, symSize: 0x44 }
  - { offsetInCU: 0x151EF6, offset: 0x151EF6, size: 0x8, addend: 0x0, symName: __ZNK5Eigen8internal31generic_dense_assignment_kernelINS0_9evaluatorINS_6MatrixIdLin1ELi1ELi0ELin1ELi1EEEEENS2_INS_13CwiseBinaryOpINS0_13scalar_sum_opIddEEKNS_7ProductINS3_IdLin1ELin1ELi0ELin1ELin1EEES4_Li0EEEKSA_EEEENS0_9assign_opIddEELi0EE4sizeEv, symObjAddr: 0xA920, symBinAddr: 0x10000B1D0, symSize: 0x28 }
  - { offsetInCU: 0x151F1C, offset: 0x151F1C, size: 0x8, addend: 0x0, symName: __ZN5Eigen8internal31unaligned_dense_assignment_loopILb1EE3runINS0_31generic_dense_assignment_kernelINS0_9evaluatorINS_6MatrixIdLin1ELi1ELi0ELin1ELi1EEEEENS5_INS_13CwiseBinaryOpINS0_13scalar_sum_opIddEEKNS_7ProductINS6_IdLin1ELin1ELi0ELin1ELin1EEES7_Li0EEEKSD_EEEENS0_9assign_opIddEELi0EEEEEvRT_ll, symObjAddr: 0xA948, symBinAddr: 0x10000B1F8, symSize: 0x18 }
  - { offsetInCU: 0x151F5B, offset: 0x151F5B, size: 0x8, addend: 0x0, symName: __ZN5Eigen8internal31generic_dense_assignment_kernelINS0_9evaluatorINS_6MatrixIdLin1ELi1ELi0ELin1ELi1EEEEENS2_INS_13CwiseBinaryOpINS0_13scalar_sum_opIddEEKNS_7ProductINS3_IdLin1ELin1ELi0ELin1ELin1EEES4_Li0EEEKSA_EEEENS0_9assign_opIddEELi0EE12assignPacketILi16ELi16E19__simd128_float64_tEEvl, symObjAddr: 0xA960, symBinAddr: 0x10000B210, symSize: 0x64 }
  - { offsetInCU: 0x151FAD, offset: 0x151FAD, size: 0x8, addend: 0x0, symName: __ZN5Eigen8internal31unaligned_dense_assignment_loopILb0EE3runINS0_31generic_dense_assignment_kernelINS0_9evaluatorINS_6MatrixIdLin1ELi1ELi0ELin1ELi1EEEEENS5_INS_13CwiseBinaryOpINS0_13scalar_sum_opIddEEKNS_7ProductINS6_IdLin1ELin1ELi0ELin1ELin1EEES7_Li0EEEKSD_EEEENS0_9assign_opIddEELi0EEEEEvRT_ll, symObjAddr: 0xA9C4, symBinAddr: 0x10000B274, symSize: 0x68 }
  - { offsetInCU: 0x152015, offset: 0x152015, size: 0x8, addend: 0x0, symName: __ZN5Eigen8internal9evaluatorINS_15PlainObjectBaseINS_6MatrixIdLin1ELi1ELi0ELin1ELi1EEEEEE8coeffRefEl, symObjAddr: 0xAA2C, symBinAddr: 0x10000B2DC, symSize: 0x24 }
  - { offsetInCU: 0x152049, offset: 0x152049, size: 0x8, addend: 0x0, symName: __ZNK5Eigen8internal16binary_evaluatorINS_13CwiseBinaryOpINS0_13scalar_sum_opIddEEKNS_7ProductINS_6MatrixIdLin1ELin1ELi0ELin1ELin1EEENS6_IdLin1ELi1ELi0ELin1ELi1EEELi0EEEKS7_EENS0_10IndexBasedESD_ddE6packetILi16E19__simd128_float64_tEET0_l, symObjAddr: 0xAA50, symBinAddr: 0x10000B300, symSize: 0x70 }
  - { offsetInCU: 0x152091, offset: 0x152091, size: 0x8, addend: 0x0, symName: __ZNK5Eigen8internal16binary_evaluatorINS_13CwiseBinaryOpINS0_13scalar_sum_opIddEEKNS_7ProductINS_6MatrixIdLin1ELin1ELi0ELin1ELin1EEENS6_IdLin1ELi1ELi0ELin1ELi1EEELi0EEEKS7_EENS0_10IndexBasedESD_ddE4Data4funcEv, symObjAddr: 0xAAC0, symBinAddr: 0x10000B370, symSize: 0x14 }
  - { offsetInCU: 0x1520B7, offset: 0x1520B7, size: 0x8, addend: 0x0, symName: __ZN5Eigen8internal31generic_dense_assignment_kernelINS0_9evaluatorINS_6MatrixIdLin1ELi1ELi0ELin1ELi1EEEEENS2_INS_13CwiseBinaryOpINS0_13scalar_sum_opIddEEKNS_7ProductINS3_IdLin1ELin1ELi0ELin1ELin1EEES4_Li0EEEKSA_EEEENS0_9assign_opIddEELi0EE11assignCoeffEl, symObjAddr: 0xAAD4, symBinAddr: 0x10000B384, symSize: 0x64 }
  - { offsetInCU: 0x1520EC, offset: 0x1520EC, size: 0x8, addend: 0x0, symName: __ZNK5Eigen8internal16binary_evaluatorINS_13CwiseBinaryOpINS0_13scalar_sum_opIddEEKNS_7ProductINS_6MatrixIdLin1ELin1ELi0ELin1ELin1EEENS6_IdLin1ELi1ELi0ELin1ELi1EEELi0EEEKS7_EENS0_10IndexBasedESD_ddE5coeffEl, symObjAddr: 0xAB38, symBinAddr: 0x10000B3E8, symSize: 0x64 }
  - { offsetInCU: 0x152121, offset: 0x152121, size: 0x8, addend: 0x0, symName: __ZN5Eigen8internal9evaluatorINS_13CwiseBinaryOpINS0_13scalar_sum_opIddEEKNS_7ProductINS_6MatrixIdLin1ELin1ELi0ELin1ELin1EEENS6_IdLin1ELi1ELi0ELin1ELi1EEELi0EEEKS7_EEED2Ev, symObjAddr: 0xAB9C, symBinAddr: 0x10000B44C, symSize: 0x2C }
  - { offsetInCU: 0x15214E, offset: 0x15214E, size: 0x8, addend: 0x0, symName: __ZN5Eigen8internal16binary_evaluatorINS_13CwiseBinaryOpINS0_13scalar_sum_opIddEEKNS_7ProductINS_6MatrixIdLin1ELin1ELi0ELin1ELin1EEENS6_IdLin1ELi1ELi0ELin1ELi1EEELi0EEEKS7_EENS0_10IndexBasedESD_ddED2Ev, symObjAddr: 0xABC8, symBinAddr: 0x10000B478, symSize: 0x34 }
  - { offsetInCU: 0x15217A, offset: 0x15217A, size: 0x8, addend: 0x0, symName: __ZN5Eigen8internal16binary_evaluatorINS_13CwiseBinaryOpINS0_13scalar_sum_opIddEEKNS_7ProductINS_6MatrixIdLin1ELin1ELi0ELin1ELin1EEENS6_IdLin1ELi1ELi0ELin1ELi1EEELi0EEEKS7_EENS0_10IndexBasedESD_ddE4DataD1Ev, symObjAddr: 0xABFC, symBinAddr: 0x10000B4AC, symSize: 0x2C }
  - { offsetInCU: 0x1521A7, offset: 0x1521A7, size: 0x8, addend: 0x0, symName: __ZN5Eigen8internal16binary_evaluatorINS_13CwiseBinaryOpINS0_13scalar_sum_opIddEEKNS_7ProductINS_6MatrixIdLin1ELin1ELi0ELin1ELin1EEENS6_IdLin1ELi1ELi0ELin1ELi1EEELi0EEEKS7_EENS0_10IndexBasedESD_ddE4DataD2Ev, symObjAddr: 0xAC28, symBinAddr: 0x10000B4D8, symSize: 0x3C }
  - { offsetInCU: 0x1521D4, offset: 0x1521D4, size: 0x8, addend: 0x0, symName: __ZN5Eigen9DenseBaseINS_6MatrixIdLin1ELin1ELi0ELin1ELin1EEEE11NullaryExprINS_8internal18scalar_identity_opIdEEEEKNS_14CwiseNullaryOpIT_S2_EEllRKS9_, symObjAddr: 0xAC64, symBinAddr: 0x10000B514, symSize: 0x48 }
  - { offsetInCU: 0x152221, offset: 0x152221, size: 0x8, addend: 0x0, symName: __ZN5Eigen8internal18scalar_identity_opIdEC1Ev, symObjAddr: 0xACAC, symBinAddr: 0x10000B55C, symSize: 0x2C }
  - { offsetInCU: 0x15224B, offset: 0x15224B, size: 0x8, addend: 0x0, symName: __ZN5Eigen14CwiseNullaryOpINS_8internal18scalar_identity_opIdEENS_6MatrixIdLin1ELin1ELi0ELin1ELin1EEEEC1EllRKS3_, symObjAddr: 0xACD8, symBinAddr: 0x10000B588, symSize: 0x44 }
  - { offsetInCU: 0x15229F, offset: 0x15229F, size: 0x8, addend: 0x0, symName: __ZN5Eigen14CwiseNullaryOpINS_8internal18scalar_identity_opIdEENS_6MatrixIdLin1ELin1ELi0ELin1ELin1EEEEC2EllRKS3_, symObjAddr: 0xAD1C, symBinAddr: 0x10000B5CC, symSize: 0xDC }
  - { offsetInCU: 0x1522F3, offset: 0x1522F3, size: 0x8, addend: 0x0, symName: __ZN5Eigen10MatrixBaseINS_14CwiseNullaryOpINS_8internal18scalar_identity_opIdEENS_6MatrixIdLin1ELin1ELi0ELin1ELin1EEEEEEC2Ev, symObjAddr: 0xADF8, symBinAddr: 0x10000B6A8, symSize: 0x2C }
  - { offsetInCU: 0x15231D, offset: 0x15231D, size: 0x8, addend: 0x0, symName: __ZN5Eigen8internal18scalar_identity_opIdEC1ERKS2_, symObjAddr: 0xAE24, symBinAddr: 0x10000B6D4, symSize: 0x34 }
  - { offsetInCU: 0x152352, offset: 0x152352, size: 0x8, addend: 0x0, symName: __ZN5Eigen9DenseBaseINS_14CwiseNullaryOpINS_8internal18scalar_identity_opIdEENS_6MatrixIdLin1ELin1ELi0ELin1ELin1EEEEEEC2Ev, symObjAddr: 0xAE58, symBinAddr: 0x10000B708, symSize: 0x14 }
  - { offsetInCU: 0x15237C, offset: 0x15237C, size: 0x8, addend: 0x0, symName: __ZN5Eigen8internal18scalar_identity_opIdEC2ERKS2_, symObjAddr: 0xAE6C, symBinAddr: 0x10000B71C, symSize: 0x18 }
  - { offsetInCU: 0x1523B1, offset: 0x1523B1, size: 0x8, addend: 0x0, symName: __ZN5Eigen8internal18scalar_identity_opIdEC2Ev, symObjAddr: 0xAE84, symBinAddr: 0x10000B734, symSize: 0x14 }
  - { offsetInCU: 0x1523DB, offset: 0x1523DB, size: 0x8, addend: 0x0, symName: __ZNK5Eigen9EigenBaseINS_14CwiseNullaryOpINS_8internal18scalar_identity_opIdEENS_6MatrixIdLin1ELin1ELi0ELin1ELin1EEEEEE7derivedEv, symObjAddr: 0xAE98, symBinAddr: 0x10000B748, symSize: 0x14 }
  - { offsetInCU: 0x152401, offset: 0x152401, size: 0x8, addend: 0x0, symName: __ZNK5Eigen14CwiseNullaryOpINS_8internal18scalar_identity_opIdEENS_6MatrixIdLin1ELin1ELi0ELin1ELin1EEEE4rowsEv, symObjAddr: 0xAEAC, symBinAddr: 0x10000B75C, symSize: 0x24 }
  - { offsetInCU: 0x152427, offset: 0x152427, size: 0x8, addend: 0x0, symName: __ZNK5Eigen14CwiseNullaryOpINS_8internal18scalar_identity_opIdEENS_6MatrixIdLin1ELin1ELi0ELin1ELin1EEEE4colsEv, symObjAddr: 0xAED0, symBinAddr: 0x10000B780, symSize: 0x28 }
  - { offsetInCU: 0x15244D, offset: 0x15244D, size: 0x8, addend: 0x0, symName: __ZN5Eigen14CwiseNullaryOpINS_8internal18scalar_constant_opIdEEKNS_6MatrixIdLin1ELin1ELi0ELin1ELin1EEEEC1EllRKS3_, symObjAddr: 0xAEF8, symBinAddr: 0x10000B7A8, symSize: 0x44 }
  - { offsetInCU: 0x1524A1, offset: 0x1524A1, size: 0x8, addend: 0x0, symName: __ZN5Eigen8internal17scalar_product_opIddEC1Ev, symObjAddr: 0xAF3C, symBinAddr: 0x10000B7EC, symSize: 0x2C }
  - { offsetInCU: 0x1524CB, offset: 0x1524CB, size: 0x8, addend: 0x0, symName: __ZN5Eigen13CwiseBinaryOpINS_8internal17scalar_product_opIddEEKNS_14CwiseNullaryOpINS1_18scalar_identity_opIdEENS_6MatrixIdLin1ELin1ELi0ELin1ELin1EEEEEKNS4_INS1_18scalar_constant_opIdEEKS8_EEEC1ERSA_RSF_RKS3_, symObjAddr: 0xAF68, symBinAddr: 0x10000B818, symSize: 0x44 }
  - { offsetInCU: 0x15251F, offset: 0x15251F, size: 0x8, addend: 0x0, symName: __ZN5Eigen14CwiseNullaryOpINS_8internal18scalar_constant_opIdEEKNS_6MatrixIdLin1ELin1ELi0ELin1ELin1EEEEC2EllRKS3_, symObjAddr: 0xAFAC, symBinAddr: 0x10000B85C, symSize: 0xDC }
  - { offsetInCU: 0x152573, offset: 0x152573, size: 0x8, addend: 0x0, symName: __ZN5Eigen10MatrixBaseINS_14CwiseNullaryOpINS_8internal18scalar_constant_opIdEEKNS_6MatrixIdLin1ELin1ELi0ELin1ELin1EEEEEEC2Ev, symObjAddr: 0xB088, symBinAddr: 0x10000B938, symSize: 0x2C }
  - { offsetInCU: 0x15259D, offset: 0x15259D, size: 0x8, addend: 0x0, symName: __ZN5Eigen9DenseBaseINS_14CwiseNullaryOpINS_8internal18scalar_constant_opIdEEKNS_6MatrixIdLin1ELin1ELi0ELin1ELin1EEEEEEC2Ev, symObjAddr: 0xB0B4, symBinAddr: 0x10000B964, symSize: 0x14 }
  - { offsetInCU: 0x1525C7, offset: 0x1525C7, size: 0x8, addend: 0x0, symName: __ZN5Eigen8internal17scalar_product_opIddEC2Ev, symObjAddr: 0xB0C8, symBinAddr: 0x10000B978, symSize: 0x14 }
  - { offsetInCU: 0x1525F1, offset: 0x1525F1, size: 0x8, addend: 0x0, symName: __ZN5Eigen13CwiseBinaryOpINS_8internal17scalar_product_opIddEEKNS_14CwiseNullaryOpINS1_18scalar_identity_opIdEENS_6MatrixIdLin1ELin1ELi0ELin1ELin1EEEEEKNS4_INS1_18scalar_constant_opIdEEKS8_EEEC2ERSA_RSF_RKS3_, symObjAddr: 0xB0DC, symBinAddr: 0x10000B98C, symSize: 0xFC }
  - { offsetInCU: 0x15264A, offset: 0x15264A, size: 0x8, addend: 0x0, symName: __ZN5Eigen17CwiseBinaryOpImplINS_8internal17scalar_product_opIddEEKNS_14CwiseNullaryOpINS1_18scalar_identity_opIdEENS_6MatrixIdLin1ELin1ELi0ELin1ELin1EEEEEKNS4_INS1_18scalar_constant_opIdEEKS8_EENS_5DenseEEC2Ev, symObjAddr: 0xB1D8, symBinAddr: 0x10000BA88, symSize: 0x2C }
  - { offsetInCU: 0x152676, offset: 0x152676, size: 0x8, addend: 0x0, symName: __ZN5Eigen14CwiseNullaryOpINS_8internal18scalar_identity_opIdEENS_6MatrixIdLin1ELin1ELi0ELin1ELin1EEEEC1ERKS6_, symObjAddr: 0xB204, symBinAddr: 0x10000BAB4, symSize: 0x34 }
  - { offsetInCU: 0x1526AB, offset: 0x1526AB, size: 0x8, addend: 0x0, symName: __ZN5Eigen14CwiseNullaryOpINS_8internal18scalar_constant_opIdEEKNS_6MatrixIdLin1ELin1ELi0ELin1ELin1EEEEC1ERKS7_, symObjAddr: 0xB238, symBinAddr: 0x10000BAE8, symSize: 0x34 }
  - { offsetInCU: 0x1526E0, offset: 0x1526E0, size: 0x8, addend: 0x0, symName: __ZN5Eigen8internal17scalar_product_opIddEC1ERKS2_, symObjAddr: 0xB26C, symBinAddr: 0x10000BB1C, symSize: 0x34 }
  - { offsetInCU: 0x152715, offset: 0x152715, size: 0x8, addend: 0x0, symName: __ZNK5Eigen14CwiseNullaryOpINS_8internal18scalar_constant_opIdEEKNS_6MatrixIdLin1ELin1ELi0ELin1ELin1EEEE4rowsEv, symObjAddr: 0xB2A0, symBinAddr: 0x10000BB50, symSize: 0x24 }
  - { offsetInCU: 0x15273B, offset: 0x15273B, size: 0x8, addend: 0x0, symName: __ZNK5Eigen14CwiseNullaryOpINS_8internal18scalar_constant_opIdEEKNS_6MatrixIdLin1ELin1ELi0ELin1ELin1EEEE4colsEv, symObjAddr: 0xB2C4, symBinAddr: 0x10000BB74, symSize: 0x28 }
  - { offsetInCU: 0x152761, offset: 0x152761, size: 0x8, addend: 0x0, symName: __ZN5Eigen10MatrixBaseINS_13CwiseBinaryOpINS_8internal17scalar_product_opIddEEKNS_14CwiseNullaryOpINS2_18scalar_identity_opIdEENS_6MatrixIdLin1ELin1ELi0ELin1ELin1EEEEEKNS5_INS2_18scalar_constant_opIdEEKS9_EEEEEC2Ev, symObjAddr: 0xB2EC, symBinAddr: 0x10000BB9C, symSize: 0x2C }
  - { offsetInCU: 0x15278B, offset: 0x15278B, size: 0x8, addend: 0x0, symName: __ZN5Eigen9DenseBaseINS_13CwiseBinaryOpINS_8internal17scalar_product_opIddEEKNS_14CwiseNullaryOpINS2_18scalar_identity_opIdEENS_6MatrixIdLin1ELin1ELi0ELin1ELin1EEEEEKNS5_INS2_18scalar_constant_opIdEEKS9_EEEEEC2Ev, symObjAddr: 0xB318, symBinAddr: 0x10000BBC8, symSize: 0x14 }
  - { offsetInCU: 0x1527B5, offset: 0x1527B5, size: 0x8, addend: 0x0, symName: __ZN5Eigen14CwiseNullaryOpINS_8internal18scalar_identity_opIdEENS_6MatrixIdLin1ELin1ELi0ELin1ELin1EEEEC2ERKS6_, symObjAddr: 0xB32C, symBinAddr: 0x10000BBDC, symSize: 0x48 }
  - { offsetInCU: 0x1527EA, offset: 0x1527EA, size: 0x8, addend: 0x0, symName: __ZN5Eigen14CwiseNullaryOpINS_8internal18scalar_constant_opIdEEKNS_6MatrixIdLin1ELin1ELi0ELin1ELin1EEEEC2ERKS7_, symObjAddr: 0xB374, symBinAddr: 0x10000BC24, symSize: 0x48 }
  - { offsetInCU: 0x15281F, offset: 0x15281F, size: 0x8, addend: 0x0, symName: __ZN5Eigen8internal17scalar_product_opIddEC2ERKS2_, symObjAddr: 0xB3BC, symBinAddr: 0x10000BC6C, symSize: 0x18 }
  - { offsetInCU: 0x152854, offset: 0x152854, size: 0x8, addend: 0x0, symName: __ZN5Eigen6MatrixIdLin1ELin1ELi0ELin1ELin1EEC2INS_13CwiseBinaryOpINS_8internal17scalar_product_opIddEEKNS_14CwiseNullaryOpINS4_18scalar_identity_opIdEES1_EEKNS7_INS4_18scalar_constant_opIdEEKS1_EEEEEERKNS_9EigenBaseIT_EE, symObjAddr: 0xB3D4, symBinAddr: 0x10000BC84, symSize: 0x40 }
  - { offsetInCU: 0x152896, offset: 0x152896, size: 0x8, addend: 0x0, symName: __ZNK5Eigen9EigenBaseINS_13CwiseBinaryOpINS_8internal17scalar_product_opIddEEKNS_14CwiseNullaryOpINS2_18scalar_identity_opIdEENS_6MatrixIdLin1ELin1ELi0ELin1ELin1EEEEEKNS5_INS2_18scalar_constant_opIdEEKS9_EEEEE7derivedEv, symObjAddr: 0xB414, symBinAddr: 0x10000BCC4, symSize: 0x14 }
  - { offsetInCU: 0x1528BC, offset: 0x1528BC, size: 0x8, addend: 0x0, symName: __ZN5Eigen15PlainObjectBaseINS_6MatrixIdLin1ELin1ELi0ELin1ELin1EEEEC2INS_13CwiseBinaryOpINS_8internal17scalar_product_opIddEEKNS_14CwiseNullaryOpINS6_18scalar_identity_opIdEES2_EEKNS9_INS6_18scalar_constant_opIdEEKS2_EEEEEERKNS_9DenseBaseIT_EE, symObjAddr: 0xB428, symBinAddr: 0x10000BCD8, symSize: 0x80 }
  - { offsetInCU: 0x1528FE, offset: 0x1528FE, size: 0x8, addend: 0x0, symName: __ZN5Eigen15PlainObjectBaseINS_6MatrixIdLin1ELin1ELi0ELin1ELin1EEEE10resizeLikeINS_13CwiseBinaryOpINS_8internal17scalar_product_opIddEEKNS_14CwiseNullaryOpINS6_18scalar_identity_opIdEES2_EEKNS9_INS6_18scalar_constant_opIdEEKS2_EEEEEEvRKNS_9EigenBaseIT_EE, symObjAddr: 0xB4A8, symBinAddr: 0x10000BD58, symSize: 0x11C }
  - { offsetInCU: 0x152992, offset: 0x152992, size: 0x8, addend: 0x0, symName: __ZN5Eigen15PlainObjectBaseINS_6MatrixIdLin1ELin1ELi0ELin1ELin1EEEE12_set_noaliasINS_13CwiseBinaryOpINS_8internal17scalar_product_opIddEEKNS_14CwiseNullaryOpINS6_18scalar_identity_opIdEES2_EEKNS9_INS6_18scalar_constant_opIdEEKS2_EEEEEERS2_RKNS_9DenseBaseIT_EE, symObjAddr: 0xB5C4, symBinAddr: 0x10000BE74, symSize: 0x60 }
  - { offsetInCU: 0x1529D0, offset: 0x1529D0, size: 0x8, addend: 0x0, symName: __ZNK5Eigen13CwiseBinaryOpINS_8internal17scalar_product_opIddEEKNS_14CwiseNullaryOpINS1_18scalar_identity_opIdEENS_6MatrixIdLin1ELin1ELi0ELin1ELin1EEEEEKNS4_INS1_18scalar_constant_opIdEEKS8_EEE4rowsEv, symObjAddr: 0xB624, symBinAddr: 0x10000BED4, symSize: 0x28 }
  - { offsetInCU: 0x1529F6, offset: 0x1529F6, size: 0x8, addend: 0x0, symName: __ZNK5Eigen13CwiseBinaryOpINS_8internal17scalar_product_opIddEEKNS_14CwiseNullaryOpINS1_18scalar_identity_opIdEENS_6MatrixIdLin1ELin1ELi0ELin1ELin1EEEEEKNS4_INS1_18scalar_constant_opIdEEKS8_EEE4colsEv, symObjAddr: 0xB64C, symBinAddr: 0x10000BEFC, symSize: 0x28 }
  - { offsetInCU: 0x152A1C, offset: 0x152A1C, size: 0x8, addend: 0x0, symName: __ZN5Eigen8internal10AssignmentINS_6MatrixIdLin1ELin1ELi0ELin1ELin1EEENS_13CwiseBinaryOpINS0_17scalar_product_opIddEEKNS_14CwiseNullaryOpINS0_18scalar_identity_opIdEES3_EEKNS7_INS0_18scalar_constant_opIdEEKS3_EEEENS0_9assign_opIddEENS0_11Dense2DenseEvE3runERS3_RKSH_RKSJ_, symObjAddr: 0xB6B0, symBinAddr: 0x10000BF60, symSize: 0x40 }
  - { offsetInCU: 0x152A5E, offset: 0x152A5E, size: 0x8, addend: 0x0, symName: __ZN5Eigen8internal27checkTransposeAliasing_implINS_6MatrixIdLin1ELin1ELi0ELin1ELin1EEENS_13CwiseBinaryOpINS0_17scalar_product_opIddEEKNS_14CwiseNullaryOpINS0_18scalar_identity_opIdEES3_EEKNS7_INS0_18scalar_constant_opIdEEKS3_EEEELb0EE3runERSE_RKSH_, symObjAddr: 0xB828, symBinAddr: 0x10000C0D8, symSize: 0x14 }
  - { offsetInCU: 0x152B1A, offset: 0x152B1A, size: 0x8, addend: 0x0, symName: __ZN5Eigen8internal9evaluatorINS_13CwiseBinaryOpINS0_17scalar_product_opIddEEKNS_14CwiseNullaryOpINS0_18scalar_identity_opIdEENS_6MatrixIdLin1ELin1ELi0ELin1ELin1EEEEEKNS5_INS0_18scalar_constant_opIdEEKS9_EEEEEC1ERKSH_, symObjAddr: 0xB83C, symBinAddr: 0x10000C0EC, symSize: 0x34 }
  - { offsetInCU: 0x152B80, offset: 0x152B80, size: 0x8, addend: 0x0, symName: __ZN5Eigen8internal31generic_dense_assignment_kernelINS0_9evaluatorINS_6MatrixIdLin1ELin1ELi0ELin1ELin1EEEEENS2_INS_13CwiseBinaryOpINS0_17scalar_product_opIddEEKNS_14CwiseNullaryOpINS0_18scalar_identity_opIdEES4_EEKNS9_INS0_18scalar_constant_opIdEEKS4_EEEEEENS0_9assign_opIddEELi0EEC1ERS5_RKSK_RKSM_RS4_, symObjAddr: 0xB968, symBinAddr: 0x10000C218, symSize: 0x4C }
  - { offsetInCU: 0x152BEB, offset: 0x152BEB, size: 0x8, addend: 0x0, symName: __ZN5Eigen8internal21dense_assignment_loopINS0_31generic_dense_assignment_kernelINS0_9evaluatorINS_6MatrixIdLin1ELin1ELi0ELin1ELin1EEEEENS3_INS_13CwiseBinaryOpINS0_17scalar_product_opIddEEKNS_14CwiseNullaryOpINS0_18scalar_identity_opIdEES5_EEKNSA_INS0_18scalar_constant_opIdEEKS5_EEEEEENS0_9assign_opIddEELi0EEELi0ELi0EE3runERSO_, symObjAddr: 0xB9B4, symBinAddr: 0x10000C264, symSize: 0xAC }
  - { offsetInCU: 0x152C49, offset: 0x152C49, size: 0x8, addend: 0x0, symName: __ZN5Eigen8internal9evaluatorINS_13CwiseBinaryOpINS0_17scalar_product_opIddEEKNS_14CwiseNullaryOpINS0_18scalar_identity_opIdEENS_6MatrixIdLin1ELin1ELi0ELin1ELin1EEEEEKNS5_INS0_18scalar_constant_opIdEEKS9_EEEEED1Ev, symObjAddr: 0xBA60, symBinAddr: 0x10000C310, symSize: 0x2C }
  - { offsetInCU: 0x152C76, offset: 0x152C76, size: 0x8, addend: 0x0, symName: __ZN5Eigen8internal9evaluatorINS_13CwiseBinaryOpINS0_17scalar_product_opIddEEKNS_14CwiseNullaryOpINS0_18scalar_identity_opIdEENS_6MatrixIdLin1ELin1ELi0ELin1ELin1EEEEEKNS5_INS0_18scalar_constant_opIdEEKS9_EEEEEC2ERKSH_, symObjAddr: 0xBA8C, symBinAddr: 0x10000C33C, symSize: 0x34 }
  - { offsetInCU: 0x152CAF, offset: 0x152CAF, size: 0x8, addend: 0x0, symName: __ZN5Eigen8internal16binary_evaluatorINS_13CwiseBinaryOpINS0_17scalar_product_opIddEEKNS_14CwiseNullaryOpINS0_18scalar_identity_opIdEENS_6MatrixIdLin1ELin1ELi0ELin1ELin1EEEEEKNS5_INS0_18scalar_constant_opIdEEKS9_EEEENS0_10IndexBasedESI_ddEC2ERKSH_, symObjAddr: 0xBAC0, symBinAddr: 0x10000C370, symSize: 0x64 }
  - { offsetInCU: 0x152CE8, offset: 0x152CE8, size: 0x8, addend: 0x0, symName: __ZN5Eigen8internal14evaluator_baseINS_13CwiseBinaryOpINS0_17scalar_product_opIddEEKNS_14CwiseNullaryOpINS0_18scalar_identity_opIdEENS_6MatrixIdLin1ELin1ELi0ELin1ELin1EEEEEKNS5_INS0_18scalar_constant_opIdEEKS9_EEEEEC2Ev, symObjAddr: 0xBB24, symBinAddr: 0x10000C3D4, symSize: 0x14 }
  - { offsetInCU: 0x152D12, offset: 0x152D12, size: 0x8, addend: 0x0, symName: __ZN5Eigen8internal16binary_evaluatorINS_13CwiseBinaryOpINS0_17scalar_product_opIddEEKNS_14CwiseNullaryOpINS0_18scalar_identity_opIdEENS_6MatrixIdLin1ELin1ELi0ELin1ELin1EEEEEKNS5_INS0_18scalar_constant_opIdEEKS9_EEEENS0_10IndexBasedESI_ddE4DataC1ERKSH_, symObjAddr: 0xBB38, symBinAddr: 0x10000C3E8, symSize: 0x34 }
  - { offsetInCU: 0x152D4B, offset: 0x152D4B, size: 0x8, addend: 0x0, symName: __ZN5Eigen8internal14evaluator_baseINS_13CwiseBinaryOpINS0_17scalar_product_opIddEEKNS_14CwiseNullaryOpINS0_18scalar_identity_opIdEENS_6MatrixIdLin1ELin1ELi0ELin1ELin1EEEEEKNS5_INS0_18scalar_constant_opIdEEKS9_EEEEED2Ev, symObjAddr: 0xBB6C, symBinAddr: 0x10000C41C, symSize: 0x14 }
  - { offsetInCU: 0x152D75, offset: 0x152D75, size: 0x8, addend: 0x0, symName: __ZN5Eigen8internal16binary_evaluatorINS_13CwiseBinaryOpINS0_17scalar_product_opIddEEKNS_14CwiseNullaryOpINS0_18scalar_identity_opIdEENS_6MatrixIdLin1ELin1ELi0ELin1ELin1EEEEEKNS5_INS0_18scalar_constant_opIdEEKS9_EEEENS0_10IndexBasedESI_ddE4DataC2ERKSH_, symObjAddr: 0xBB80, symBinAddr: 0x10000C430, symSize: 0xA8 }
  - { offsetInCU: 0x152DAE, offset: 0x152DAE, size: 0x8, addend: 0x0, symName: __ZNK5Eigen13CwiseBinaryOpINS_8internal17scalar_product_opIddEEKNS_14CwiseNullaryOpINS1_18scalar_identity_opIdEENS_6MatrixIdLin1ELin1ELi0ELin1ELin1EEEEEKNS4_INS1_18scalar_constant_opIdEEKS8_EEE7functorEv, symObjAddr: 0xBC28, symBinAddr: 0x10000C4D8, symSize: 0x18 }
  - { offsetInCU: 0x152DD4, offset: 0x152DD4, size: 0x8, addend: 0x0, symName: __ZNK5Eigen13CwiseBinaryOpINS_8internal17scalar_product_opIddEEKNS_14CwiseNullaryOpINS1_18scalar_identity_opIdEENS_6MatrixIdLin1ELin1ELi0ELin1ELin1EEEEEKNS4_INS1_18scalar_constant_opIdEEKS8_EEE3lhsEv, symObjAddr: 0xBC40, symBinAddr: 0x10000C4F0, symSize: 0x18 }
  - { offsetInCU: 0x152DFA, offset: 0x152DFA, size: 0x8, addend: 0x0, symName: __ZN5Eigen8internal9evaluatorIKNS_14CwiseNullaryOpINS0_18scalar_identity_opIdEENS_6MatrixIdLin1ELin1ELi0ELin1ELin1EEEEEEC1ERS8_, symObjAddr: 0xBC58, symBinAddr: 0x10000C508, symSize: 0x34 }
  - { offsetInCU: 0x152E32, offset: 0x152E32, size: 0x8, addend: 0x0, symName: __ZNK5Eigen13CwiseBinaryOpINS_8internal17scalar_product_opIddEEKNS_14CwiseNullaryOpINS1_18scalar_identity_opIdEENS_6MatrixIdLin1ELin1ELi0ELin1ELin1EEEEEKNS4_INS1_18scalar_constant_opIdEEKS8_EEE3rhsEv, symObjAddr: 0xBC8C, symBinAddr: 0x10000C53C, symSize: 0x18 }
  - { offsetInCU: 0x152E58, offset: 0x152E58, size: 0x8, addend: 0x0, symName: __ZN5Eigen8internal9evaluatorIKNS_14CwiseNullaryOpINS0_18scalar_constant_opIdEEKNS_6MatrixIdLin1ELin1ELi0ELin1ELin1EEEEEEC1ERS9_, symObjAddr: 0xBCA4, symBinAddr: 0x10000C554, symSize: 0x34 }
  - { offsetInCU: 0x152E90, offset: 0x152E90, size: 0x8, addend: 0x0, symName: __ZN5Eigen8internal9evaluatorIKNS_14CwiseNullaryOpINS0_18scalar_identity_opIdEENS_6MatrixIdLin1ELin1ELi0ELin1ELin1EEEEEED1Ev, symObjAddr: 0xBCD8, symBinAddr: 0x10000C588, symSize: 0x2C }
  - { offsetInCU: 0x152EBC, offset: 0x152EBC, size: 0x8, addend: 0x0, symName: __ZN5Eigen8internal9evaluatorIKNS_14CwiseNullaryOpINS0_18scalar_identity_opIdEENS_6MatrixIdLin1ELin1ELi0ELin1ELin1EEEEEEC2ERS8_, symObjAddr: 0xBD04, symBinAddr: 0x10000C5B4, symSize: 0x34 }
  - { offsetInCU: 0x152EF4, offset: 0x152EF4, size: 0x8, addend: 0x0, symName: __ZN5Eigen8internal9evaluatorINS_14CwiseNullaryOpINS0_18scalar_identity_opIdEENS_6MatrixIdLin1ELin1ELi0ELin1ELin1EEEEEEC2ERKS7_, symObjAddr: 0xBD38, symBinAddr: 0x10000C5E8, symSize: 0x74 }
  - { offsetInCU: 0x152F2D, offset: 0x152F2D, size: 0x8, addend: 0x0, symName: __ZN5Eigen8internal14evaluator_baseINS_14CwiseNullaryOpINS0_18scalar_identity_opIdEENS_6MatrixIdLin1ELin1ELi0ELin1ELin1EEEEEEC2Ev, symObjAddr: 0xBDAC, symBinAddr: 0x10000C65C, symSize: 0x14 }
  - { offsetInCU: 0x152F57, offset: 0x152F57, size: 0x8, addend: 0x0, symName: __ZNK5Eigen14CwiseNullaryOpINS_8internal18scalar_identity_opIdEENS_6MatrixIdLin1ELin1ELi0ELin1ELin1EEEE7functorEv, symObjAddr: 0xBDC0, symBinAddr: 0x10000C670, symSize: 0x18 }
  - { offsetInCU: 0x152F7D, offset: 0x152F7D, size: 0x8, addend: 0x0, symName: __ZN5Eigen8internal14evaluator_baseINS_14CwiseNullaryOpINS0_18scalar_identity_opIdEENS_6MatrixIdLin1ELin1ELi0ELin1ELin1EEEEEED2Ev, symObjAddr: 0xBDD8, symBinAddr: 0x10000C688, symSize: 0x14 }
  - { offsetInCU: 0x152FA7, offset: 0x152FA7, size: 0x8, addend: 0x0, symName: __ZN5Eigen8internal9evaluatorIKNS_14CwiseNullaryOpINS0_18scalar_constant_opIdEEKNS_6MatrixIdLin1ELin1ELi0ELin1ELin1EEEEEEC2ERS9_, symObjAddr: 0xBDEC, symBinAddr: 0x10000C69C, symSize: 0x34 }
  - { offsetInCU: 0x152FDF, offset: 0x152FDF, size: 0x8, addend: 0x0, symName: __ZN5Eigen8internal9evaluatorINS_14CwiseNullaryOpINS0_18scalar_constant_opIdEEKNS_6MatrixIdLin1ELin1ELi0ELin1ELin1EEEEEEC2ERKS8_, symObjAddr: 0xBE20, symBinAddr: 0x10000C6D0, symSize: 0x74 }
  - { offsetInCU: 0x153018, offset: 0x153018, size: 0x8, addend: 0x0, symName: __ZN5Eigen8internal14evaluator_baseINS_14CwiseNullaryOpINS0_18scalar_constant_opIdEEKNS_6MatrixIdLin1ELin1ELi0ELin1ELin1EEEEEEC2Ev, symObjAddr: 0xBE94, symBinAddr: 0x10000C744, symSize: 0x14 }
  - { offsetInCU: 0x153042, offset: 0x153042, size: 0x8, addend: 0x0, symName: __ZNK5Eigen14CwiseNullaryOpINS_8internal18scalar_constant_opIdEEKNS_6MatrixIdLin1ELin1ELi0ELin1ELin1EEEE7functorEv, symObjAddr: 0xBEA8, symBinAddr: 0x10000C758, symSize: 0x18 }
  - { offsetInCU: 0x153068, offset: 0x153068, size: 0x8, addend: 0x0, symName: __ZN5Eigen8internal14evaluator_baseINS_14CwiseNullaryOpINS0_18scalar_constant_opIdEEKNS_6MatrixIdLin1ELin1ELi0ELin1ELin1EEEEEED2Ev, symObjAddr: 0xBEC0, symBinAddr: 0x10000C770, symSize: 0x14 }
  - { offsetInCU: 0x153092, offset: 0x153092, size: 0x8, addend: 0x0, symName: __ZN5Eigen8internal9evaluatorIKNS_14CwiseNullaryOpINS0_18scalar_identity_opIdEENS_6MatrixIdLin1ELin1ELi0ELin1ELin1EEEEEED2Ev, symObjAddr: 0xBED4, symBinAddr: 0x10000C784, symSize: 0x2C }
  - { offsetInCU: 0x1530BE, offset: 0x1530BE, size: 0x8, addend: 0x0, symName: __ZN5Eigen8internal9evaluatorINS_14CwiseNullaryOpINS0_18scalar_identity_opIdEENS_6MatrixIdLin1ELin1ELi0ELin1ELin1EEEEEED2Ev, symObjAddr: 0xBF00, symBinAddr: 0x10000C7B0, symSize: 0x2C }
  - { offsetInCU: 0x1530EA, offset: 0x1530EA, size: 0x8, addend: 0x0, symName: __ZN5Eigen8internal31generic_dense_assignment_kernelINS0_9evaluatorINS_6MatrixIdLin1ELin1ELi0ELin1ELin1EEEEENS2_INS_13CwiseBinaryOpINS0_17scalar_product_opIddEEKNS_14CwiseNullaryOpINS0_18scalar_identity_opIdEES4_EEKNS9_INS0_18scalar_constant_opIdEEKS4_EEEEEENS0_9assign_opIddEELi0EEC2ERS5_RKSK_RKSM_RS4_, symObjAddr: 0xBF2C, symBinAddr: 0x10000C7DC, symSize: 0x44 }
  - { offsetInCU: 0x153150, offset: 0x153150, size: 0x8, addend: 0x0, symName: __ZNK5Eigen8internal31generic_dense_assignment_kernelINS0_9evaluatorINS_6MatrixIdLin1ELin1ELi0ELin1ELin1EEEEENS2_INS_13CwiseBinaryOpINS0_17scalar_product_opIddEEKNS_14CwiseNullaryOpINS0_18scalar_identity_opIdEES4_EEKNS9_INS0_18scalar_constant_opIdEEKS4_EEEEEENS0_9assign_opIddEELi0EE9outerSizeEv, symObjAddr: 0xBF70, symBinAddr: 0x10000C820, symSize: 0x38 }
  - { offsetInCU: 0x153176, offset: 0x153176, size: 0x8, addend: 0x0, symName: __ZNK5Eigen8internal31generic_dense_assignment_kernelINS0_9evaluatorINS_6MatrixIdLin1ELin1ELi0ELin1ELin1EEEEENS2_INS_13CwiseBinaryOpINS0_17scalar_product_opIddEEKNS_14CwiseNullaryOpINS0_18scalar_identity_opIdEES4_EEKNS9_INS0_18scalar_constant_opIdEEKS4_EEEEEENS0_9assign_opIddEELi0EE9innerSizeEv, symObjAddr: 0xBFA8, symBinAddr: 0x10000C858, symSize: 0x28 }
  - { offsetInCU: 0x15319C, offset: 0x15319C, size: 0x8, addend: 0x0, symName: __ZN5Eigen8internal31generic_dense_assignment_kernelINS0_9evaluatorINS_6MatrixIdLin1ELin1ELi0ELin1ELin1EEEEENS2_INS_13CwiseBinaryOpINS0_17scalar_product_opIddEEKNS_14CwiseNullaryOpINS0_18scalar_identity_opIdEES4_EEKNS9_INS0_18scalar_constant_opIdEEKS4_EEEEEENS0_9assign_opIddEELi0EE23assignCoeffByOuterInnerEll, symObjAddr: 0xBFD0, symBinAddr: 0x10000C880, symSize: 0x60 }
  - { offsetInCU: 0x1531FE, offset: 0x1531FE, size: 0x8, addend: 0x0, symName: __ZNK5Eigen9DenseBaseINS_6MatrixIdLin1ELin1ELi0ELin1ELin1EEEE9outerSizeEv, symObjAddr: 0xC030, symBinAddr: 0x10000C8E0, symSize: 0x24 }
  - { offsetInCU: 0x153224, offset: 0x153224, size: 0x8, addend: 0x0, symName: __ZN5Eigen8internal31generic_dense_assignment_kernelINS0_9evaluatorINS_6MatrixIdLin1ELin1ELi0ELin1ELin1EEEEENS2_INS_13CwiseBinaryOpINS0_17scalar_product_opIddEEKNS_14CwiseNullaryOpINS0_18scalar_identity_opIdEES4_EEKNS9_INS0_18scalar_constant_opIdEEKS4_EEEEEENS0_9assign_opIddEELi0EE20rowIndexByOuterInnerEll, symObjAddr: 0xC054, symBinAddr: 0x10000C904, symSize: 0x18 }
  - { offsetInCU: 0x153257, offset: 0x153257, size: 0x8, addend: 0x0, symName: __ZN5Eigen8internal31generic_dense_assignment_kernelINS0_9evaluatorINS_6MatrixIdLin1ELin1ELi0ELin1ELin1EEEEENS2_INS_13CwiseBinaryOpINS0_17scalar_product_opIddEEKNS_14CwiseNullaryOpINS0_18scalar_identity_opIdEES4_EEKNS9_INS0_18scalar_constant_opIdEEKS4_EEEEEENS0_9assign_opIddEELi0EE20colIndexByOuterInnerEll, symObjAddr: 0xC06C, symBinAddr: 0x10000C91C, symSize: 0x18 }
  - { offsetInCU: 0x15328A, offset: 0x15328A, size: 0x8, addend: 0x0, symName: __ZN5Eigen8internal31generic_dense_assignment_kernelINS0_9evaluatorINS_6MatrixIdLin1ELin1ELi0ELin1ELin1EEEEENS2_INS_13CwiseBinaryOpINS0_17scalar_product_opIddEEKNS_14CwiseNullaryOpINS0_18scalar_identity_opIdEES4_EEKNS9_INS0_18scalar_constant_opIdEEKS4_EEEEEENS0_9assign_opIddEELi0EE11assignCoeffEll, symObjAddr: 0xC084, symBinAddr: 0x10000C934, symSize: 0x70 }
  - { offsetInCU: 0x1532CE, offset: 0x1532CE, size: 0x8, addend: 0x0, symName: __ZN5Eigen8internal9evaluatorINS_15PlainObjectBaseINS_6MatrixIdLin1ELin1ELi0ELin1ELin1EEEEEE8coeffRefEll, symObjAddr: 0xC0F4, symBinAddr: 0x10000C9A4, symSize: 0x5C }
  - { offsetInCU: 0x153310, offset: 0x153310, size: 0x8, addend: 0x0, symName: __ZNK5Eigen8internal16binary_evaluatorINS_13CwiseBinaryOpINS0_17scalar_product_opIddEEKNS_14CwiseNullaryOpINS0_18scalar_identity_opIdEENS_6MatrixIdLin1ELin1ELi0ELin1ELin1EEEEEKNS5_INS0_18scalar_constant_opIdEEKS9_EEEENS0_10IndexBasedESI_ddE5coeffEll, symObjAddr: 0xC150, symBinAddr: 0x10000CA00, symSize: 0x7C }
  - { offsetInCU: 0x153354, offset: 0x153354, size: 0x8, addend: 0x0, symName: __ZNK5Eigen8internal30plainobjectbase_evaluator_dataIdLin1EE11outerStrideEv, symObjAddr: 0xC1CC, symBinAddr: 0x10000CA7C, symSize: 0x18 }
  - { offsetInCU: 0x15337A, offset: 0x15337A, size: 0x8, addend: 0x0, symName: __ZNK5Eigen8internal16binary_evaluatorINS_13CwiseBinaryOpINS0_17scalar_product_opIddEEKNS_14CwiseNullaryOpINS0_18scalar_identity_opIdEENS_6MatrixIdLin1ELin1ELi0ELin1ELin1EEEEEKNS5_INS0_18scalar_constant_opIdEEKS9_EEEENS0_10IndexBasedESI_ddE4Data4funcEv, symObjAddr: 0xC1E4, symBinAddr: 0x10000CA94, symSize: 0x14 }
  - { offsetInCU: 0x1533A0, offset: 0x1533A0, size: 0x8, addend: 0x0, symName: __ZNK5Eigen8internal17scalar_product_opIddEclERKdS4_, symObjAddr: 0xC1F8, symBinAddr: 0x10000CAA8, symSize: 0x2C }
  - { offsetInCU: 0x1533EC, offset: 0x1533EC, size: 0x8, addend: 0x0, symName: __ZNK5Eigen8internal9evaluatorINS_14CwiseNullaryOpINS0_18scalar_identity_opIdEENS_6MatrixIdLin1ELin1ELi0ELin1ELin1EEEEEE5coeffIlEEdT_SA_, symObjAddr: 0xC224, symBinAddr: 0x10000CAD4, symSize: 0x3C }
  - { offsetInCU: 0x153443, offset: 0x153443, size: 0x8, addend: 0x0, symName: __ZNK5Eigen8internal9evaluatorINS_14CwiseNullaryOpINS0_18scalar_constant_opIdEEKNS_6MatrixIdLin1ELin1ELi0ELin1ELin1EEEEEE5coeffIlEEdT_SB_, symObjAddr: 0xC260, symBinAddr: 0x10000CB10, symSize: 0x3C }
  - { offsetInCU: 0x153495, offset: 0x153495, size: 0x8, addend: 0x0, symName: __ZNK5Eigen8internal15nullary_wrapperIdNS0_18scalar_identity_opIdEELb0ELb0ELb1EEclIlEEdRKS3_T_S8_, symObjAddr: 0xC29C, symBinAddr: 0x10000CB4C, symSize: 0x38 }
  - { offsetInCU: 0x1534F6, offset: 0x1534F6, size: 0x8, addend: 0x0, symName: __ZNK5Eigen8internal18scalar_identity_opIdEclIlEEKdT_S5_, symObjAddr: 0xC2D4, symBinAddr: 0x10000CB84, symSize: 0x3C }
  - { offsetInCU: 0x153546, offset: 0x153546, size: 0x8, addend: 0x0, symName: __ZNK5Eigen8internal15nullary_wrapperIdNS0_18scalar_constant_opIdEELb1ELb0ELb0EEclIlEEdRKS3_T_S8_, symObjAddr: 0xC310, symBinAddr: 0x10000CBC0, symSize: 0x30 }
  - { offsetInCU: 0x15359A, offset: 0x15359A, size: 0x8, addend: 0x0, symName: __ZN5Eigen8internal9evaluatorINS_13CwiseBinaryOpINS0_17scalar_product_opIddEEKNS_14CwiseNullaryOpINS0_18scalar_identity_opIdEENS_6MatrixIdLin1ELin1ELi0ELin1ELin1EEEEEKNS5_INS0_18scalar_constant_opIdEEKS9_EEEEED2Ev, symObjAddr: 0xC340, symBinAddr: 0x10000CBF0, symSize: 0x2C }
  - { offsetInCU: 0x1535C7, offset: 0x1535C7, size: 0x8, addend: 0x0, symName: __ZN5Eigen8internal16binary_evaluatorINS_13CwiseBinaryOpINS0_17scalar_product_opIddEEKNS_14CwiseNullaryOpINS0_18scalar_identity_opIdEENS_6MatrixIdLin1ELin1ELi0ELin1ELin1EEEEEKNS5_INS0_18scalar_constant_opIdEEKS9_EEEENS0_10IndexBasedESI_ddED2Ev, symObjAddr: 0xC36C, symBinAddr: 0x10000CC1C, symSize: 0x34 }
  - { offsetInCU: 0x1535F3, offset: 0x1535F3, size: 0x8, addend: 0x0, symName: __ZN5Eigen8internal16binary_evaluatorINS_13CwiseBinaryOpINS0_17scalar_product_opIddEEKNS_14CwiseNullaryOpINS0_18scalar_identity_opIdEENS_6MatrixIdLin1ELin1ELi0ELin1ELin1EEEEEKNS5_INS0_18scalar_constant_opIdEEKS9_EEEENS0_10IndexBasedESI_ddE4DataD1Ev, symObjAddr: 0xC3A0, symBinAddr: 0x10000CC50, symSize: 0x2C }
  - { offsetInCU: 0x153620, offset: 0x153620, size: 0x8, addend: 0x0, symName: __ZN5Eigen8internal16binary_evaluatorINS_13CwiseBinaryOpINS0_17scalar_product_opIddEEKNS_14CwiseNullaryOpINS0_18scalar_identity_opIdEENS_6MatrixIdLin1ELin1ELi0ELin1ELin1EEEEEKNS5_INS0_18scalar_constant_opIdEEKS9_EEEENS0_10IndexBasedESI_ddE4DataD2Ev, symObjAddr: 0xC3CC, symBinAddr: 0x10000CC7C, symSize: 0x3C }
  - { offsetInCU: 0x15364D, offset: 0x15364D, size: 0x8, addend: 0x0, symName: __ZN5Eigen8internal9evaluatorIKNS_14CwiseNullaryOpINS0_18scalar_constant_opIdEEKNS_6MatrixIdLin1ELin1ELi0ELin1ELin1EEEEEED1Ev, symObjAddr: 0xC408, symBinAddr: 0x10000CCB8, symSize: 0x2C }
  - { offsetInCU: 0x153679, offset: 0x153679, size: 0x8, addend: 0x0, symName: __ZN5Eigen8internal9evaluatorIKNS_14CwiseNullaryOpINS0_18scalar_constant_opIdEEKNS_6MatrixIdLin1ELin1ELi0ELin1ELin1EEEEEED2Ev, symObjAddr: 0xC434, symBinAddr: 0x10000CCE4, symSize: 0x2C }
  - { offsetInCU: 0x1536A5, offset: 0x1536A5, size: 0x8, addend: 0x0, symName: __ZN5Eigen8internal9evaluatorINS_14CwiseNullaryOpINS0_18scalar_constant_opIdEEKNS_6MatrixIdLin1ELin1ELi0ELin1ELin1EEEEEED2Ev, symObjAddr: 0xC460, symBinAddr: 0x10000CD10, symSize: 0x2C }
  - { offsetInCU: 0x1536D1, offset: 0x1536D1, size: 0x8, addend: 0x0, symName: __ZN5Eigen6MatrixIdLin1ELi1ELi0ELin1ELi1EEC2IiEERKT_, symObjAddr: 0xC48C, symBinAddr: 0x10000CD3C, symSize: 0x70 }
  - { offsetInCU: 0x153718, offset: 0x153718, size: 0x8, addend: 0x0, symName: __ZN5Eigen15PlainObjectBaseINS_6MatrixIdLin1ELi1ELi0ELin1ELi1EEEE6_init1IiEEvlPNS_8internal9enable_ifIXaaooneLNS_9DenseBaseIS2_EUt_En1ELi1Entsr8internal14is_convertibleIT_dEE5valueoontLNS5_7is_sameINS_9MatrixXprENS_8ArrayXprEEUt_E0EeqLS9_n1EL_ZNS_L7DynamicEEESA_E4typeE, symObjAddr: 0xC4FC, symBinAddr: 0x10000CDAC, symSize: 0x48 }
  - { offsetInCU: 0x153770, offset: 0x153770, size: 0x8, addend: 0x0, symName: __ZN5Eigen15PlainObjectBaseINS_6MatrixIdLin1ELi1ELi0ELin1ELi1EEEE6resizeEl, symObjAddr: 0xC554, symBinAddr: 0x10000CE04, symSize: 0x74 }
  - { offsetInCU: 0x1537A5, offset: 0x1537A5, size: 0x8, addend: 0x0, symName: __ZN5Eigen16CommaInitializerINS_6MatrixIdLin1ELi1ELi0ELin1ELi1EEEEC1ERS2_RKd, symObjAddr: 0xC5C8, symBinAddr: 0x10000CE78, symSize: 0x3C }
  - { offsetInCU: 0x1537EB, offset: 0x1537EB, size: 0x8, addend: 0x0, symName: __ZN5Eigen16CommaInitializerINS_6MatrixIdLin1ELi1ELi0ELin1ELi1EEEEC2ERS2_RKd, symObjAddr: 0xC604, symBinAddr: 0x10000CEB4, symSize: 0xF8 }
  - { offsetInCU: 0x153831, offset: 0x153831, size: 0x8, addend: 0x0, symName: __ZN5Eigen16CommaInitializerINS_6MatrixIdLin1ELi1ELi0ELin1ELi1EEEED2Ev, symObjAddr: 0xC6FC, symBinAddr: 0x10000CFAC, symSize: 0x34 }
  - { offsetInCU: 0x15385B, offset: 0x15385B, size: 0x8, addend: 0x0, symName: __ZN5Eigen16CommaInitializerINS_6MatrixIdLin1ELi1ELi0ELin1ELi1EEEE8finishedEv, symObjAddr: 0xC730, symBinAddr: 0x10000CFE0, symSize: 0xE8 }
  - { offsetInCU: 0x153881, offset: 0x153881, size: 0x8, addend: 0x0, symName: __ZN5Eigen6MatrixIdLin1ELin1ELi0ELin1ELin1EEC2IiiEERKT_RKT0_, symObjAddr: 0xC818, symBinAddr: 0x10000D0C8, symSize: 0x7C }
  - { offsetInCU: 0x1538DB, offset: 0x1538DB, size: 0x8, addend: 0x0, symName: __ZN5Eigen15PlainObjectBaseINS_6MatrixIdLin1ELin1ELi0ELin1ELin1EEEEC2Ev, symObjAddr: 0xC894, symBinAddr: 0x10000D144, symSize: 0x34 }
  - { offsetInCU: 0x153905, offset: 0x153905, size: 0x8, addend: 0x0, symName: __ZN5Eigen15PlainObjectBaseINS_6MatrixIdLin1ELin1ELi0ELin1ELin1EEEE6_init2IiiEEvllPNS_8internal9enable_ifILb1ET_E4typeE, symObjAddr: 0xC8C8, symBinAddr: 0x10000D178, symSize: 0x44 }
  - { offsetInCU: 0x153984, offset: 0x153984, size: 0x8, addend: 0x0, symName: __ZN5Eigen16CommaInitializerINS_6MatrixIdLin1ELin1ELi0ELin1ELin1EEEEC1ERS2_RKd, symObjAddr: 0xC90C, symBinAddr: 0x10000D1BC, symSize: 0x3C }
  - { offsetInCU: 0x1539CA, offset: 0x1539CA, size: 0x8, addend: 0x0, symName: __ZN5Eigen16CommaInitializerINS_6MatrixIdLin1ELin1ELi0ELin1ELin1EEEEC2ERS2_RKd, symObjAddr: 0xC948, symBinAddr: 0x10000D1F8, symSize: 0xF8 }
  - { offsetInCU: 0x153A10, offset: 0x153A10, size: 0x8, addend: 0x0, symName: __ZN5Eigen15PlainObjectBaseINS_6MatrixIdLin1ELin1ELi0ELin1ELin1EEEE8coeffRefEll, symObjAddr: 0xCA40, symBinAddr: 0x10000D2F0, symSize: 0x6C }
  - { offsetInCU: 0x153A52, offset: 0x153A52, size: 0x8, addend: 0x0, symName: __ZN5Eigen12DenseStorageIdLin1ELin1ELin1ELi0EE4dataEv, symObjAddr: 0xCAAC, symBinAddr: 0x10000D35C, symSize: 0x18 }
  - { offsetInCU: 0x153A78, offset: 0x153A78, size: 0x8, addend: 0x0, symName: __ZN5Eigen16CommaInitializerINS_6MatrixIdLin1ELin1ELi0ELin1ELin1EEEED2Ev, symObjAddr: 0xCAC4, symBinAddr: 0x10000D374, symSize: 0x34 }
  - { offsetInCU: 0x153AA2, offset: 0x153AA2, size: 0x8, addend: 0x0, symName: __ZN5Eigen16CommaInitializerINS_6MatrixIdLin1ELin1ELi0ELin1ELin1EEEE8finishedEv, symObjAddr: 0xCAF8, symBinAddr: 0x10000D3A8, symSize: 0xE8 }
  - { offsetInCU: 0x153AC8, offset: 0x153AC8, size: 0x8, addend: 0x0, symName: __ZN5Eigen6MatrixIdLin1ELin1ELi0ELin1ELin1EEC2INS_14CwiseNullaryOpINS_8internal18scalar_identity_opIdEES1_EEEERKNS_9EigenBaseIT_EE, symObjAddr: 0xCBE0, symBinAddr: 0x10000D490, symSize: 0x40 }
  - { offsetInCU: 0x153B0A, offset: 0x153B0A, size: 0x8, addend: 0x0, symName: __ZN5Eigen15PlainObjectBaseINS_6MatrixIdLin1ELin1ELi0ELin1ELin1EEEEC2INS_14CwiseNullaryOpINS_8internal18scalar_identity_opIdEES2_EEEERKNS_9DenseBaseIT_EE, symObjAddr: 0xCC20, symBinAddr: 0x10000D4D0, symSize: 0x80 }
  - { offsetInCU: 0x153B4C, offset: 0x153B4C, size: 0x8, addend: 0x0, symName: __ZN5Eigen15PlainObjectBaseINS_6MatrixIdLin1ELin1ELi0ELin1ELin1EEEE10resizeLikeINS_14CwiseNullaryOpINS_8internal18scalar_identity_opIdEES2_EEEEvRKNS_9EigenBaseIT_EE, symObjAddr: 0xCCA0, symBinAddr: 0x10000D550, symSize: 0x11C }
  - { offsetInCU: 0x153BE0, offset: 0x153BE0, size: 0x8, addend: 0x0, symName: __ZN5Eigen15PlainObjectBaseINS_6MatrixIdLin1ELin1ELi0ELin1ELin1EEEE12_set_noaliasINS_14CwiseNullaryOpINS_8internal18scalar_identity_opIdEES2_EEEERS2_RKNS_9DenseBaseIT_EE, symObjAddr: 0xCDBC, symBinAddr: 0x10000D66C, symSize: 0x60 }
  - { offsetInCU: 0x153C1E, offset: 0x153C1E, size: 0x8, addend: 0x0, symName: __ZN5Eigen8internal10AssignmentINS_6MatrixIdLin1ELin1ELi0ELin1ELin1EEENS_14CwiseNullaryOpINS0_18scalar_identity_opIdEES3_EENS0_9assign_opIddEENS0_11Dense2DenseEvE3runERS3_RKS7_RKS9_, symObjAddr: 0xCE58, symBinAddr: 0x10000D708, symSize: 0x40 }
  - { offsetInCU: 0x153C60, offset: 0x153C60, size: 0x8, addend: 0x0, symName: __ZN5Eigen8internal27checkTransposeAliasing_implINS_6MatrixIdLin1ELin1ELi0ELin1ELin1EEENS_14CwiseNullaryOpINS0_18scalar_identity_opIdEES3_EELb0EE3runERKS3_RKS7_, symObjAddr: 0xCFD0, symBinAddr: 0x10000D880, symSize: 0x14 }
  - { offsetInCU: 0x153C8B, offset: 0x153C8B, size: 0x8, addend: 0x0, symName: __ZN5Eigen8internal9evaluatorINS_14CwiseNullaryOpINS0_18scalar_identity_opIdEENS_6MatrixIdLin1ELin1ELi0ELin1ELin1EEEEEEC1ERKS7_, symObjAddr: 0xCFE4, symBinAddr: 0x10000D894, symSize: 0x34 }
  - { offsetInCU: 0x153CF1, offset: 0x153CF1, size: 0x8, addend: 0x0, symName: __ZN5Eigen8internal31generic_dense_assignment_kernelINS0_9evaluatorINS_6MatrixIdLin1ELin1ELi0ELin1ELin1EEEEENS2_INS_14CwiseNullaryOpINS0_18scalar_identity_opIdEES4_EEEENS0_9assign_opIddEELi0EEC1ERS5_RKSA_RKSC_RS4_, symObjAddr: 0xD110, symBinAddr: 0x10000D9C0, symSize: 0x4C }
  - { offsetInCU: 0x153D5C, offset: 0x153D5C, size: 0x8, addend: 0x0, symName: __ZN5Eigen8internal21dense_assignment_loopINS0_31generic_dense_assignment_kernelINS0_9evaluatorINS_6MatrixIdLin1ELin1ELi0ELin1ELin1EEEEENS3_INS_14CwiseNullaryOpINS0_18scalar_identity_opIdEES5_EEEENS0_9assign_opIddEELi0EEELi0ELi0EE3runERSE_, symObjAddr: 0xD15C, symBinAddr: 0x10000DA0C, symSize: 0xAC }
  - { offsetInCU: 0x153DBA, offset: 0x153DBA, size: 0x8, addend: 0x0, symName: __ZN5Eigen8internal9evaluatorINS_14CwiseNullaryOpINS0_18scalar_identity_opIdEENS_6MatrixIdLin1ELin1ELi0ELin1ELin1EEEEEED1Ev, symObjAddr: 0xD208, symBinAddr: 0x10000DAB8, symSize: 0x2C }
  - { offsetInCU: 0x153DE6, offset: 0x153DE6, size: 0x8, addend: 0x0, symName: __ZN5Eigen8internal31generic_dense_assignment_kernelINS0_9evaluatorINS_6MatrixIdLin1ELin1ELi0ELin1ELin1EEEEENS2_INS_14CwiseNullaryOpINS0_18scalar_identity_opIdEES4_EEEENS0_9assign_opIddEELi0EEC2ERS5_RKSA_RKSC_RS4_, symObjAddr: 0xD234, symBinAddr: 0x10000DAE4, symSize: 0x44 }
  - { offsetInCU: 0x153E4C, offset: 0x153E4C, size: 0x8, addend: 0x0, symName: __ZNK5Eigen8internal31generic_dense_assignment_kernelINS0_9evaluatorINS_6MatrixIdLin1ELin1ELi0ELin1ELin1EEEEENS2_INS_14CwiseNullaryOpINS0_18scalar_identity_opIdEES4_EEEENS0_9assign_opIddEELi0EE9outerSizeEv, symObjAddr: 0xD278, symBinAddr: 0x10000DB28, symSize: 0x28 }
  - { offsetInCU: 0x153E72, offset: 0x153E72, size: 0x8, addend: 0x0, symName: __ZNK5Eigen8internal31generic_dense_assignment_kernelINS0_9evaluatorINS_6MatrixIdLin1ELin1ELi0ELin1ELin1EEEEENS2_INS_14CwiseNullaryOpINS0_18scalar_identity_opIdEES4_EEEENS0_9assign_opIddEELi0EE9innerSizeEv, symObjAddr: 0xD2A0, symBinAddr: 0x10000DB50, symSize: 0x28 }
  - { offsetInCU: 0x153E98, offset: 0x153E98, size: 0x8, addend: 0x0, symName: __ZN5Eigen8internal31generic_dense_assignment_kernelINS0_9evaluatorINS_6MatrixIdLin1ELin1ELi0ELin1ELin1EEEEENS2_INS_14CwiseNullaryOpINS0_18scalar_identity_opIdEES4_EEEENS0_9assign_opIddEELi0EE23assignCoeffByOuterInnerEll, symObjAddr: 0xD2C8, symBinAddr: 0x10000DB78, symSize: 0x60 }
  - { offsetInCU: 0x153EFA, offset: 0x153EFA, size: 0x8, addend: 0x0, symName: __ZN5Eigen8internal31generic_dense_assignment_kernelINS0_9evaluatorINS_6MatrixIdLin1ELin1ELi0ELin1ELin1EEEEENS2_INS_14CwiseNullaryOpINS0_18scalar_identity_opIdEES4_EEEENS0_9assign_opIddEELi0EE20rowIndexByOuterInnerEll, symObjAddr: 0xD328, symBinAddr: 0x10000DBD8, symSize: 0x18 }
  - { offsetInCU: 0x153F2D, offset: 0x153F2D, size: 0x8, addend: 0x0, symName: __ZN5Eigen8internal31generic_dense_assignment_kernelINS0_9evaluatorINS_6MatrixIdLin1ELin1ELi0ELin1ELin1EEEEENS2_INS_14CwiseNullaryOpINS0_18scalar_identity_opIdEES4_EEEENS0_9assign_opIddEELi0EE20colIndexByOuterInnerEll, symObjAddr: 0xD340, symBinAddr: 0x10000DBF0, symSize: 0x18 }
  - { offsetInCU: 0x153F60, offset: 0x153F60, size: 0x8, addend: 0x0, symName: __ZN5Eigen8internal31generic_dense_assignment_kernelINS0_9evaluatorINS_6MatrixIdLin1ELin1ELi0ELin1ELin1EEEEENS2_INS_14CwiseNullaryOpINS0_18scalar_identity_opIdEES4_EEEENS0_9assign_opIddEELi0EE11assignCoeffEll, symObjAddr: 0xD358, symBinAddr: 0x10000DC08, symSize: 0x70 }
  - { offsetInCU: 0x153FA4, offset: 0x153FA4, size: 0x8, addend: 0x0, symName: __ZN5Eigen6MatrixIdLin1ELi1ELi0ELin1ELi1EEC2INS_14CwiseNullaryOpINS_8internal18scalar_constant_opIdEES1_EEEERKNS_9EigenBaseIT_EE, symObjAddr: 0xD3C8, symBinAddr: 0x10000DC78, symSize: 0x40 }
  - { offsetInCU: 0x153FE6, offset: 0x153FE6, size: 0x8, addend: 0x0, symName: __ZN5Eigen15PlainObjectBaseINS_6MatrixIdLin1ELi1ELi0ELin1ELi1EEEEC2INS_14CwiseNullaryOpINS_8internal18scalar_constant_opIdEES2_EEEERKNS_9DenseBaseIT_EE, symObjAddr: 0xD408, symBinAddr: 0x10000DCB8, symSize: 0x80 }
  - { offsetInCU: 0x154028, offset: 0x154028, size: 0x8, addend: 0x0, symName: __ZN5Eigen15PlainObjectBaseINS_6MatrixIdLin1ELi1ELi0ELin1ELi1EEEE10resizeLikeINS_14CwiseNullaryOpINS_8internal18scalar_constant_opIdEES2_EEEEvRKNS_9EigenBaseIT_EE, symObjAddr: 0xD488, symBinAddr: 0x10000DD38, symSize: 0x170 }
  - { offsetInCU: 0x1540BC, offset: 0x1540BC, size: 0x8, addend: 0x0, symName: __ZN5Eigen15PlainObjectBaseINS_6MatrixIdLin1ELi1ELi0ELin1ELi1EEEE12_set_noaliasINS_14CwiseNullaryOpINS_8internal18scalar_constant_opIdEES2_EEEERS2_RKNS_9DenseBaseIT_EE, symObjAddr: 0xD5F8, symBinAddr: 0x10000DEA8, symSize: 0x60 }
  - { offsetInCU: 0x1540FA, offset: 0x1540FA, size: 0x8, addend: 0x0, symName: __ZN5Eigen15DenseCoeffsBaseINS_6MatrixIdLin1ELi1ELi0ELin1ELi1EEELi1EE8coeffRefEl, symObjAddr: 0xD658, symBinAddr: 0x10000DF08, symSize: 0x58 }
  - { offsetInCU: 0x15412F, offset: 0x15412F, size: 0x8, addend: 0x0, symName: __ZN5Eigen9DenseBaseINS_6MatrixIdLin1ELin1ELi0ELin1ELin1EEEE11NullaryExprINS_8internal16scalar_random_opIdEEEEKNS_14CwiseNullaryOpIT_S2_EEllRKS9_, symObjAddr: 0xD6B0, symBinAddr: 0x10000DF60, symSize: 0x48 }
  - { offsetInCU: 0x15417C, offset: 0x15417C, size: 0x8, addend: 0x0, symName: __ZN5Eigen8internal16scalar_random_opIdEC1Ev, symObjAddr: 0xD6F8, symBinAddr: 0x10000DFA8, symSize: 0x2C }
  - { offsetInCU: 0x1541A6, offset: 0x1541A6, size: 0x8, addend: 0x0, symName: __ZN5Eigen14CwiseNullaryOpINS_8internal16scalar_random_opIdEENS_6MatrixIdLin1ELin1ELi0ELin1ELin1EEEEC1EllRKS3_, symObjAddr: 0xD724, symBinAddr: 0x10000DFD4, symSize: 0x44 }
  - { offsetInCU: 0x1541FA, offset: 0x1541FA, size: 0x8, addend: 0x0, symName: __ZN5Eigen14CwiseNullaryOpINS_8internal16scalar_random_opIdEENS_6MatrixIdLin1ELin1ELi0ELin1ELin1EEEEC2EllRKS3_, symObjAddr: 0xD768, symBinAddr: 0x10000E018, symSize: 0xDC }
  - { offsetInCU: 0x15424E, offset: 0x15424E, size: 0x8, addend: 0x0, symName: __ZN5Eigen10MatrixBaseINS_14CwiseNullaryOpINS_8internal16scalar_random_opIdEENS_6MatrixIdLin1ELin1ELi0ELin1ELin1EEEEEEC2Ev, symObjAddr: 0xD844, symBinAddr: 0x10000E0F4, symSize: 0x2C }
  - { offsetInCU: 0x154278, offset: 0x154278, size: 0x8, addend: 0x0, symName: __ZN5Eigen8internal16scalar_random_opIdEC1ERKS2_, symObjAddr: 0xD870, symBinAddr: 0x10000E120, symSize: 0x34 }
  - { offsetInCU: 0x1542AD, offset: 0x1542AD, size: 0x8, addend: 0x0, symName: __ZN5Eigen9DenseBaseINS_14CwiseNullaryOpINS_8internal16scalar_random_opIdEENS_6MatrixIdLin1ELin1ELi0ELin1ELin1EEEEEEC2Ev, symObjAddr: 0xD8A4, symBinAddr: 0x10000E154, symSize: 0x14 }
  - { offsetInCU: 0x1542D7, offset: 0x1542D7, size: 0x8, addend: 0x0, symName: __ZN5Eigen8internal16scalar_random_opIdEC2ERKS2_, symObjAddr: 0xD8B8, symBinAddr: 0x10000E168, symSize: 0x18 }
  - { offsetInCU: 0x15430C, offset: 0x15430C, size: 0x8, addend: 0x0, symName: __ZN5Eigen8internal16scalar_random_opIdEC2Ev, symObjAddr: 0xD8D0, symBinAddr: 0x10000E180, symSize: 0x14 }
  - { offsetInCU: 0x154336, offset: 0x154336, size: 0x8, addend: 0x0, symName: __ZNK5Eigen9EigenBaseINS_14CwiseNullaryOpINS_8internal16scalar_random_opIdEENS_6MatrixIdLin1ELin1ELi0ELin1ELin1EEEEEE7derivedEv, symObjAddr: 0xD8E4, symBinAddr: 0x10000E194, symSize: 0x14 }
  - { offsetInCU: 0x15435C, offset: 0x15435C, size: 0x8, addend: 0x0, symName: __ZNK5Eigen14CwiseNullaryOpINS_8internal16scalar_random_opIdEENS_6MatrixIdLin1ELin1ELi0ELin1ELin1EEEE4rowsEv, symObjAddr: 0xD8F8, symBinAddr: 0x10000E1A8, symSize: 0x24 }
  - { offsetInCU: 0x154382, offset: 0x154382, size: 0x8, addend: 0x0, symName: __ZNK5Eigen14CwiseNullaryOpINS_8internal16scalar_random_opIdEENS_6MatrixIdLin1ELin1ELi0ELin1ELin1EEEE4colsEv, symObjAddr: 0xD91C, symBinAddr: 0x10000E1CC, symSize: 0x28 }
  - { offsetInCU: 0x1543A8, offset: 0x1543A8, size: 0x8, addend: 0x0, symName: __ZN5Eigen13CwiseBinaryOpINS_8internal17scalar_product_opIddEEKNS_14CwiseNullaryOpINS1_18scalar_constant_opIdEEKNS_6MatrixIdLin1ELin1ELi0ELin1ELin1EEEEEKNS4_INS1_16scalar_random_opIdEES8_EEEC1ERSB_RSF_RKS3_, symObjAddr: 0xD944, symBinAddr: 0x10000E1F4, symSize: 0x44 }
  - { offsetInCU: 0x1543FC, offset: 0x1543FC, size: 0x8, addend: 0x0, symName: __ZN5Eigen13CwiseBinaryOpINS_8internal17scalar_product_opIddEEKNS_14CwiseNullaryOpINS1_18scalar_constant_opIdEEKNS_6MatrixIdLin1ELin1ELi0ELin1ELin1EEEEEKNS4_INS1_16scalar_random_opIdEES8_EEEC2ERSB_RSF_RKS3_, symObjAddr: 0xD988, symBinAddr: 0x10000E238, symSize: 0xFC }
  - { offsetInCU: 0x154455, offset: 0x154455, size: 0x8, addend: 0x0, symName: __ZN5Eigen17CwiseBinaryOpImplINS_8internal17scalar_product_opIddEEKNS_14CwiseNullaryOpINS1_18scalar_constant_opIdEEKNS_6MatrixIdLin1ELin1ELi0ELin1ELin1EEEEEKNS4_INS1_16scalar_random_opIdEES8_EENS_5DenseEEC2Ev, symObjAddr: 0xDA84, symBinAddr: 0x10000E334, symSize: 0x2C }
  - { offsetInCU: 0x154481, offset: 0x154481, size: 0x8, addend: 0x0, symName: __ZN5Eigen14CwiseNullaryOpINS_8internal16scalar_random_opIdEENS_6MatrixIdLin1ELin1ELi0ELin1ELin1EEEEC1ERKS6_, symObjAddr: 0xDAB0, symBinAddr: 0x10000E360, symSize: 0x34 }
  - { offsetInCU: 0x1544B6, offset: 0x1544B6, size: 0x8, addend: 0x0, symName: __ZN5Eigen10MatrixBaseINS_13CwiseBinaryOpINS_8internal17scalar_product_opIddEEKNS_14CwiseNullaryOpINS2_18scalar_constant_opIdEEKNS_6MatrixIdLin1ELin1ELi0ELin1ELin1EEEEEKNS5_INS2_16scalar_random_opIdEES9_EEEEEC2Ev, symObjAddr: 0xDAE4, symBinAddr: 0x10000E394, symSize: 0x2C }
  - { offsetInCU: 0x1544E0, offset: 0x1544E0, size: 0x8, addend: 0x0, symName: __ZN5Eigen9DenseBaseINS_13CwiseBinaryOpINS_8internal17scalar_product_opIddEEKNS_14CwiseNullaryOpINS2_18scalar_constant_opIdEEKNS_6MatrixIdLin1ELin1ELi0ELin1ELin1EEEEEKNS5_INS2_16scalar_random_opIdEES9_EEEEEC2Ev, symObjAddr: 0xDB10, symBinAddr: 0x10000E3C0, symSize: 0x14 }
  - { offsetInCU: 0x15450A, offset: 0x15450A, size: 0x8, addend: 0x0, symName: __ZN5Eigen14CwiseNullaryOpINS_8internal16scalar_random_opIdEENS_6MatrixIdLin1ELin1ELi0ELin1ELin1EEEEC2ERKS6_, symObjAddr: 0xDB24, symBinAddr: 0x10000E3D4, symSize: 0x48 }
  - { offsetInCU: 0x15453F, offset: 0x15453F, size: 0x8, addend: 0x0, symName: __ZN5Eigen6MatrixIdLin1ELi1ELi0ELin1ELi1EEC2INS_13CwiseBinaryOpINS_8internal17scalar_product_opIddEEKNS_14CwiseNullaryOpINS4_18scalar_constant_opIdEEKNS0_IdLin1ELin1ELi0ELin1ELin1EEEEEKNS7_INS4_16scalar_random_opIdEESA_EEEEEERKNS_9EigenBaseIT_EE, symObjAddr: 0xDB6C, symBinAddr: 0x10000E41C, symSize: 0x40 }
  - { offsetInCU: 0x154581, offset: 0x154581, size: 0x8, addend: 0x0, symName: __ZNK5Eigen9EigenBaseINS_13CwiseBinaryOpINS_8internal17scalar_product_opIddEEKNS_14CwiseNullaryOpINS2_18scalar_constant_opIdEEKNS_6MatrixIdLin1ELin1ELi0ELin1ELin1EEEEEKNS5_INS2_16scalar_random_opIdEES9_EEEEE7derivedEv, symObjAddr: 0xDBAC, symBinAddr: 0x10000E45C, symSize: 0x14 }
  - { offsetInCU: 0x1545A7, offset: 0x1545A7, size: 0x8, addend: 0x0, symName: __ZN5Eigen15PlainObjectBaseINS_6MatrixIdLin1ELi1ELi0ELin1ELi1EEEEC2INS_13CwiseBinaryOpINS_8internal17scalar_product_opIddEEKNS_14CwiseNullaryOpINS6_18scalar_constant_opIdEEKNS1_IdLin1ELin1ELi0ELin1ELin1EEEEEKNS9_INS6_16scalar_random_opIdEESC_EEEEEERKNS_9DenseBaseIT_EE, symObjAddr: 0xDBC0, symBinAddr: 0x10000E470, symSize: 0x80 }
  - { offsetInCU: 0x1545E9, offset: 0x1545E9, size: 0x8, addend: 0x0, symName: __ZN5Eigen15PlainObjectBaseINS_6MatrixIdLin1ELi1ELi0ELin1ELi1EEEE10resizeLikeINS_13CwiseBinaryOpINS_8internal17scalar_product_opIddEEKNS_14CwiseNullaryOpINS6_18scalar_constant_opIdEEKNS1_IdLin1ELin1ELi0ELin1ELin1EEEEEKNS9_INS6_16scalar_random_opIdEESC_EEEEEEvRKNS_9EigenBaseIT_EE, symObjAddr: 0xDC40, symBinAddr: 0x10000E4F0, symSize: 0x170 }
  - { offsetInCU: 0x15467D, offset: 0x15467D, size: 0x8, addend: 0x0, symName: __ZN5Eigen15PlainObjectBaseINS_6MatrixIdLin1ELi1ELi0ELin1ELi1EEEE12_set_noaliasINS_13CwiseBinaryOpINS_8internal17scalar_product_opIddEEKNS_14CwiseNullaryOpINS6_18scalar_constant_opIdEEKNS1_IdLin1ELin1ELi0ELin1ELin1EEEEEKNS9_INS6_16scalar_random_opIdEESC_EEEEEERS2_RKNS_9DenseBaseIT_EE, symObjAddr: 0xDDB0, symBinAddr: 0x10000E660, symSize: 0x60 }
  - { offsetInCU: 0x1546BB, offset: 0x1546BB, size: 0x8, addend: 0x0, symName: __ZNK5Eigen13CwiseBinaryOpINS_8internal17scalar_product_opIddEEKNS_14CwiseNullaryOpINS1_18scalar_constant_opIdEEKNS_6MatrixIdLin1ELin1ELi0ELin1ELin1EEEEEKNS4_INS1_16scalar_random_opIdEES8_EEE4rowsEv, symObjAddr: 0xDE10, symBinAddr: 0x10000E6C0, symSize: 0x28 }
  - { offsetInCU: 0x1546E1, offset: 0x1546E1, size: 0x8, addend: 0x0, symName: __ZNK5Eigen13CwiseBinaryOpINS_8internal17scalar_product_opIddEEKNS_14CwiseNullaryOpINS1_18scalar_constant_opIdEEKNS_6MatrixIdLin1ELin1ELi0ELin1ELin1EEEEEKNS4_INS1_16scalar_random_opIdEES8_EEE4colsEv, symObjAddr: 0xDE38, symBinAddr: 0x10000E6E8, symSize: 0x28 }
  - { offsetInCU: 0x154707, offset: 0x154707, size: 0x8, addend: 0x0, symName: __ZN5Eigen8internal10AssignmentINS_6MatrixIdLin1ELi1ELi0ELin1ELi1EEENS_13CwiseBinaryOpINS0_17scalar_product_opIddEEKNS_14CwiseNullaryOpINS0_18scalar_constant_opIdEEKNS2_IdLin1ELin1ELi0ELin1ELin1EEEEEKNS7_INS0_16scalar_random_opIdEESA_EEEENS0_9assign_opIddEENS0_11Dense2DenseEvE3runERS3_RKSI_RKSK_, symObjAddr: 0xDE9C, symBinAddr: 0x10000E74C, symSize: 0x40 }
  - { offsetInCU: 0x1547B7, offset: 0x1547B7, size: 0x8, addend: 0x0, symName: __ZN5Eigen8internal9evaluatorINS_13CwiseBinaryOpINS0_17scalar_product_opIddEEKNS_14CwiseNullaryOpINS0_18scalar_constant_opIdEEKNS_6MatrixIdLin1ELin1ELi0ELin1ELin1EEEEEKNS5_INS0_16scalar_random_opIdEES9_EEEEEC1ERKSH_, symObjAddr: 0xDFC8, symBinAddr: 0x10000E878, symSize: 0x34 }
  - { offsetInCU: 0x15481D, offset: 0x15481D, size: 0x8, addend: 0x0, symName: __ZN5Eigen8internal31generic_dense_assignment_kernelINS0_9evaluatorINS_6MatrixIdLin1ELi1ELi0ELin1ELi1EEEEENS2_INS_13CwiseBinaryOpINS0_17scalar_product_opIddEEKNS_14CwiseNullaryOpINS0_18scalar_constant_opIdEEKNS3_IdLin1ELin1ELi0ELin1ELin1EEEEEKNS9_INS0_16scalar_random_opIdEESC_EEEEEENS0_9assign_opIddEELi0EEC1ERS5_RKSL_RKSN_RS4_, symObjAddr: 0xE0F4, symBinAddr: 0x10000E9A4, symSize: 0x4C }
  - { offsetInCU: 0x154888, offset: 0x154888, size: 0x8, addend: 0x0, symName: __ZN5Eigen8internal21dense_assignment_loopINS0_31generic_dense_assignment_kernelINS0_9evaluatorINS_6MatrixIdLin1ELi1ELi0ELin1ELi1EEEEENS3_INS_13CwiseBinaryOpINS0_17scalar_product_opIddEEKNS_14CwiseNullaryOpINS0_18scalar_constant_opIdEEKNS4_IdLin1ELin1ELi0ELin1ELin1EEEEEKNSA_INS0_16scalar_random_opIdEESD_EEEEEENS0_9assign_opIddEELi0EEELi1ELi0EE3runERSP_, symObjAddr: 0xE140, symBinAddr: 0x10000E9F0, symSize: 0x68 }
  - { offsetInCU: 0x1548D8, offset: 0x1548D8, size: 0x8, addend: 0x0, symName: __ZN5Eigen8internal9evaluatorINS_13CwiseBinaryOpINS0_17scalar_product_opIddEEKNS_14CwiseNullaryOpINS0_18scalar_constant_opIdEEKNS_6MatrixIdLin1ELin1ELi0ELin1ELin1EEEEEKNS5_INS0_16scalar_random_opIdEES9_EEEEED1Ev, symObjAddr: 0xE1A8, symBinAddr: 0x10000EA58, symSize: 0x2C }
  - { offsetInCU: 0x154905, offset: 0x154905, size: 0x8, addend: 0x0, symName: __ZN5Eigen8internal9evaluatorINS_13CwiseBinaryOpINS0_17scalar_product_opIddEEKNS_14CwiseNullaryOpINS0_18scalar_constant_opIdEEKNS_6MatrixIdLin1ELin1ELi0ELin1ELin1EEEEEKNS5_INS0_16scalar_random_opIdEES9_EEEEEC2ERKSH_, symObjAddr: 0xE1D4, symBinAddr: 0x10000EA84, symSize: 0x34 }
  - { offsetInCU: 0x15493E, offset: 0x15493E, size: 0x8, addend: 0x0, symName: __ZN5Eigen8internal16binary_evaluatorINS_13CwiseBinaryOpINS0_17scalar_product_opIddEEKNS_14CwiseNullaryOpINS0_18scalar_constant_opIdEEKNS_6MatrixIdLin1ELin1ELi0ELin1ELin1EEEEEKNS5_INS0_16scalar_random_opIdEES9_EEEENS0_10IndexBasedESI_ddEC2ERKSH_, symObjAddr: 0xE208, symBinAddr: 0x10000EAB8, symSize: 0x64 }
  - { offsetInCU: 0x154977, offset: 0x154977, size: 0x8, addend: 0x0, symName: __ZN5Eigen8internal14evaluator_baseINS_13CwiseBinaryOpINS0_17scalar_product_opIddEEKNS_14CwiseNullaryOpINS0_18scalar_constant_opIdEEKNS_6MatrixIdLin1ELin1ELi0ELin1ELin1EEEEEKNS5_INS0_16scalar_random_opIdEES9_EEEEEC2Ev, symObjAddr: 0xE26C, symBinAddr: 0x10000EB1C, symSize: 0x14 }
  - { offsetInCU: 0x1549A1, offset: 0x1549A1, size: 0x8, addend: 0x0, symName: __ZN5Eigen8internal16binary_evaluatorINS_13CwiseBinaryOpINS0_17scalar_product_opIddEEKNS_14CwiseNullaryOpINS0_18scalar_constant_opIdEEKNS_6MatrixIdLin1ELin1ELi0ELin1ELin1EEEEEKNS5_INS0_16scalar_random_opIdEES9_EEEENS0_10IndexBasedESI_ddE4DataC1ERKSH_, symObjAddr: 0xE280, symBinAddr: 0x10000EB30, symSize: 0x34 }
  - { offsetInCU: 0x1549DA, offset: 0x1549DA, size: 0x8, addend: 0x0, symName: __ZN5Eigen8internal14evaluator_baseINS_13CwiseBinaryOpINS0_17scalar_product_opIddEEKNS_14CwiseNullaryOpINS0_18scalar_constant_opIdEEKNS_6MatrixIdLin1ELin1ELi0ELin1ELin1EEEEEKNS5_INS0_16scalar_random_opIdEES9_EEEEED2Ev, symObjAddr: 0xE2B4, symBinAddr: 0x10000EB64, symSize: 0x14 }
  - { offsetInCU: 0x154A04, offset: 0x154A04, size: 0x8, addend: 0x0, symName: __ZN5Eigen8internal16binary_evaluatorINS_13CwiseBinaryOpINS0_17scalar_product_opIddEEKNS_14CwiseNullaryOpINS0_18scalar_constant_opIdEEKNS_6MatrixIdLin1ELin1ELi0ELin1ELin1EEEEEKNS5_INS0_16scalar_random_opIdEES9_EEEENS0_10IndexBasedESI_ddE4DataC2ERKSH_, symObjAddr: 0xE2C8, symBinAddr: 0x10000EB78, symSize: 0xA8 }
  - { offsetInCU: 0x154A3D, offset: 0x154A3D, size: 0x8, addend: 0x0, symName: __ZNK5Eigen13CwiseBinaryOpINS_8internal17scalar_product_opIddEEKNS_14CwiseNullaryOpINS1_18scalar_constant_opIdEEKNS_6MatrixIdLin1ELin1ELi0ELin1ELin1EEEEEKNS4_INS1_16scalar_random_opIdEES8_EEE7functorEv, symObjAddr: 0xE370, symBinAddr: 0x10000EC20, symSize: 0x18 }
  - { offsetInCU: 0x154A63, offset: 0x154A63, size: 0x8, addend: 0x0, symName: __ZNK5Eigen13CwiseBinaryOpINS_8internal17scalar_product_opIddEEKNS_14CwiseNullaryOpINS1_18scalar_constant_opIdEEKNS_6MatrixIdLin1ELin1ELi0ELin1ELin1EEEEEKNS4_INS1_16scalar_random_opIdEES8_EEE3lhsEv, symObjAddr: 0xE388, symBinAddr: 0x10000EC38, symSize: 0x18 }
  - { offsetInCU: 0x154A89, offset: 0x154A89, size: 0x8, addend: 0x0, symName: __ZNK5Eigen13CwiseBinaryOpINS_8internal17scalar_product_opIddEEKNS_14CwiseNullaryOpINS1_18scalar_constant_opIdEEKNS_6MatrixIdLin1ELin1ELi0ELin1ELin1EEEEEKNS4_INS1_16scalar_random_opIdEES8_EEE3rhsEv, symObjAddr: 0xE3A0, symBinAddr: 0x10000EC50, symSize: 0x18 }
  - { offsetInCU: 0x154AAF, offset: 0x154AAF, size: 0x8, addend: 0x0, symName: __ZN5Eigen8internal9evaluatorIKNS_14CwiseNullaryOpINS0_16scalar_random_opIdEENS_6MatrixIdLin1ELin1ELi0ELin1ELin1EEEEEEC1ERS8_, symObjAddr: 0xE3B8, symBinAddr: 0x10000EC68, symSize: 0x34 }
  - { offsetInCU: 0x154AE7, offset: 0x154AE7, size: 0x8, addend: 0x0, symName: __ZN5Eigen8internal9evaluatorIKNS_14CwiseNullaryOpINS0_16scalar_random_opIdEENS_6MatrixIdLin1ELin1ELi0ELin1ELin1EEEEEEC2ERS8_, symObjAddr: 0xE3EC, symBinAddr: 0x10000EC9C, symSize: 0x34 }
  - { offsetInCU: 0x154B1F, offset: 0x154B1F, size: 0x8, addend: 0x0, symName: __ZN5Eigen8internal9evaluatorINS_14CwiseNullaryOpINS0_16scalar_random_opIdEENS_6MatrixIdLin1ELin1ELi0ELin1ELin1EEEEEEC2ERKS7_, symObjAddr: 0xE420, symBinAddr: 0x10000ECD0, symSize: 0x74 }
  - { offsetInCU: 0x154B58, offset: 0x154B58, size: 0x8, addend: 0x0, symName: __ZN5Eigen8internal14evaluator_baseINS_14CwiseNullaryOpINS0_16scalar_random_opIdEENS_6MatrixIdLin1ELin1ELi0ELin1ELin1EEEEEEC2Ev, symObjAddr: 0xE494, symBinAddr: 0x10000ED44, symSize: 0x14 }
  - { offsetInCU: 0x154B82, offset: 0x154B82, size: 0x8, addend: 0x0, symName: __ZNK5Eigen14CwiseNullaryOpINS_8internal16scalar_random_opIdEENS_6MatrixIdLin1ELin1ELi0ELin1ELin1EEEE7functorEv, symObjAddr: 0xE4A8, symBinAddr: 0x10000ED58, symSize: 0x18 }
  - { offsetInCU: 0x154BA8, offset: 0x154BA8, size: 0x8, addend: 0x0, symName: __ZN5Eigen8internal14evaluator_baseINS_14CwiseNullaryOpINS0_16scalar_random_opIdEENS_6MatrixIdLin1ELin1ELi0ELin1ELin1EEEEEED2Ev, symObjAddr: 0xE4C0, symBinAddr: 0x10000ED70, symSize: 0x14 }
  - { offsetInCU: 0x154BD2, offset: 0x154BD2, size: 0x8, addend: 0x0, symName: __ZN5Eigen8internal31generic_dense_assignment_kernelINS0_9evaluatorINS_6MatrixIdLin1ELi1ELi0ELin1ELi1EEEEENS2_INS_13CwiseBinaryOpINS0_17scalar_product_opIddEEKNS_14CwiseNullaryOpINS0_18scalar_constant_opIdEEKNS3_IdLin1ELin1ELi0ELin1ELin1EEEEEKNS9_INS0_16scalar_random_opIdEESC_EEEEEENS0_9assign_opIddEELi0EEC2ERS5_RKSL_RKSN_RS4_, symObjAddr: 0xE4D4, symBinAddr: 0x10000ED84, symSize: 0x44 }
  - { offsetInCU: 0x154C38, offset: 0x154C38, size: 0x8, addend: 0x0, symName: __ZNK5Eigen8internal31generic_dense_assignment_kernelINS0_9evaluatorINS_6MatrixIdLin1ELi1ELi0ELin1ELi1EEEEENS2_INS_13CwiseBinaryOpINS0_17scalar_product_opIddEEKNS_14CwiseNullaryOpINS0_18scalar_constant_opIdEEKNS3_IdLin1ELin1ELi0ELin1ELin1EEEEEKNS9_INS0_16scalar_random_opIdEESC_EEEEEENS0_9assign_opIddEELi0EE4sizeEv, symObjAddr: 0xE518, symBinAddr: 0x10000EDC8, symSize: 0x28 }
  - { offsetInCU: 0x154C5E, offset: 0x154C5E, size: 0x8, addend: 0x0, symName: __ZN5Eigen8internal31generic_dense_assignment_kernelINS0_9evaluatorINS_6MatrixIdLin1ELi1ELi0ELin1ELi1EEEEENS2_INS_13CwiseBinaryOpINS0_17scalar_product_opIddEEKNS_14CwiseNullaryOpINS0_18scalar_constant_opIdEEKNS3_IdLin1ELin1ELi0ELin1ELin1EEEEEKNS9_INS0_16scalar_random_opIdEESC_EEEEEENS0_9assign_opIddEELi0EE11assignCoeffEl, symObjAddr: 0xE540, symBinAddr: 0x10000EDF0, symSize: 0x64 }
  - { offsetInCU: 0x154C93, offset: 0x154C93, size: 0x8, addend: 0x0, symName: __ZNK5Eigen8internal16binary_evaluatorINS_13CwiseBinaryOpINS0_17scalar_product_opIddEEKNS_14CwiseNullaryOpINS0_18scalar_constant_opIdEEKNS_6MatrixIdLin1ELin1ELi0ELin1ELin1EEEEEKNS5_INS0_16scalar_random_opIdEES9_EEEENS0_10IndexBasedESI_ddE5coeffEl, symObjAddr: 0xE5A4, symBinAddr: 0x10000EE54, symSize: 0x70 }
  - { offsetInCU: 0x154CC8, offset: 0x154CC8, size: 0x8, addend: 0x0, symName: __ZNK5Eigen8internal16binary_evaluatorINS_13CwiseBinaryOpINS0_17scalar_product_opIddEEKNS_14CwiseNullaryOpINS0_18scalar_constant_opIdEEKNS_6MatrixIdLin1ELin1ELi0ELin1ELin1EEEEEKNS5_INS0_16scalar_random_opIdEES9_EEEENS0_10IndexBasedESI_ddE4Data4funcEv, symObjAddr: 0xE614, symBinAddr: 0x10000EEC4, symSize: 0x14 }
  - { offsetInCU: 0x154CEE, offset: 0x154CEE, size: 0x8, addend: 0x0, symName: __ZNK5Eigen8internal9evaluatorINS_14CwiseNullaryOpINS0_18scalar_constant_opIdEEKNS_6MatrixIdLin1ELin1ELi0ELin1ELin1EEEEEE5coeffIlEEdT_, symObjAddr: 0xE628, symBinAddr: 0x10000EED8, symSize: 0x38 }
  - { offsetInCU: 0x154D36, offset: 0x154D36, size: 0x8, addend: 0x0, symName: __ZNK5Eigen8internal9evaluatorINS_14CwiseNullaryOpINS0_16scalar_random_opIdEENS_6MatrixIdLin1ELin1ELi0ELin1ELin1EEEEEE5coeffIlEEdT_, symObjAddr: 0xE660, symBinAddr: 0x10000EF10, symSize: 0x38 }
  - { offsetInCU: 0x154D79, offset: 0x154D79, size: 0x8, addend: 0x0, symName: __ZNK5Eigen8internal15nullary_wrapperIdNS0_16scalar_random_opIdEELb1ELb0ELb0EEclIlEEdRKS3_T_S8_, symObjAddr: 0xE698, symBinAddr: 0x10000EF48, symSize: 0x30 }
  - { offsetInCU: 0x154DCD, offset: 0x154DCD, size: 0x8, addend: 0x0, symName: __ZNK5Eigen8internal16scalar_random_opIdEclEv, symObjAddr: 0xE6C8, symBinAddr: 0x10000EF78, symSize: 0x20 }
  - { offsetInCU: 0x154DF3, offset: 0x154DF3, size: 0x8, addend: 0x0, symName: __ZN5Eigen8internal19random_default_implIdLb0ELb0EE3runEv, symObjAddr: 0xE6FC, symBinAddr: 0x10000EFAC, symSize: 0x34 }
  - { offsetInCU: 0x154E07, offset: 0x154E07, size: 0x8, addend: 0x0, symName: __ZN5Eigen8internal19random_default_implIdLb0ELb0EE3runERKdS4_, symObjAddr: 0xE730, symBinAddr: 0x10000EFE0, symSize: 0x68 }
  - { offsetInCU: 0x154E3A, offset: 0x154E3A, size: 0x8, addend: 0x0, symName: __ZN5Eigen8internal9evaluatorINS_13CwiseBinaryOpINS0_17scalar_product_opIddEEKNS_14CwiseNullaryOpINS0_18scalar_constant_opIdEEKNS_6MatrixIdLin1ELin1ELi0ELin1ELin1EEEEEKNS5_INS0_16scalar_random_opIdEES9_EEEEED2Ev, symObjAddr: 0xE798, symBinAddr: 0x10000F048, symSize: 0x2C }
  - { offsetInCU: 0x154E67, offset: 0x154E67, size: 0x8, addend: 0x0, symName: __ZN5Eigen8internal16binary_evaluatorINS_13CwiseBinaryOpINS0_17scalar_product_opIddEEKNS_14CwiseNullaryOpINS0_18scalar_constant_opIdEEKNS_6MatrixIdLin1ELin1ELi0ELin1ELin1EEEEEKNS5_INS0_16scalar_random_opIdEES9_EEEENS0_10IndexBasedESI_ddED2Ev, symObjAddr: 0xE7C4, symBinAddr: 0x10000F074, symSize: 0x34 }
  - { offsetInCU: 0x154E93, offset: 0x154E93, size: 0x8, addend: 0x0, symName: __ZN5Eigen8internal16binary_evaluatorINS_13CwiseBinaryOpINS0_17scalar_product_opIddEEKNS_14CwiseNullaryOpINS0_18scalar_constant_opIdEEKNS_6MatrixIdLin1ELin1ELi0ELin1ELin1EEEEEKNS5_INS0_16scalar_random_opIdEES9_EEEENS0_10IndexBasedESI_ddE4DataD1Ev, symObjAddr: 0xE7F8, symBinAddr: 0x10000F0A8, symSize: 0x2C }
  - { offsetInCU: 0x154EC0, offset: 0x154EC0, size: 0x8, addend: 0x0, symName: __ZN5Eigen8internal16binary_evaluatorINS_13CwiseBinaryOpINS0_17scalar_product_opIddEEKNS_14CwiseNullaryOpINS0_18scalar_constant_opIdEEKNS_6MatrixIdLin1ELin1ELi0ELin1ELin1EEEEEKNS5_INS0_16scalar_random_opIdEES9_EEEENS0_10IndexBasedESI_ddE4DataD2Ev, symObjAddr: 0xE824, symBinAddr: 0x10000F0D4, symSize: 0x3C }
  - { offsetInCU: 0x154EED, offset: 0x154EED, size: 0x8, addend: 0x0, symName: __ZN5Eigen8internal9evaluatorIKNS_14CwiseNullaryOpINS0_16scalar_random_opIdEENS_6MatrixIdLin1ELin1ELi0ELin1ELin1EEEEEED1Ev, symObjAddr: 0xE860, symBinAddr: 0x10000F110, symSize: 0x2C }
  - { offsetInCU: 0x154F19, offset: 0x154F19, size: 0x8, addend: 0x0, symName: __ZN5Eigen8internal9evaluatorIKNS_14CwiseNullaryOpINS0_16scalar_random_opIdEENS_6MatrixIdLin1ELin1ELi0ELin1ELin1EEEEEED2Ev, symObjAddr: 0xE88C, symBinAddr: 0x10000F13C, symSize: 0x2C }
  - { offsetInCU: 0x154F45, offset: 0x154F45, size: 0x8, addend: 0x0, symName: __ZN5Eigen8internal9evaluatorINS_14CwiseNullaryOpINS0_16scalar_random_opIdEENS_6MatrixIdLin1ELin1ELi0ELin1ELin1EEEEEED2Ev, symObjAddr: 0xE8B8, symBinAddr: 0x10000F168, symSize: 0x2C }
  - { offsetInCU: 0x154F71, offset: 0x154F71, size: 0x8, addend: 0x0, symName: __ZN5Eigen9DenseBaseINS_6MatrixIdLin1ELi1ELi0ELin1ELi1EEEE11NullaryExprINS_8internal18scalar_constant_opIdEEEEKNS_14CwiseNullaryOpIT_S2_EElRKS9_, symObjAddr: 0xE8E4, symBinAddr: 0x10000F194, symSize: 0x44 }
  - { offsetInCU: 0x154FAF, offset: 0x154FAF, size: 0x8, addend: 0x0, symName: __ZN5Eigen6MatrixIdLin1ELin1ELi0ELin1ELin1EEC2INS0_IdLin1ELi1ELi0ELin1ELi1EEEEERKNS_9EigenBaseIT_EE, symObjAddr: 0xE928, symBinAddr: 0x10000F1D8, symSize: 0x40 }
  - { offsetInCU: 0x154FF1, offset: 0x154FF1, size: 0x8, addend: 0x0, symName: __ZN5Eigen15PlainObjectBaseINS_6MatrixIdLin1ELin1ELi0ELin1ELin1EEEEC2INS1_IdLin1ELi1ELi0ELin1ELi1EEEEERKNS_9DenseBaseIT_EE, symObjAddr: 0xE968, symBinAddr: 0x10000F218, symSize: 0x80 }
  - { offsetInCU: 0x155033, offset: 0x155033, size: 0x8, addend: 0x0, symName: __ZN5Eigen15PlainObjectBaseINS_6MatrixIdLin1ELin1ELi0ELin1ELin1EEEE10resizeLikeINS1_IdLin1ELi1ELi0ELin1ELi1EEEEEvRKNS_9EigenBaseIT_EE, symObjAddr: 0xE9E8, symBinAddr: 0x10000F298, symSize: 0x11C }
  - { offsetInCU: 0x1550C7, offset: 0x1550C7, size: 0x8, addend: 0x0, symName: __ZN5Eigen15PlainObjectBaseINS_6MatrixIdLin1ELin1ELi0ELin1ELin1EEEE12_set_noaliasINS1_IdLin1ELi1ELi0ELin1ELi1EEEEERS2_RKNS_9DenseBaseIT_EE, symObjAddr: 0xEB04, symBinAddr: 0x10000F3B4, symSize: 0x60 }
  - { offsetInCU: 0x155105, offset: 0x155105, size: 0x8, addend: 0x0, symName: __ZN5Eigen8internal10AssignmentINS_6MatrixIdLin1ELin1ELi0ELin1ELin1EEENS2_IdLin1ELi1ELi0ELin1ELi1EEENS0_9assign_opIddEENS0_11Dense2DenseEvE3runERS3_RKS4_RKS6_, symObjAddr: 0xEBA0, symBinAddr: 0x10000F450, symSize: 0x40 }
  - { offsetInCU: 0x155147, offset: 0x155147, size: 0x8, addend: 0x0, symName: __ZN5Eigen8internal27checkTransposeAliasing_implINS_6MatrixIdLin1ELin1ELi0ELin1ELin1EEENS2_IdLin1ELi1ELi0ELin1ELi1EEELb0EE3runERKS3_RKS4_, symObjAddr: 0xED18, symBinAddr: 0x10000F5C8, symSize: 0x14 }
  - { offsetInCU: 0x155172, offset: 0x155172, size: 0x8, addend: 0x0, symName: __ZN5Eigen8internal31generic_dense_assignment_kernelINS0_9evaluatorINS_6MatrixIdLin1ELin1ELi0ELin1ELin1EEEEENS2_INS3_IdLin1ELi1ELi0ELin1ELi1EEEEENS0_9assign_opIddEELi0EEC1ERS5_RKS7_RKS9_RS4_, symObjAddr: 0xEE24, symBinAddr: 0x10000F6D4, symSize: 0x4C }
  - { offsetInCU: 0x1551D8, offset: 0x1551D8, size: 0x8, addend: 0x0, symName: __ZN5Eigen8internal31generic_dense_assignment_kernelINS0_9evaluatorINS_6MatrixIdLin1ELin1ELi0ELin1ELin1EEEEENS2_INS3_IdLin1ELi1ELi0ELin1ELi1EEEEENS0_9assign_opIddEELi0EEC2ERS5_RKS7_RKS9_RS4_, symObjAddr: 0xEF18, symBinAddr: 0x10000F7C8, symSize: 0x44 }
  - { offsetInCU: 0x15523E, offset: 0x15523E, size: 0x8, addend: 0x0, symName: __ZNK5Eigen8internal31generic_dense_assignment_kernelINS0_9evaluatorINS_6MatrixIdLin1ELin1ELi0ELin1ELin1EEEEENS2_INS3_IdLin1ELi1ELi0ELin1ELi1EEEEENS0_9assign_opIddEELi0EE4sizeEv, symObjAddr: 0xEF5C, symBinAddr: 0x10000F80C, symSize: 0x28 }
  - { offsetInCU: 0x155264, offset: 0x155264, size: 0x8, addend: 0x0, symName: __ZN5Eigen8internal31unaligned_dense_assignment_loopILb1EE3runINS0_31generic_dense_assignment_kernelINS0_9evaluatorINS_6MatrixIdLin1ELin1ELi0ELin1ELin1EEEEENS5_INS6_IdLin1ELi1ELi0ELin1ELi1EEEEENS0_9assign_opIddEELi0EEEEEvRT_ll, symObjAddr: 0xEF84, symBinAddr: 0x10000F834, symSize: 0x18 }
  - { offsetInCU: 0x1552A3, offset: 0x1552A3, size: 0x8, addend: 0x0, symName: __ZN5Eigen8internal31generic_dense_assignment_kernelINS0_9evaluatorINS_6MatrixIdLin1ELin1ELi0ELin1ELin1EEEEENS2_INS3_IdLin1ELi1ELi0ELin1ELi1EEEEENS0_9assign_opIddEELi0EE12assignPacketILi16ELi16E19__simd128_float64_tEEvl, symObjAddr: 0xEF9C, symBinAddr: 0x10000F84C, symSize: 0x64 }
  - { offsetInCU: 0x1552F5, offset: 0x1552F5, size: 0x8, addend: 0x0, symName: __ZN5Eigen8internal31unaligned_dense_assignment_loopILb0EE3runINS0_31generic_dense_assignment_kernelINS0_9evaluatorINS_6MatrixIdLin1ELin1ELi0ELin1ELin1EEEEENS5_INS6_IdLin1ELi1ELi0ELin1ELi1EEEEENS0_9assign_opIddEELi0EEEEEvRT_ll, symObjAddr: 0xF000, symBinAddr: 0x10000F8B0, symSize: 0x68 }
  - { offsetInCU: 0x15535D, offset: 0x15535D, size: 0x8, addend: 0x0, symName: __ZN5Eigen8internal31generic_dense_assignment_kernelINS0_9evaluatorINS_6MatrixIdLin1ELin1ELi0ELin1ELin1EEEEENS2_INS3_IdLin1ELi1ELi0ELin1ELi1EEEEENS0_9assign_opIddEELi0EE11assignCoeffEl, symObjAddr: 0xF068, symBinAddr: 0x10000F918, symSize: 0x60 }
  - { offsetInCU: 0x155392, offset: 0x155392, size: 0x8, addend: 0x0, symName: __ZN5Eigen6MatrixIdLin1ELi1ELi0ELin1ELi1EEC2INS0_IdLin1ELin1ELi0ELin1ELin1EEEEERKNS_9EigenBaseIT_EE, symObjAddr: 0xF0C8, symBinAddr: 0x10000F978, symSize: 0x40 }
  - { offsetInCU: 0x1553D4, offset: 0x1553D4, size: 0x8, addend: 0x0, symName: __ZN5Eigen15PlainObjectBaseINS_6MatrixIdLin1ELi1ELi0ELin1ELi1EEEEC2INS1_IdLin1ELin1ELi0ELin1ELin1EEEEERKNS_9DenseBaseIT_EE, symObjAddr: 0xF108, symBinAddr: 0x10000F9B8, symSize: 0x80 }
  - { offsetInCU: 0x155416, offset: 0x155416, size: 0x8, addend: 0x0, symName: __ZN5Eigen15PlainObjectBaseINS_6MatrixIdLin1ELi1ELi0ELin1ELi1EEEE10resizeLikeINS1_IdLin1ELin1ELi0ELin1ELin1EEEEEvRKNS_9EigenBaseIT_EE, symObjAddr: 0xF188, symBinAddr: 0x10000FA38, symSize: 0x170 }
  - { offsetInCU: 0x1554AA, offset: 0x1554AA, size: 0x8, addend: 0x0, symName: __ZN5Eigen15PlainObjectBaseINS_6MatrixIdLin1ELi1ELi0ELin1ELi1EEEE12_set_noaliasINS1_IdLin1ELin1ELi0ELin1ELin1EEEEERS2_RKNS_9DenseBaseIT_EE, symObjAddr: 0xF2F8, symBinAddr: 0x10000FBA8, symSize: 0x60 }
  - { offsetInCU: 0x1554E8, offset: 0x1554E8, size: 0x8, addend: 0x0, symName: __ZN5Eigen8internal10AssignmentINS_6MatrixIdLin1ELi1ELi0ELin1ELi1EEENS2_IdLin1ELin1ELi0ELin1ELin1EEENS0_9assign_opIddEENS0_11Dense2DenseEvE3runERS3_RKS4_RKS6_, symObjAddr: 0xF394, symBinAddr: 0x10000FC44, symSize: 0x40 }
  - { offsetInCU: 0x15552A, offset: 0x15552A, size: 0x8, addend: 0x0, symName: __ZN5Eigen8internal31generic_dense_assignment_kernelINS0_9evaluatorINS_6MatrixIdLin1ELi1ELi0ELin1ELi1EEEEENS2_INS3_IdLin1ELin1ELi0ELin1ELin1EEEEENS0_9assign_opIddEELi0EEC1ERS5_RKS7_RKS9_RS4_, symObjAddr: 0xF5B8, symBinAddr: 0x10000FE68, symSize: 0x4C }
  - { offsetInCU: 0x155590, offset: 0x155590, size: 0x8, addend: 0x0, symName: __ZN5Eigen8internal31generic_dense_assignment_kernelINS0_9evaluatorINS_6MatrixIdLin1ELi1ELi0ELin1ELi1EEEEENS2_INS3_IdLin1ELin1ELi0ELin1ELin1EEEEENS0_9assign_opIddEELi0EEC2ERS5_RKS7_RKS9_RS4_, symObjAddr: 0xF6AC, symBinAddr: 0x10000FF5C, symSize: 0x44 }
  - { offsetInCU: 0x1555F6, offset: 0x1555F6, size: 0x8, addend: 0x0, symName: __ZNK5Eigen8internal31generic_dense_assignment_kernelINS0_9evaluatorINS_6MatrixIdLin1ELi1ELi0ELin1ELi1EEEEENS2_INS3_IdLin1ELin1ELi0ELin1ELin1EEEEENS0_9assign_opIddEELi0EE4sizeEv, symObjAddr: 0xF6F0, symBinAddr: 0x10000FFA0, symSize: 0x28 }
  - { offsetInCU: 0x15561C, offset: 0x15561C, size: 0x8, addend: 0x0, symName: __ZN5Eigen8internal31unaligned_dense_assignment_loopILb1EE3runINS0_31generic_dense_assignment_kernelINS0_9evaluatorINS_6MatrixIdLin1ELi1ELi0ELin1ELi1EEEEENS5_INS6_IdLin1ELin1ELi0ELin1ELin1EEEEENS0_9assign_opIddEELi0EEEEEvRT_ll, symObjAddr: 0xF718, symBinAddr: 0x10000FFC8, symSize: 0x18 }
  - { offsetInCU: 0x15565B, offset: 0x15565B, size: 0x8, addend: 0x0, symName: __ZN5Eigen8internal31generic_dense_assignment_kernelINS0_9evaluatorINS_6MatrixIdLin1ELi1ELi0ELin1ELi1EEEEENS2_INS3_IdLin1ELin1ELi0ELin1ELin1EEEEENS0_9assign_opIddEELi0EE12assignPacketILi16ELi16E19__simd128_float64_tEEvl, symObjAddr: 0xF730, symBinAddr: 0x10000FFE0, symSize: 0x64 }
  - { offsetInCU: 0x1556AD, offset: 0x1556AD, size: 0x8, addend: 0x0, symName: __ZN5Eigen8internal31unaligned_dense_assignment_loopILb0EE3runINS0_31generic_dense_assignment_kernelINS0_9evaluatorINS_6MatrixIdLin1ELi1ELi0ELin1ELi1EEEEENS5_INS6_IdLin1ELin1ELi0ELin1ELin1EEEEENS0_9assign_opIddEELi0EEEEEvRT_ll, symObjAddr: 0xF794, symBinAddr: 0x100010044, symSize: 0x68 }
  - { offsetInCU: 0x155715, offset: 0x155715, size: 0x8, addend: 0x0, symName: __ZN5Eigen8internal31generic_dense_assignment_kernelINS0_9evaluatorINS_6MatrixIdLin1ELi1ELi0ELin1ELi1EEEEENS2_INS3_IdLin1ELin1ELi0ELin1ELin1EEEEENS0_9assign_opIddEELi0EE11assignCoeffEl, symObjAddr: 0xF7FC, symBinAddr: 0x1000100AC, symSize: 0x60 }
  - { offsetInCU: 0x15574A, offset: 0x15574A, size: 0x8, addend: 0x0, symName: __ZN5Eigen9DenseBaseINS_6MatrixIdLin1ELin1ELi0ELin1ELin1EEEE8ConstantEllRKd, symObjAddr: 0xF85C, symBinAddr: 0x10001010C, symSize: 0x60 }
  - { offsetInCU: 0x15578E, offset: 0x15578E, size: 0x8, addend: 0x0, symName: __ZN5Eigen9DenseBaseINS_6MatrixIdLin1ELin1ELi0ELin1ELin1EEEE11NullaryExprINS_8internal18scalar_constant_opIdEEEEKNS_14CwiseNullaryOpIT_S2_EEllRKS9_, symObjAddr: 0xF8BC, symBinAddr: 0x10001016C, symSize: 0x48 }
  - { offsetInCU: 0x1557DB, offset: 0x1557DB, size: 0x8, addend: 0x0, symName: __ZN5Eigen14CwiseNullaryOpINS_8internal18scalar_constant_opIdEENS_6MatrixIdLin1ELin1ELi0ELin1ELin1EEEEC1EllRKS3_, symObjAddr: 0xF904, symBinAddr: 0x1000101B4, symSize: 0x44 }
  - { offsetInCU: 0x15582F, offset: 0x15582F, size: 0x8, addend: 0x0, symName: __ZN5Eigen14CwiseNullaryOpINS_8internal18scalar_constant_opIdEENS_6MatrixIdLin1ELin1ELi0ELin1ELin1EEEEC2EllRKS3_, symObjAddr: 0xF948, symBinAddr: 0x1000101F8, symSize: 0xDC }
  - { offsetInCU: 0x155883, offset: 0x155883, size: 0x8, addend: 0x0, symName: __ZN5Eigen10MatrixBaseINS_14CwiseNullaryOpINS_8internal18scalar_constant_opIdEENS_6MatrixIdLin1ELin1ELi0ELin1ELin1EEEEEEC2Ev, symObjAddr: 0xFA24, symBinAddr: 0x1000102D4, symSize: 0x2C }
  - { offsetInCU: 0x1558AD, offset: 0x1558AD, size: 0x8, addend: 0x0, symName: __ZN5Eigen9DenseBaseINS_14CwiseNullaryOpINS_8internal18scalar_constant_opIdEENS_6MatrixIdLin1ELin1ELi0ELin1ELin1EEEEEEC2Ev, symObjAddr: 0xFA50, symBinAddr: 0x100010300, symSize: 0x14 }
  - { offsetInCU: 0x1558D7, offset: 0x1558D7, size: 0x8, addend: 0x0, symName: __ZN5Eigen6MatrixIdLin1ELin1ELi0ELin1ELin1EEC2INS_14CwiseNullaryOpINS_8internal18scalar_constant_opIdEES1_EEEERKNS_9EigenBaseIT_EE, symObjAddr: 0xFA64, symBinAddr: 0x100010314, symSize: 0x40 }
  - { offsetInCU: 0x155919, offset: 0x155919, size: 0x8, addend: 0x0, symName: __ZNK5Eigen9EigenBaseINS_14CwiseNullaryOpINS_8internal18scalar_constant_opIdEENS_6MatrixIdLin1ELin1ELi0ELin1ELin1EEEEEE7derivedEv, symObjAddr: 0xFAA4, symBinAddr: 0x100010354, symSize: 0x14 }
  - { offsetInCU: 0x15593F, offset: 0x15593F, size: 0x8, addend: 0x0, symName: __ZN5Eigen15PlainObjectBaseINS_6MatrixIdLin1ELin1ELi0ELin1ELin1EEEEC2INS_14CwiseNullaryOpINS_8internal18scalar_constant_opIdEES2_EEEERKNS_9DenseBaseIT_EE, symObjAddr: 0xFAB8, symBinAddr: 0x100010368, symSize: 0x80 }
  - { offsetInCU: 0x155981, offset: 0x155981, size: 0x8, addend: 0x0, symName: __ZN5Eigen15PlainObjectBaseINS_6MatrixIdLin1ELin1ELi0ELin1ELin1EEEE10resizeLikeINS_14CwiseNullaryOpINS_8internal18scalar_constant_opIdEES2_EEEEvRKNS_9EigenBaseIT_EE, symObjAddr: 0xFB38, symBinAddr: 0x1000103E8, symSize: 0x11C }
  - { offsetInCU: 0x155A15, offset: 0x155A15, size: 0x8, addend: 0x0, symName: __ZN5Eigen15PlainObjectBaseINS_6MatrixIdLin1ELin1ELi0ELin1ELin1EEEE12_set_noaliasINS_14CwiseNullaryOpINS_8internal18scalar_constant_opIdEES2_EEEERS2_RKNS_9DenseBaseIT_EE, symObjAddr: 0xFC54, symBinAddr: 0x100010504, symSize: 0x60 }
  - { offsetInCU: 0x155A53, offset: 0x155A53, size: 0x8, addend: 0x0, symName: __ZNK5Eigen14CwiseNullaryOpINS_8internal18scalar_constant_opIdEENS_6MatrixIdLin1ELin1ELi0ELin1ELin1EEEE4rowsEv, symObjAddr: 0xFCB4, symBinAddr: 0x100010564, symSize: 0x24 }
  - { offsetInCU: 0x155A79, offset: 0x155A79, size: 0x8, addend: 0x0, symName: __ZNK5Eigen14CwiseNullaryOpINS_8internal18scalar_constant_opIdEENS_6MatrixIdLin1ELin1ELi0ELin1ELin1EEEE4colsEv, symObjAddr: 0xFCD8, symBinAddr: 0x100010588, symSize: 0x28 }
  - { offsetInCU: 0x155A9F, offset: 0x155A9F, size: 0x8, addend: 0x0, symName: __ZN5Eigen8internal10AssignmentINS_6MatrixIdLin1ELin1ELi0ELin1ELin1EEENS_14CwiseNullaryOpINS0_18scalar_constant_opIdEES3_EENS0_9assign_opIddEENS0_11Dense2DenseEvE3runERS3_RKS7_RKS9_, symObjAddr: 0xFD3C, symBinAddr: 0x1000105EC, symSize: 0x40 }
  - { offsetInCU: 0x155AE1, offset: 0x155AE1, size: 0x8, addend: 0x0, symName: __ZN5Eigen8internal27checkTransposeAliasing_implINS_6MatrixIdLin1ELin1ELi0ELin1ELin1EEENS_14CwiseNullaryOpINS0_18scalar_constant_opIdEES3_EELb0EE3runERKS3_RKS7_, symObjAddr: 0xFE48, symBinAddr: 0x1000106F8, symSize: 0x14 }
  - { offsetInCU: 0x155B0C, offset: 0x155B0C, size: 0x8, addend: 0x0, symName: __ZN5Eigen15PlainObjectBaseINS_6MatrixIdLin1ELin1ELi0ELin1ELin1EEEE4dataEv, symObjAddr: 0xFF54, symBinAddr: 0x100010804, symSize: 0x24 }
  - { offsetInCU: 0x155B32, offset: 0x155B32, size: 0x8, addend: 0x0, symName: __ZNK5Eigen14CwiseNullaryOpINS_8internal18scalar_constant_opIdEENS_6MatrixIdLin1ELin1ELi0ELin1ELin1EEEE7functorEv, symObjAddr: 0xFF78, symBinAddr: 0x100010828, symSize: 0x18 }
  - { offsetInCU: 0x155B58, offset: 0x155B58, size: 0x8, addend: 0x0, symName: __ZN5Eigen13CwiseBinaryOpINS_8internal17scalar_product_opIddEEKNS_14CwiseNullaryOpINS1_18scalar_constant_opIdEEKNS_6MatrixIdLin1ELin1ELi0ELin1ELin1EEEEES9_EC1ERSB_RS9_RKS3_, symObjAddr: 0xFF90, symBinAddr: 0x100010840, symSize: 0x44 }
  - { offsetInCU: 0x155BAC, offset: 0x155BAC, size: 0x8, addend: 0x0, symName: __ZN5Eigen13CwiseBinaryOpINS_8internal17scalar_product_opIddEEKNS_14CwiseNullaryOpINS1_18scalar_constant_opIdEEKNS_6MatrixIdLin1ELin1ELi0ELin1ELin1EEEEES9_EC2ERSB_RS9_RKS3_, symObjAddr: 0xFFD4, symBinAddr: 0x100010884, symSize: 0xF8 }
  - { offsetInCU: 0x155C05, offset: 0x155C05, size: 0x8, addend: 0x0, symName: __ZN5Eigen17CwiseBinaryOpImplINS_8internal17scalar_product_opIddEEKNS_14CwiseNullaryOpINS1_18scalar_constant_opIdEEKNS_6MatrixIdLin1ELin1ELi0ELin1ELin1EEEEES9_NS_5DenseEEC2Ev, symObjAddr: 0x100CC, symBinAddr: 0x10001097C, symSize: 0x2C }
  - { offsetInCU: 0x155C31, offset: 0x155C31, size: 0x8, addend: 0x0, symName: __ZN5Eigen10MatrixBaseINS_13CwiseBinaryOpINS_8internal17scalar_product_opIddEEKNS_14CwiseNullaryOpINS2_18scalar_constant_opIdEEKNS_6MatrixIdLin1ELin1ELi0ELin1ELin1EEEEESA_EEEC2Ev, symObjAddr: 0x100F8, symBinAddr: 0x1000109A8, symSize: 0x2C }
  - { offsetInCU: 0x155C5B, offset: 0x155C5B, size: 0x8, addend: 0x0, symName: __ZN5Eigen9DenseBaseINS_13CwiseBinaryOpINS_8internal17scalar_product_opIddEEKNS_14CwiseNullaryOpINS2_18scalar_constant_opIdEEKNS_6MatrixIdLin1ELin1ELi0ELin1ELin1EEEEESA_EEEC2Ev, symObjAddr: 0x10124, symBinAddr: 0x1000109D4, symSize: 0x14 }
  - { offsetInCU: 0x155C85, offset: 0x155C85, size: 0x8, addend: 0x0, symName: __ZNK5Eigen9EigenBaseINS_13CwiseBinaryOpINS_8internal17scalar_product_opIddEEKNS_14CwiseNullaryOpINS2_18scalar_constant_opIdEEKNS_6MatrixIdLin1ELin1ELi0ELin1ELin1EEEEESA_EEE7derivedEv, symObjAddr: 0x10138, symBinAddr: 0x1000109E8, symSize: 0x14 }
  - { offsetInCU: 0x155CAB, offset: 0x155CAB, size: 0x8, addend: 0x0, symName: __ZN5Eigen13CwiseBinaryOpINS_8internal13scalar_sum_opIddEEKNS_14CwiseNullaryOpINS1_18scalar_identity_opIdEENS_6MatrixIdLin1ELin1ELi0ELin1ELin1EEEEEKNS0_INS1_17scalar_product_opIddEEKNS4_INS1_18scalar_constant_opIdEEKS8_EESF_EEEC1ERSA_RSJ_RKS3_, symObjAddr: 0x1014C, symBinAddr: 0x1000109FC, symSize: 0x44 }
  - { offsetInCU: 0x155CFF, offset: 0x155CFF, size: 0x8, addend: 0x0, symName: __ZN5Eigen13CwiseBinaryOpINS_8internal13scalar_sum_opIddEEKNS_14CwiseNullaryOpINS1_18scalar_identity_opIdEENS_6MatrixIdLin1ELin1ELi0ELin1ELin1EEEEEKNS0_INS1_17scalar_product_opIddEEKNS4_INS1_18scalar_constant_opIdEEKS8_EESF_EEEC2ERSA_RSJ_RKS3_, symObjAddr: 0x10190, symBinAddr: 0x100010A40, symSize: 0xFC }
  - { offsetInCU: 0x155D58, offset: 0x155D58, size: 0x8, addend: 0x0, symName: __ZN5Eigen17CwiseBinaryOpImplINS_8internal13scalar_sum_opIddEEKNS_14CwiseNullaryOpINS1_18scalar_identity_opIdEENS_6MatrixIdLin1ELin1ELi0ELin1ELin1EEEEEKNS_13CwiseBinaryOpINS1_17scalar_product_opIddEEKNS4_INS1_18scalar_constant_opIdEEKS8_EESG_EENS_5DenseEEC2Ev, symObjAddr: 0x1028C, symBinAddr: 0x100010B3C, symSize: 0x2C }
  - { offsetInCU: 0x155D84, offset: 0x155D84, size: 0x8, addend: 0x0, symName: __ZN5Eigen13CwiseBinaryOpINS_8internal17scalar_product_opIddEEKNS_14CwiseNullaryOpINS1_18scalar_constant_opIdEEKNS_6MatrixIdLin1ELin1ELi0ELin1ELin1EEEEES9_EC1ERKSC_, symObjAddr: 0x102B8, symBinAddr: 0x100010B68, symSize: 0x34 }
  - { offsetInCU: 0x155DB9, offset: 0x155DB9, size: 0x8, addend: 0x0, symName: __ZNK5Eigen13CwiseBinaryOpINS_8internal17scalar_product_opIddEEKNS_14CwiseNullaryOpINS1_18scalar_constant_opIdEEKNS_6MatrixIdLin1ELin1ELi0ELin1ELin1EEEEES9_E4rowsEv, symObjAddr: 0x102EC, symBinAddr: 0x100010B9C, symSize: 0x28 }
  - { offsetInCU: 0x155DDF, offset: 0x155DDF, size: 0x8, addend: 0x0, symName: __ZNK5Eigen13CwiseBinaryOpINS_8internal17scalar_product_opIddEEKNS_14CwiseNullaryOpINS1_18scalar_constant_opIdEEKNS_6MatrixIdLin1ELin1ELi0ELin1ELin1EEEEES9_E4colsEv, symObjAddr: 0x10314, symBinAddr: 0x100010BC4, symSize: 0x28 }
  - { offsetInCU: 0x155E05, offset: 0x155E05, size: 0x8, addend: 0x0, symName: __ZN5Eigen10MatrixBaseINS_13CwiseBinaryOpINS_8internal13scalar_sum_opIddEEKNS_14CwiseNullaryOpINS2_18scalar_identity_opIdEENS_6MatrixIdLin1ELin1ELi0ELin1ELin1EEEEEKNS1_INS2_17scalar_product_opIddEEKNS5_INS2_18scalar_constant_opIdEEKS9_EESG_EEEEEC2Ev, symObjAddr: 0x1033C, symBinAddr: 0x100010BEC, symSize: 0x2C }
  - { offsetInCU: 0x155E2F, offset: 0x155E2F, size: 0x8, addend: 0x0, symName: __ZN5Eigen9DenseBaseINS_13CwiseBinaryOpINS_8internal13scalar_sum_opIddEEKNS_14CwiseNullaryOpINS2_18scalar_identity_opIdEENS_6MatrixIdLin1ELin1ELi0ELin1ELin1EEEEEKNS1_INS2_17scalar_product_opIddEEKNS5_INS2_18scalar_constant_opIdEEKS9_EESG_EEEEEC2Ev, symObjAddr: 0x10368, symBinAddr: 0x100010C18, symSize: 0x14 }
  - { offsetInCU: 0x155E59, offset: 0x155E59, size: 0x8, addend: 0x0, symName: __ZN5Eigen13CwiseBinaryOpINS_8internal17scalar_product_opIddEEKNS_14CwiseNullaryOpINS1_18scalar_constant_opIdEEKNS_6MatrixIdLin1ELin1ELi0ELin1ELin1EEEEES9_EC2ERKSC_, symObjAddr: 0x1037C, symBinAddr: 0x100010C2C, symSize: 0x5C }
  - { offsetInCU: 0x155E8E, offset: 0x155E8E, size: 0x8, addend: 0x0, symName: __ZN5Eigen6MatrixIdLin1ELin1ELi0ELin1ELin1EEC2INS_13CwiseBinaryOpINS_8internal13scalar_sum_opIddEEKNS_14CwiseNullaryOpINS4_18scalar_identity_opIdEES1_EEKNS3_INS4_17scalar_product_opIddEEKNS7_INS4_18scalar_constant_opIdEEKS1_EESG_EEEEEERKNS_9EigenBaseIT_EE, symObjAddr: 0x103D8, symBinAddr: 0x100010C88, symSize: 0x40 }
  - { offsetInCU: 0x155ED0, offset: 0x155ED0, size: 0x8, addend: 0x0, symName: __ZNK5Eigen9EigenBaseINS_13CwiseBinaryOpINS_8internal13scalar_sum_opIddEEKNS_14CwiseNullaryOpINS2_18scalar_identity_opIdEENS_6MatrixIdLin1ELin1ELi0ELin1ELin1EEEEEKNS1_INS2_17scalar_product_opIddEEKNS5_INS2_18scalar_constant_opIdEEKS9_EESG_EEEEE7derivedEv, symObjAddr: 0x10418, symBinAddr: 0x100010CC8, symSize: 0x14 }
  - { offsetInCU: 0x155EF6, offset: 0x155EF6, size: 0x8, addend: 0x0, symName: __ZN5Eigen15PlainObjectBaseINS_6MatrixIdLin1ELin1ELi0ELin1ELin1EEEEC2INS_13CwiseBinaryOpINS_8internal13scalar_sum_opIddEEKNS_14CwiseNullaryOpINS6_18scalar_identity_opIdEES2_EEKNS5_INS6_17scalar_product_opIddEEKNS9_INS6_18scalar_constant_opIdEEKS2_EESI_EEEEEERKNS_9DenseBaseIT_EE, symObjAddr: 0x1042C, symBinAddr: 0x100010CDC, symSize: 0x80 }
  - { offsetInCU: 0x155F38, offset: 0x155F38, size: 0x8, addend: 0x0, symName: __ZN5Eigen15PlainObjectBaseINS_6MatrixIdLin1ELin1ELi0ELin1ELin1EEEE10resizeLikeINS_13CwiseBinaryOpINS_8internal13scalar_sum_opIddEEKNS_14CwiseNullaryOpINS6_18scalar_identity_opIdEES2_EEKNS5_INS6_17scalar_product_opIddEEKNS9_INS6_18scalar_constant_opIdEEKS2_EESI_EEEEEEvRKNS_9EigenBaseIT_EE, symObjAddr: 0x104AC, symBinAddr: 0x100010D5C, symSize: 0x11C }
  - { offsetInCU: 0x155FCC, offset: 0x155FCC, size: 0x8, addend: 0x0, symName: __ZN5Eigen15PlainObjectBaseINS_6MatrixIdLin1ELin1ELi0ELin1ELin1EEEE12_set_noaliasINS_13CwiseBinaryOpINS_8internal13scalar_sum_opIddEEKNS_14CwiseNullaryOpINS6_18scalar_identity_opIdEES2_EEKNS5_INS6_17scalar_product_opIddEEKNS9_INS6_18scalar_constant_opIdEEKS2_EESI_EEEEEERS2_RKNS_9DenseBaseIT_EE, symObjAddr: 0x105C8, symBinAddr: 0x100010E78, symSize: 0x60 }
  - { offsetInCU: 0x15600A, offset: 0x15600A, size: 0x8, addend: 0x0, symName: __ZNK5Eigen13CwiseBinaryOpINS_8internal13scalar_sum_opIddEEKNS_14CwiseNullaryOpINS1_18scalar_identity_opIdEENS_6MatrixIdLin1ELin1ELi0ELin1ELin1EEEEEKNS0_INS1_17scalar_product_opIddEEKNS4_INS1_18scalar_constant_opIdEEKS8_EESF_EEE4rowsEv, symObjAddr: 0x10628, symBinAddr: 0x100010ED8, symSize: 0x28 }
  - { offsetInCU: 0x156030, offset: 0x156030, size: 0x8, addend: 0x0, symName: __ZNK5Eigen13CwiseBinaryOpINS_8internal13scalar_sum_opIddEEKNS_14CwiseNullaryOpINS1_18scalar_identity_opIdEENS_6MatrixIdLin1ELin1ELi0ELin1ELin1EEEEEKNS0_INS1_17scalar_product_opIddEEKNS4_INS1_18scalar_constant_opIdEEKS8_EESF_EEE4colsEv, symObjAddr: 0x10650, symBinAddr: 0x100010F00, symSize: 0x28 }
  - { offsetInCU: 0x156056, offset: 0x156056, size: 0x8, addend: 0x0, symName: __ZN5Eigen8internal10AssignmentINS_6MatrixIdLin1ELin1ELi0ELin1ELin1EEENS_13CwiseBinaryOpINS0_13scalar_sum_opIddEEKNS_14CwiseNullaryOpINS0_18scalar_identity_opIdEES3_EEKNS4_INS0_17scalar_product_opIddEEKNS7_INS0_18scalar_constant_opIdEEKS3_EESG_EEEENS0_9assign_opIddEENS0_11Dense2DenseEvE3runERS3_RKSL_RKSN_, symObjAddr: 0x106B4, symBinAddr: 0x100010F64, symSize: 0x40 }
  - { offsetInCU: 0x156098, offset: 0x156098, size: 0x8, addend: 0x0, symName: __ZN5Eigen8internal27checkTransposeAliasing_implINS_6MatrixIdLin1ELin1ELi0ELin1ELin1EEENS_13CwiseBinaryOpINS0_13scalar_sum_opIddEEKNS_14CwiseNullaryOpINS0_18scalar_identity_opIdEES3_EEKNS4_INS0_17scalar_product_opIddEEKNS7_INS0_18scalar_constant_opIdEEKS3_EESG_EEEELb0EE3runERSG_RKSL_, symObjAddr: 0x1082C, symBinAddr: 0x1000110DC, symSize: 0x14 }
  - { offsetInCU: 0x156154, offset: 0x156154, size: 0x8, addend: 0x0, symName: __ZN5Eigen8internal9evaluatorINS_13CwiseBinaryOpINS0_13scalar_sum_opIddEEKNS_14CwiseNullaryOpINS0_18scalar_identity_opIdEENS_6MatrixIdLin1ELin1ELi0ELin1ELin1EEEEEKNS2_INS0_17scalar_product_opIddEEKNS5_INS0_18scalar_constant_opIdEEKS9_EESG_EEEEEC1ERKSL_, symObjAddr: 0x10840, symBinAddr: 0x1000110F0, symSize: 0x34 }
  - { offsetInCU: 0x1561BA, offset: 0x1561BA, size: 0x8, addend: 0x0, symName: __ZN5Eigen8internal31generic_dense_assignment_kernelINS0_9evaluatorINS_6MatrixIdLin1ELin1ELi0ELin1ELin1EEEEENS2_INS_13CwiseBinaryOpINS0_13scalar_sum_opIddEEKNS_14CwiseNullaryOpINS0_18scalar_identity_opIdEES4_EEKNS6_INS0_17scalar_product_opIddEEKNS9_INS0_18scalar_constant_opIdEEKS4_EESI_EEEEEENS0_9assign_opIddEELi0EEC1ERS5_RKSO_RKSQ_RS4_, symObjAddr: 0x1096C, symBinAddr: 0x10001121C, symSize: 0x4C }
  - { offsetInCU: 0x156225, offset: 0x156225, size: 0x8, addend: 0x0, symName: __ZN5Eigen8internal21dense_assignment_loopINS0_31generic_dense_assignment_kernelINS0_9evaluatorINS_6MatrixIdLin1ELin1ELi0ELin1ELin1EEEEENS3_INS_13CwiseBinaryOpINS0_13scalar_sum_opIddEEKNS_14CwiseNullaryOpINS0_18scalar_identity_opIdEES5_EEKNS7_INS0_17scalar_product_opIddEEKNSA_INS0_18scalar_constant_opIdEEKS5_EESJ_EEEEEENS0_9assign_opIddEELi0EEELi0ELi0EE3runERSS_, symObjAddr: 0x109B8, symBinAddr: 0x100011268, symSize: 0xAC }
  - { offsetInCU: 0x156283, offset: 0x156283, size: 0x8, addend: 0x0, symName: __ZN5Eigen8internal9evaluatorINS_13CwiseBinaryOpINS0_13scalar_sum_opIddEEKNS_14CwiseNullaryOpINS0_18scalar_identity_opIdEENS_6MatrixIdLin1ELin1ELi0ELin1ELin1EEEEEKNS2_INS0_17scalar_product_opIddEEKNS5_INS0_18scalar_constant_opIdEEKS9_EESG_EEEEED1Ev, symObjAddr: 0x10A64, symBinAddr: 0x100011314, symSize: 0x2C }
  - { offsetInCU: 0x1562B0, offset: 0x1562B0, size: 0x8, addend: 0x0, symName: __ZN5Eigen8internal9evaluatorINS_13CwiseBinaryOpINS0_13scalar_sum_opIddEEKNS_14CwiseNullaryOpINS0_18scalar_identity_opIdEENS_6MatrixIdLin1ELin1ELi0ELin1ELin1EEEEEKNS2_INS0_17scalar_product_opIddEEKNS5_INS0_18scalar_constant_opIdEEKS9_EESG_EEEEEC2ERKSL_, symObjAddr: 0x10A90, symBinAddr: 0x100011340, symSize: 0x34 }
  - { offsetInCU: 0x1562E9, offset: 0x1562E9, size: 0x8, addend: 0x0, symName: __ZN5Eigen8internal16binary_evaluatorINS_13CwiseBinaryOpINS0_13scalar_sum_opIddEEKNS_14CwiseNullaryOpINS0_18scalar_identity_opIdEENS_6MatrixIdLin1ELin1ELi0ELin1ELin1EEEEEKNS2_INS0_17scalar_product_opIddEEKNS5_INS0_18scalar_constant_opIdEEKS9_EESG_EEEENS0_10IndexBasedESM_ddEC2ERKSL_, symObjAddr: 0x10AC4, symBinAddr: 0x100011374, symSize: 0x64 }
  - { offsetInCU: 0x156322, offset: 0x156322, size: 0x8, addend: 0x0, symName: __ZN5Eigen8internal14evaluator_baseINS_13CwiseBinaryOpINS0_13scalar_sum_opIddEEKNS_14CwiseNullaryOpINS0_18scalar_identity_opIdEENS_6MatrixIdLin1ELin1ELi0ELin1ELin1EEEEEKNS2_INS0_17scalar_product_opIddEEKNS5_INS0_18scalar_constant_opIdEEKS9_EESG_EEEEEC2Ev, symObjAddr: 0x10B28, symBinAddr: 0x1000113D8, symSize: 0x14 }
  - { offsetInCU: 0x15634C, offset: 0x15634C, size: 0x8, addend: 0x0, symName: __ZN5Eigen8internal16binary_evaluatorINS_13CwiseBinaryOpINS0_13scalar_sum_opIddEEKNS_14CwiseNullaryOpINS0_18scalar_identity_opIdEENS_6MatrixIdLin1ELin1ELi0ELin1ELin1EEEEEKNS2_INS0_17scalar_product_opIddEEKNS5_INS0_18scalar_constant_opIdEEKS9_EESG_EEEENS0_10IndexBasedESM_ddE4DataC1ERKSL_, symObjAddr: 0x10B3C, symBinAddr: 0x1000113EC, symSize: 0x34 }
  - { offsetInCU: 0x156385, offset: 0x156385, size: 0x8, addend: 0x0, symName: __ZN5Eigen8internal14evaluator_baseINS_13CwiseBinaryOpINS0_13scalar_sum_opIddEEKNS_14CwiseNullaryOpINS0_18scalar_identity_opIdEENS_6MatrixIdLin1ELin1ELi0ELin1ELin1EEEEEKNS2_INS0_17scalar_product_opIddEEKNS5_INS0_18scalar_constant_opIdEEKS9_EESG_EEEEED2Ev, symObjAddr: 0x10B70, symBinAddr: 0x100011420, symSize: 0x14 }
  - { offsetInCU: 0x1563AF, offset: 0x1563AF, size: 0x8, addend: 0x0, symName: __ZN5Eigen8internal16binary_evaluatorINS_13CwiseBinaryOpINS0_13scalar_sum_opIddEEKNS_14CwiseNullaryOpINS0_18scalar_identity_opIdEENS_6MatrixIdLin1ELin1ELi0ELin1ELin1EEEEEKNS2_INS0_17scalar_product_opIddEEKNS5_INS0_18scalar_constant_opIdEEKS9_EESG_EEEENS0_10IndexBasedESM_ddE4DataC2ERKSL_, symObjAddr: 0x10B84, symBinAddr: 0x100011434, symSize: 0xA8 }
  - { offsetInCU: 0x1563E8, offset: 0x1563E8, size: 0x8, addend: 0x0, symName: __ZNK5Eigen13CwiseBinaryOpINS_8internal13scalar_sum_opIddEEKNS_14CwiseNullaryOpINS1_18scalar_identity_opIdEENS_6MatrixIdLin1ELin1ELi0ELin1ELin1EEEEEKNS0_INS1_17scalar_product_opIddEEKNS4_INS1_18scalar_constant_opIdEEKS8_EESF_EEE7functorEv, symObjAddr: 0x10C2C, symBinAddr: 0x1000114DC, symSize: 0x18 }
  - { offsetInCU: 0x15640E, offset: 0x15640E, size: 0x8, addend: 0x0, symName: __ZNK5Eigen13CwiseBinaryOpINS_8internal13scalar_sum_opIddEEKNS_14CwiseNullaryOpINS1_18scalar_identity_opIdEENS_6MatrixIdLin1ELin1ELi0ELin1ELin1EEEEEKNS0_INS1_17scalar_product_opIddEEKNS4_INS1_18scalar_constant_opIdEEKS8_EESF_EEE3lhsEv, symObjAddr: 0x10C44, symBinAddr: 0x1000114F4, symSize: 0x18 }
  - { offsetInCU: 0x156434, offset: 0x156434, size: 0x8, addend: 0x0, symName: __ZNK5Eigen13CwiseBinaryOpINS_8internal13scalar_sum_opIddEEKNS_14CwiseNullaryOpINS1_18scalar_identity_opIdEENS_6MatrixIdLin1ELin1ELi0ELin1ELin1EEEEEKNS0_INS1_17scalar_product_opIddEEKNS4_INS1_18scalar_constant_opIdEEKS8_EESF_EEE3rhsEv, symObjAddr: 0x10C5C, symBinAddr: 0x10001150C, symSize: 0x18 }
  - { offsetInCU: 0x15645A, offset: 0x15645A, size: 0x8, addend: 0x0, symName: __ZN5Eigen8internal9evaluatorIKNS_13CwiseBinaryOpINS0_17scalar_product_opIddEEKNS_14CwiseNullaryOpINS0_18scalar_constant_opIdEEKNS_6MatrixIdLin1ELin1ELi0ELin1ELin1EEEEESA_EEEC1ERSE_, symObjAddr: 0x10C74, symBinAddr: 0x100011524, symSize: 0x34 }
  - { offsetInCU: 0x156492, offset: 0x156492, size: 0x8, addend: 0x0, symName: __ZN5Eigen8internal9evaluatorIKNS_13CwiseBinaryOpINS0_17scalar_product_opIddEEKNS_14CwiseNullaryOpINS0_18scalar_constant_opIdEEKNS_6MatrixIdLin1ELin1ELi0ELin1ELin1EEEEESA_EEEC2ERSE_, symObjAddr: 0x10CA8, symBinAddr: 0x100011558, symSize: 0x34 }
  - { offsetInCU: 0x1564CA, offset: 0x1564CA, size: 0x8, addend: 0x0, symName: __ZN5Eigen8internal9evaluatorINS_13CwiseBinaryOpINS0_17scalar_product_opIddEEKNS_14CwiseNullaryOpINS0_18scalar_constant_opIdEEKNS_6MatrixIdLin1ELin1ELi0ELin1ELin1EEEEESA_EEEC2ERKSD_, symObjAddr: 0x10CDC, symBinAddr: 0x10001158C, symSize: 0x34 }
  - { offsetInCU: 0x156503, offset: 0x156503, size: 0x8, addend: 0x0, symName: __ZN5Eigen8internal16binary_evaluatorINS_13CwiseBinaryOpINS0_17scalar_product_opIddEEKNS_14CwiseNullaryOpINS0_18scalar_constant_opIdEEKNS_6MatrixIdLin1ELin1ELi0ELin1ELin1EEEEESA_EENS0_10IndexBasedESE_ddEC2ERKSD_, symObjAddr: 0x10D10, symBinAddr: 0x1000115C0, symSize: 0x64 }
  - { offsetInCU: 0x15653C, offset: 0x15653C, size: 0x8, addend: 0x0, symName: __ZN5Eigen8internal14evaluator_baseINS_13CwiseBinaryOpINS0_17scalar_product_opIddEEKNS_14CwiseNullaryOpINS0_18scalar_constant_opIdEEKNS_6MatrixIdLin1ELin1ELi0ELin1ELin1EEEEESA_EEEC2Ev, symObjAddr: 0x10D74, symBinAddr: 0x100011624, symSize: 0x14 }
  - { offsetInCU: 0x156566, offset: 0x156566, size: 0x8, addend: 0x0, symName: __ZN5Eigen8internal16binary_evaluatorINS_13CwiseBinaryOpINS0_17scalar_product_opIddEEKNS_14CwiseNullaryOpINS0_18scalar_constant_opIdEEKNS_6MatrixIdLin1ELin1ELi0ELin1ELin1EEEEESA_EENS0_10IndexBasedESE_ddE4DataC1ERKSD_, symObjAddr: 0x10D88, symBinAddr: 0x100011638, symSize: 0x34 }
  - { offsetInCU: 0x15659F, offset: 0x15659F, size: 0x8, addend: 0x0, symName: __ZN5Eigen8internal14evaluator_baseINS_13CwiseBinaryOpINS0_17scalar_product_opIddEEKNS_14CwiseNullaryOpINS0_18scalar_constant_opIdEEKNS_6MatrixIdLin1ELin1ELi0ELin1ELin1EEEEESA_EEED2Ev, symObjAddr: 0x10DBC, symBinAddr: 0x10001166C, symSize: 0x14 }
  - { offsetInCU: 0x1565C9, offset: 0x1565C9, size: 0x8, addend: 0x0, symName: __ZN5Eigen8internal16binary_evaluatorINS_13CwiseBinaryOpINS0_17scalar_product_opIddEEKNS_14CwiseNullaryOpINS0_18scalar_constant_opIdEEKNS_6MatrixIdLin1ELin1ELi0ELin1ELin1EEEEESA_EENS0_10IndexBasedESE_ddE4DataC2ERKSD_, symObjAddr: 0x10DD0, symBinAddr: 0x100011680, symSize: 0xA8 }
  - { offsetInCU: 0x156602, offset: 0x156602, size: 0x8, addend: 0x0, symName: __ZNK5Eigen13CwiseBinaryOpINS_8internal17scalar_product_opIddEEKNS_14CwiseNullaryOpINS1_18scalar_constant_opIdEEKNS_6MatrixIdLin1ELin1ELi0ELin1ELin1EEEEES9_E7functorEv, symObjAddr: 0x10E78, symBinAddr: 0x100011728, symSize: 0x18 }
  - { offsetInCU: 0x156628, offset: 0x156628, size: 0x8, addend: 0x0, symName: __ZNK5Eigen13CwiseBinaryOpINS_8internal17scalar_product_opIddEEKNS_14CwiseNullaryOpINS1_18scalar_constant_opIdEEKNS_6MatrixIdLin1ELin1ELi0ELin1ELin1EEEEES9_E3lhsEv, symObjAddr: 0x10E90, symBinAddr: 0x100011740, symSize: 0x18 }
  - { offsetInCU: 0x15664E, offset: 0x15664E, size: 0x8, addend: 0x0, symName: __ZNK5Eigen13CwiseBinaryOpINS_8internal17scalar_product_opIddEEKNS_14CwiseNullaryOpINS1_18scalar_constant_opIdEEKNS_6MatrixIdLin1ELin1ELi0ELin1ELin1EEEEES9_E3rhsEv, symObjAddr: 0x10EA8, symBinAddr: 0x100011758, symSize: 0x18 }
  - { offsetInCU: 0x156674, offset: 0x156674, size: 0x8, addend: 0x0, symName: __ZN5Eigen8internal31generic_dense_assignment_kernelINS0_9evaluatorINS_6MatrixIdLin1ELin1ELi0ELin1ELin1EEEEENS2_INS_13CwiseBinaryOpINS0_13scalar_sum_opIddEEKNS_14CwiseNullaryOpINS0_18scalar_identity_opIdEES4_EEKNS6_INS0_17scalar_product_opIddEEKNS9_INS0_18scalar_constant_opIdEEKS4_EESI_EEEEEENS0_9assign_opIddEELi0EEC2ERS5_RKSO_RKSQ_RS4_, symObjAddr: 0x10EC0, symBinAddr: 0x100011770, symSize: 0x44 }
  - { offsetInCU: 0x1566DA, offset: 0x1566DA, size: 0x8, addend: 0x0, symName: __ZNK5Eigen8internal31generic_dense_assignment_kernelINS0_9evaluatorINS_6MatrixIdLin1ELin1ELi0ELin1ELin1EEEEENS2_INS_13CwiseBinaryOpINS0_13scalar_sum_opIddEEKNS_14CwiseNullaryOpINS0_18scalar_identity_opIdEES4_EEKNS6_INS0_17scalar_product_opIddEEKNS9_INS0_18scalar_constant_opIdEEKS4_EESI_EEEEEENS0_9assign_opIddEELi0EE9outerSizeEv, symObjAddr: 0x10F04, symBinAddr: 0x1000117B4, symSize: 0x28 }
  - { offsetInCU: 0x156700, offset: 0x156700, size: 0x8, addend: 0x0, symName: __ZNK5Eigen8internal31generic_dense_assignment_kernelINS0_9evaluatorINS_6MatrixIdLin1ELin1ELi0ELin1ELin1EEEEENS2_INS_13CwiseBinaryOpINS0_13scalar_sum_opIddEEKNS_14CwiseNullaryOpINS0_18scalar_identity_opIdEES4_EEKNS6_INS0_17scalar_product_opIddEEKNS9_INS0_18scalar_constant_opIdEEKS4_EESI_EEEEEENS0_9assign_opIddEELi0EE9innerSizeEv, symObjAddr: 0x10F2C, symBinAddr: 0x1000117DC, symSize: 0x28 }
  - { offsetInCU: 0x156726, offset: 0x156726, size: 0x8, addend: 0x0, symName: __ZN5Eigen8internal31generic_dense_assignment_kernelINS0_9evaluatorINS_6MatrixIdLin1ELin1ELi0ELin1ELin1EEEEENS2_INS_13CwiseBinaryOpINS0_13scalar_sum_opIddEEKNS_14CwiseNullaryOpINS0_18scalar_identity_opIdEES4_EEKNS6_INS0_17scalar_product_opIddEEKNS9_INS0_18scalar_constant_opIdEEKS4_EESI_EEEEEENS0_9assign_opIddEELi0EE23assignCoeffByOuterInnerEll, symObjAddr: 0x10F54, symBinAddr: 0x100011804, symSize: 0x60 }
  - { offsetInCU: 0x156788, offset: 0x156788, size: 0x8, addend: 0x0, symName: __ZN5Eigen8internal31generic_dense_assignment_kernelINS0_9evaluatorINS_6MatrixIdLin1ELin1ELi0ELin1ELin1EEEEENS2_INS_13CwiseBinaryOpINS0_13scalar_sum_opIddEEKNS_14CwiseNullaryOpINS0_18scalar_identity_opIdEES4_EEKNS6_INS0_17scalar_product_opIddEEKNS9_INS0_18scalar_constant_opIdEEKS4_EESI_EEEEEENS0_9assign_opIddEELi0EE20rowIndexByOuterInnerEll, symObjAddr: 0x10FB4, symBinAddr: 0x100011864, symSize: 0x18 }
  - { offsetInCU: 0x1567BB, offset: 0x1567BB, size: 0x8, addend: 0x0, symName: __ZN5Eigen8internal31generic_dense_assignment_kernelINS0_9evaluatorINS_6MatrixIdLin1ELin1ELi0ELin1ELin1EEEEENS2_INS_13CwiseBinaryOpINS0_13scalar_sum_opIddEEKNS_14CwiseNullaryOpINS0_18scalar_identity_opIdEES4_EEKNS6_INS0_17scalar_product_opIddEEKNS9_INS0_18scalar_constant_opIdEEKS4_EESI_EEEEEENS0_9assign_opIddEELi0EE20colIndexByOuterInnerEll, symObjAddr: 0x10FCC, symBinAddr: 0x10001187C, symSize: 0x18 }
  - { offsetInCU: 0x1567EE, offset: 0x1567EE, size: 0x8, addend: 0x0, symName: __ZN5Eigen8internal31generic_dense_assignment_kernelINS0_9evaluatorINS_6MatrixIdLin1ELin1ELi0ELin1ELin1EEEEENS2_INS_13CwiseBinaryOpINS0_13scalar_sum_opIddEEKNS_14CwiseNullaryOpINS0_18scalar_identity_opIdEES4_EEKNS6_INS0_17scalar_product_opIddEEKNS9_INS0_18scalar_constant_opIdEEKS4_EESI_EEEEEENS0_9assign_opIddEELi0EE11assignCoeffEll, symObjAddr: 0x10FE4, symBinAddr: 0x100011894, symSize: 0x70 }
  - { offsetInCU: 0x156832, offset: 0x156832, size: 0x8, addend: 0x0, symName: __ZNK5Eigen8internal16binary_evaluatorINS_13CwiseBinaryOpINS0_13scalar_sum_opIddEEKNS_14CwiseNullaryOpINS0_18scalar_identity_opIdEENS_6MatrixIdLin1ELin1ELi0ELin1ELin1EEEEEKNS2_INS0_17scalar_product_opIddEEKNS5_INS0_18scalar_constant_opIdEEKS9_EESG_EEEENS0_10IndexBasedESM_ddE5coeffEll, symObjAddr: 0x11054, symBinAddr: 0x100011904, symSize: 0x7C }
  - { offsetInCU: 0x156876, offset: 0x156876, size: 0x8, addend: 0x0, symName: __ZNK5Eigen8internal16binary_evaluatorINS_13CwiseBinaryOpINS0_13scalar_sum_opIddEEKNS_14CwiseNullaryOpINS0_18scalar_identity_opIdEENS_6MatrixIdLin1ELin1ELi0ELin1ELin1EEEEEKNS2_INS0_17scalar_product_opIddEEKNS5_INS0_18scalar_constant_opIdEEKS9_EESG_EEEENS0_10IndexBasedESM_ddE4Data4funcEv, symObjAddr: 0x110D0, symBinAddr: 0x100011980, symSize: 0x14 }
  - { offsetInCU: 0x15689C, offset: 0x15689C, size: 0x8, addend: 0x0, symName: __ZNK5Eigen8internal16binary_evaluatorINS_13CwiseBinaryOpINS0_17scalar_product_opIddEEKNS_14CwiseNullaryOpINS0_18scalar_constant_opIdEEKNS_6MatrixIdLin1ELin1ELi0ELin1ELin1EEEEESA_EENS0_10IndexBasedESE_ddE5coeffEll, symObjAddr: 0x110E4, symBinAddr: 0x100011994, symSize: 0x78 }
  - { offsetInCU: 0x1568E0, offset: 0x1568E0, size: 0x8, addend: 0x0, symName: __ZNK5Eigen8internal16binary_evaluatorINS_13CwiseBinaryOpINS0_17scalar_product_opIddEEKNS_14CwiseNullaryOpINS0_18scalar_constant_opIdEEKNS_6MatrixIdLin1ELin1ELi0ELin1ELin1EEEEESA_EENS0_10IndexBasedESE_ddE4Data4funcEv, symObjAddr: 0x1115C, symBinAddr: 0x100011A0C, symSize: 0x14 }
  - { offsetInCU: 0x156906, offset: 0x156906, size: 0x8, addend: 0x0, symName: __ZNK5Eigen8internal9evaluatorINS_15PlainObjectBaseINS_6MatrixIdLin1ELin1ELi0ELin1ELin1EEEEEE5coeffEll, symObjAddr: 0x11170, symBinAddr: 0x100011A20, symSize: 0x5C }
  - { offsetInCU: 0x156948, offset: 0x156948, size: 0x8, addend: 0x0, symName: __ZN5Eigen8internal9evaluatorINS_13CwiseBinaryOpINS0_13scalar_sum_opIddEEKNS_14CwiseNullaryOpINS0_18scalar_identity_opIdEENS_6MatrixIdLin1ELin1ELi0ELin1ELin1EEEEEKNS2_INS0_17scalar_product_opIddEEKNS5_INS0_18scalar_constant_opIdEEKS9_EESG_EEEEED2Ev, symObjAddr: 0x111CC, symBinAddr: 0x100011A7C, symSize: 0x2C }
  - { offsetInCU: 0x156975, offset: 0x156975, size: 0x8, addend: 0x0, symName: __ZN5Eigen8internal16binary_evaluatorINS_13CwiseBinaryOpINS0_13scalar_sum_opIddEEKNS_14CwiseNullaryOpINS0_18scalar_identity_opIdEENS_6MatrixIdLin1ELin1ELi0ELin1ELin1EEEEEKNS2_INS0_17scalar_product_opIddEEKNS5_INS0_18scalar_constant_opIdEEKS9_EESG_EEEENS0_10IndexBasedESM_ddED2Ev, symObjAddr: 0x111F8, symBinAddr: 0x100011AA8, symSize: 0x34 }
  - { offsetInCU: 0x1569A1, offset: 0x1569A1, size: 0x8, addend: 0x0, symName: __ZN5Eigen8internal16binary_evaluatorINS_13CwiseBinaryOpINS0_13scalar_sum_opIddEEKNS_14CwiseNullaryOpINS0_18scalar_identity_opIdEENS_6MatrixIdLin1ELin1ELi0ELin1ELin1EEEEEKNS2_INS0_17scalar_product_opIddEEKNS5_INS0_18scalar_constant_opIdEEKS9_EESG_EEEENS0_10IndexBasedESM_ddE4DataD1Ev, symObjAddr: 0x1122C, symBinAddr: 0x100011ADC, symSize: 0x2C }
  - { offsetInCU: 0x1569CE, offset: 0x1569CE, size: 0x8, addend: 0x0, symName: __ZN5Eigen8internal16binary_evaluatorINS_13CwiseBinaryOpINS0_13scalar_sum_opIddEEKNS_14CwiseNullaryOpINS0_18scalar_identity_opIdEENS_6MatrixIdLin1ELin1ELi0ELin1ELin1EEEEEKNS2_INS0_17scalar_product_opIddEEKNS5_INS0_18scalar_constant_opIdEEKS9_EESG_EEEENS0_10IndexBasedESM_ddE4DataD2Ev, symObjAddr: 0x11258, symBinAddr: 0x100011B08, symSize: 0x3C }
  - { offsetInCU: 0x1569FB, offset: 0x1569FB, size: 0x8, addend: 0x0, symName: __ZN5Eigen8internal9evaluatorIKNS_13CwiseBinaryOpINS0_17scalar_product_opIddEEKNS_14CwiseNullaryOpINS0_18scalar_constant_opIdEEKNS_6MatrixIdLin1ELin1ELi0ELin1ELin1EEEEESA_EEED1Ev, symObjAddr: 0x11294, symBinAddr: 0x100011B44, symSize: 0x2C }
  - { offsetInCU: 0x156A27, offset: 0x156A27, size: 0x8, addend: 0x0, symName: __ZN5Eigen8internal9evaluatorIKNS_13CwiseBinaryOpINS0_17scalar_product_opIddEEKNS_14CwiseNullaryOpINS0_18scalar_constant_opIdEEKNS_6MatrixIdLin1ELin1ELi0ELin1ELin1EEEEESA_EEED2Ev, symObjAddr: 0x112C0, symBinAddr: 0x100011B70, symSize: 0x2C }
  - { offsetInCU: 0x156A53, offset: 0x156A53, size: 0x8, addend: 0x0, symName: __ZN5Eigen8internal9evaluatorINS_13CwiseBinaryOpINS0_17scalar_product_opIddEEKNS_14CwiseNullaryOpINS0_18scalar_constant_opIdEEKNS_6MatrixIdLin1ELin1ELi0ELin1ELin1EEEEESA_EEED2Ev, symObjAddr: 0x112EC, symBinAddr: 0x100011B9C, symSize: 0x2C }
  - { offsetInCU: 0x156A80, offset: 0x156A80, size: 0x8, addend: 0x0, symName: __ZN5Eigen8internal16binary_evaluatorINS_13CwiseBinaryOpINS0_17scalar_product_opIddEEKNS_14CwiseNullaryOpINS0_18scalar_constant_opIdEEKNS_6MatrixIdLin1ELin1ELi0ELin1ELin1EEEEESA_EENS0_10IndexBasedESE_ddED2Ev, symObjAddr: 0x11318, symBinAddr: 0x100011BC8, symSize: 0x34 }
  - { offsetInCU: 0x156AAC, offset: 0x156AAC, size: 0x8, addend: 0x0, symName: __ZN5Eigen8internal16binary_evaluatorINS_13CwiseBinaryOpINS0_17scalar_product_opIddEEKNS_14CwiseNullaryOpINS0_18scalar_constant_opIdEEKNS_6MatrixIdLin1ELin1ELi0ELin1ELin1EEEEESA_EENS0_10IndexBasedESE_ddE4DataD1Ev, symObjAddr: 0x1134C, symBinAddr: 0x100011BFC, symSize: 0x2C }
  - { offsetInCU: 0x156AD9, offset: 0x156AD9, size: 0x8, addend: 0x0, symName: __ZN5Eigen8internal16binary_evaluatorINS_13CwiseBinaryOpINS0_17scalar_product_opIddEEKNS_14CwiseNullaryOpINS0_18scalar_constant_opIdEEKNS_6MatrixIdLin1ELin1ELi0ELin1ELin1EEEEESA_EENS0_10IndexBasedESE_ddE4DataD2Ev, symObjAddr: 0x11378, symBinAddr: 0x100011C28, symSize: 0x3C }
  - { offsetInCU: 0x156B06, offset: 0x156B06, size: 0x8, addend: 0x0, symName: __ZN5Eigen7ProductINS_6MatrixIdLin1ELin1ELi0ELin1ELin1EEES2_Li0EEC1ERKS2_S5_, symObjAddr: 0x113B4, symBinAddr: 0x100011C64, symSize: 0x3C }
  - { offsetInCU: 0x156B4C, offset: 0x156B4C, size: 0x8, addend: 0x0, symName: __ZN5Eigen7ProductINS_6MatrixIdLin1ELin1ELi0ELin1ELin1EEES2_Li0EEC2ERKS2_S5_, symObjAddr: 0x113F0, symBinAddr: 0x100011CA0, symSize: 0xC0 }
  - { offsetInCU: 0x156B97, offset: 0x156B97, size: 0x8, addend: 0x0, symName: __ZN5Eigen11ProductImplINS_6MatrixIdLin1ELin1ELi0ELin1ELin1EEES2_Li0ENS_5DenseEEC2Ev, symObjAddr: 0x114B0, symBinAddr: 0x100011D60, symSize: 0x2C }
  - { offsetInCU: 0x156BC8, offset: 0x156BC8, size: 0x8, addend: 0x0, symName: __ZN5Eigen8internal18dense_product_baseINS_6MatrixIdLin1ELin1ELi0ELin1ELin1EEES3_Li0ELi8EEC2Ev, symObjAddr: 0x114DC, symBinAddr: 0x100011D8C, symSize: 0x2C }
  - { offsetInCU: 0x156BF4, offset: 0x156BF4, size: 0x8, addend: 0x0, symName: __ZN5Eigen10MatrixBaseINS_7ProductINS_6MatrixIdLin1ELin1ELi0ELin1ELin1EEES3_Li0EEEEC2Ev, symObjAddr: 0x11508, symBinAddr: 0x100011DB8, symSize: 0x2C }
  - { offsetInCU: 0x156C1E, offset: 0x156C1E, size: 0x8, addend: 0x0, symName: __ZN5Eigen9DenseBaseINS_7ProductINS_6MatrixIdLin1ELin1ELi0ELin1ELin1EEES3_Li0EEEEC2Ev, symObjAddr: 0x11534, symBinAddr: 0x100011DE4, symSize: 0x14 }
  - { offsetInCU: 0x156C48, offset: 0x156C48, size: 0x8, addend: 0x0, symName: __ZN5Eigen9TransposeINS_6MatrixIdLin1ELin1ELi0ELin1ELin1EEEEC1ERS2_, symObjAddr: 0x11548, symBinAddr: 0x100011DF8, symSize: 0x34 }
  - { offsetInCU: 0x156C80, offset: 0x156C80, size: 0x8, addend: 0x0, symName: __ZN5Eigen9TransposeINS_6MatrixIdLin1ELin1ELi0ELin1ELin1EEEEC2ERS2_, symObjAddr: 0x1157C, symBinAddr: 0x100011E2C, symSize: 0x38 }
  - { offsetInCU: 0x156CB8, offset: 0x156CB8, size: 0x8, addend: 0x0, symName: __ZN5Eigen13TransposeImplINS_6MatrixIdLin1ELin1ELi0ELin1ELin1EEENS_5DenseEEC2Ev, symObjAddr: 0x115B4, symBinAddr: 0x100011E64, symSize: 0x2C }
  - { offsetInCU: 0x156CE2, offset: 0x156CE2, size: 0x8, addend: 0x0, symName: __ZN5Eigen10MatrixBaseINS_9TransposeINS_6MatrixIdLin1ELin1ELi0ELin1ELin1EEEEEEC2Ev, symObjAddr: 0x115E0, symBinAddr: 0x100011E90, symSize: 0x2C }
  - { offsetInCU: 0x156D0C, offset: 0x156D0C, size: 0x8, addend: 0x0, symName: __ZN5Eigen9DenseBaseINS_9TransposeINS_6MatrixIdLin1ELin1ELi0ELin1ELin1EEEEEEC2Ev, symObjAddr: 0x1160C, symBinAddr: 0x100011EBC, symSize: 0x14 }
  - { offsetInCU: 0x156D36, offset: 0x156D36, size: 0x8, addend: 0x0, symName: __ZNK5Eigen9EigenBaseINS_7ProductINS_6MatrixIdLin1ELin1ELi0ELin1ELin1EEES3_Li0EEEE7derivedEv, symObjAddr: 0x11620, symBinAddr: 0x100011ED0, symSize: 0x14 }
  - { offsetInCU: 0x156D5C, offset: 0x156D5C, size: 0x8, addend: 0x0, symName: __ZNK5Eigen9EigenBaseINS_9TransposeINS_6MatrixIdLin1ELin1ELi0ELin1ELin1EEEEEE7derivedEv, symObjAddr: 0x11634, symBinAddr: 0x100011EE4, symSize: 0x14 }
  - { offsetInCU: 0x156D82, offset: 0x156D82, size: 0x8, addend: 0x0, symName: __ZN5Eigen7ProductINS0_INS_6MatrixIdLin1ELin1ELi0ELin1ELin1EEES2_Li0EEENS_9TransposeIS2_EELi0EEC1ERKS3_RKS5_, symObjAddr: 0x11648, symBinAddr: 0x100011EF8, symSize: 0x3C }
  - { offsetInCU: 0x156DC8, offset: 0x156DC8, size: 0x8, addend: 0x0, symName: __ZN5Eigen7ProductINS0_INS_6MatrixIdLin1ELin1ELi0ELin1ELin1EEES2_Li0EEENS_9TransposeIS2_EELi0EEC2ERKS3_RKS5_, symObjAddr: 0x11684, symBinAddr: 0x100011F34, symSize: 0xC8 }
  - { offsetInCU: 0x156E13, offset: 0x156E13, size: 0x8, addend: 0x0, symName: __ZN5Eigen11ProductImplINS_7ProductINS_6MatrixIdLin1ELin1ELi0ELin1ELin1EEES3_Li0EEENS_9TransposeIS3_EELi0ENS_5DenseEEC2Ev, symObjAddr: 0x1174C, symBinAddr: 0x100011FFC, symSize: 0x2C }
  - { offsetInCU: 0x156E3F, offset: 0x156E3F, size: 0x8, addend: 0x0, symName: __ZNK5Eigen7ProductINS_6MatrixIdLin1ELin1ELi0ELin1ELin1EEES2_Li0EE4colsEv, symObjAddr: 0x11778, symBinAddr: 0x100012028, symSize: 0x28 }
  - { offsetInCU: 0x156E65, offset: 0x156E65, size: 0x8, addend: 0x0, symName: __ZNK5Eigen9TransposeINS_6MatrixIdLin1ELin1ELi0ELin1ELin1EEEE4rowsEv, symObjAddr: 0x117A0, symBinAddr: 0x100012050, symSize: 0x28 }
  - { offsetInCU: 0x156E90, offset: 0x156E90, size: 0x8, addend: 0x0, symName: __ZN5Eigen8internal18dense_product_baseINS_7ProductINS_6MatrixIdLin1ELin1ELi0ELin1ELin1EEES4_Li0EEENS_9TransposeIS4_EELi0ELi8EEC2Ev, symObjAddr: 0x117C8, symBinAddr: 0x100012078, symSize: 0x2C }
  - { offsetInCU: 0x156EBC, offset: 0x156EBC, size: 0x8, addend: 0x0, symName: __ZN5Eigen10MatrixBaseINS_7ProductINS1_INS_6MatrixIdLin1ELin1ELi0ELin1ELin1EEES3_Li0EEENS_9TransposeIS3_EELi0EEEEC2Ev, symObjAddr: 0x117F4, symBinAddr: 0x1000120A4, symSize: 0x2C }
  - { offsetInCU: 0x156EE6, offset: 0x156EE6, size: 0x8, addend: 0x0, symName: __ZN5Eigen9DenseBaseINS_7ProductINS1_INS_6MatrixIdLin1ELin1ELi0ELin1ELin1EEES3_Li0EEENS_9TransposeIS3_EELi0EEEEC2Ev, symObjAddr: 0x11820, symBinAddr: 0x1000120D0, symSize: 0x14 }
  - { offsetInCU: 0x156F10, offset: 0x156F10, size: 0x8, addend: 0x0, symName: __ZNK5Eigen9EigenBaseINS_7ProductINS1_INS_6MatrixIdLin1ELin1ELi0ELin1ELin1EEES3_Li0EEENS_9TransposeIS3_EELi0EEEE7derivedEv, symObjAddr: 0x11834, symBinAddr: 0x1000120E4, symSize: 0x14 }
  - { offsetInCU: 0x156F36, offset: 0x156F36, size: 0x8, addend: 0x0, symName: __ZN5Eigen13CwiseBinaryOpINS_8internal13scalar_sum_opIddEEKNS_7ProductINS4_INS_6MatrixIdLin1ELin1ELi0ELin1ELin1EEES6_Li0EEENS_9TransposeIS6_EELi0EEEKS6_EC1ERSB_RSC_RKS3_, symObjAddr: 0x11848, symBinAddr: 0x1000120F8, symSize: 0x44 }
  - { offsetInCU: 0x156F8A, offset: 0x156F8A, size: 0x8, addend: 0x0, symName: __ZN5Eigen13CwiseBinaryOpINS_8internal13scalar_sum_opIddEEKNS_7ProductINS4_INS_6MatrixIdLin1ELin1ELi0ELin1ELin1EEES6_Li0EEENS_9TransposeIS6_EELi0EEEKS6_EC2ERSB_RSC_RKS3_, symObjAddr: 0x1188C, symBinAddr: 0x10001213C, symSize: 0xFC }
  - { offsetInCU: 0x156FE3, offset: 0x156FE3, size: 0x8, addend: 0x0, symName: __ZN5Eigen17CwiseBinaryOpImplINS_8internal13scalar_sum_opIddEEKNS_7ProductINS4_INS_6MatrixIdLin1ELin1ELi0ELin1ELin1EEES6_Li0EEENS_9TransposeIS6_EELi0EEEKS6_NS_5DenseEEC2Ev, symObjAddr: 0x11988, symBinAddr: 0x100012238, symSize: 0x2C }
  - { offsetInCU: 0x15700F, offset: 0x15700F, size: 0x8, addend: 0x0, symName: __ZNK5Eigen7ProductINS0_INS_6MatrixIdLin1ELin1ELi0ELin1ELin1EEES2_Li0EEENS_9TransposeIS2_EELi0EE4rowsEv, symObjAddr: 0x119B4, symBinAddr: 0x100012264, symSize: 0x24 }
  - { offsetInCU: 0x157035, offset: 0x157035, size: 0x8, addend: 0x0, symName: __ZNK5Eigen7ProductINS0_INS_6MatrixIdLin1ELin1ELi0ELin1ELin1EEES2_Li0EEENS_9TransposeIS2_EELi0EE4colsEv, symObjAddr: 0x119D8, symBinAddr: 0x100012288, symSize: 0x28 }
  - { offsetInCU: 0x15705B, offset: 0x15705B, size: 0x8, addend: 0x0, symName: __ZN5Eigen10MatrixBaseINS_13CwiseBinaryOpINS_8internal13scalar_sum_opIddEEKNS_7ProductINS5_INS_6MatrixIdLin1ELin1ELi0ELin1ELin1EEES7_Li0EEENS_9TransposeIS7_EELi0EEEKS7_EEEC2Ev, symObjAddr: 0x11A00, symBinAddr: 0x1000122B0, symSize: 0x2C }
  - { offsetInCU: 0x157085, offset: 0x157085, size: 0x8, addend: 0x0, symName: __ZN5Eigen9DenseBaseINS_13CwiseBinaryOpINS_8internal13scalar_sum_opIddEEKNS_7ProductINS5_INS_6MatrixIdLin1ELin1ELi0ELin1ELin1EEES7_Li0EEENS_9TransposeIS7_EELi0EEEKS7_EEEC2Ev, symObjAddr: 0x11A2C, symBinAddr: 0x1000122DC, symSize: 0x14 }
  - { offsetInCU: 0x1570AF, offset: 0x1570AF, size: 0x8, addend: 0x0, symName: __ZNK5Eigen7ProductINS_6MatrixIdLin1ELin1ELi0ELin1ELin1EEES2_Li0EE4rowsEv, symObjAddr: 0x11A40, symBinAddr: 0x1000122F0, symSize: 0x28 }
  - { offsetInCU: 0x1570D5, offset: 0x1570D5, size: 0x8, addend: 0x0, symName: __ZNK5Eigen9TransposeINS_6MatrixIdLin1ELin1ELi0ELin1ELin1EEEE4colsEv, symObjAddr: 0x11A68, symBinAddr: 0x100012318, symSize: 0x28 }
  - { offsetInCU: 0x1570FB, offset: 0x1570FB, size: 0x8, addend: 0x0, symName: __ZN5Eigen15PlainObjectBaseINS_6MatrixIdLin1ELin1ELi0ELin1ELin1EEEE4_setINS_13CwiseBinaryOpINS_8internal13scalar_sum_opIddEEKNS_7ProductINS9_IS2_S2_Li0EEENS_9TransposeIS2_EELi0EEEKS2_EEEERS2_RKNS_9DenseBaseIT_EE, symObjAddr: 0x11A90, symBinAddr: 0x100012340, symSize: 0x4C }
  - { offsetInCU: 0x157139, offset: 0x157139, size: 0x8, addend: 0x0, symName: __ZNK5Eigen9EigenBaseINS_13CwiseBinaryOpINS_8internal13scalar_sum_opIddEEKNS_7ProductINS5_INS_6MatrixIdLin1ELin1ELi0ELin1ELin1EEES7_Li0EEENS_9TransposeIS7_EELi0EEEKS7_EEE7derivedEv, symObjAddr: 0x11B2C, symBinAddr: 0x1000123DC, symSize: 0x14 }
  - { offsetInCU: 0x15715F, offset: 0x15715F, size: 0x8, addend: 0x0, symName: __ZN5Eigen8internal10AssignmentINS_6MatrixIdLin1ELin1ELi0ELin1ELin1EEENS_13CwiseBinaryOpINS0_13scalar_sum_opIddEEKNS_7ProductINS7_IS3_S3_Li0EEENS_9TransposeIS3_EELi0EEEKS3_EENS0_9assign_opIddEENS0_11Dense2DenseEvE3runERS3_RKSE_RKSG_, symObjAddr: 0x11BB4, symBinAddr: 0x100012464, symSize: 0x40 }
  - { offsetInCU: 0x1571A1, offset: 0x1571A1, size: 0x8, addend: 0x0, symName: __ZN5Eigen8internal27checkTransposeAliasing_implINS_6MatrixIdLin1ELin1ELi0ELin1ELin1EEENS_13CwiseBinaryOpINS0_13scalar_sum_opIddEEKNS_7ProductINS7_IS3_S3_Li0EEENS_9TransposeIS3_EELi0EEEKS3_EELb0EE3runERSD_RKSE_, symObjAddr: 0x11D2C, symBinAddr: 0x1000125DC, symSize: 0x14 }
  - { offsetInCU: 0x157226, offset: 0x157226, size: 0x8, addend: 0x0, symName: __ZN5Eigen8internal9evaluatorINS_13CwiseBinaryOpINS0_13scalar_sum_opIddEEKNS_7ProductINS5_INS_6MatrixIdLin1ELin1ELi0ELin1ELin1EEES7_Li0EEENS_9TransposeIS7_EELi0EEEKS7_EEEC1ERKSE_, symObjAddr: 0x11D40, symBinAddr: 0x1000125F0, symSize: 0x34 }
  - { offsetInCU: 0x15728C, offset: 0x15728C, size: 0x8, addend: 0x0, symName: __ZN5Eigen8internal31generic_dense_assignment_kernelINS0_9evaluatorINS_6MatrixIdLin1ELin1ELi0ELin1ELin1EEEEENS2_INS_13CwiseBinaryOpINS0_13scalar_sum_opIddEEKNS_7ProductINS9_IS4_S4_Li0EEENS_9TransposeIS4_EELi0EEEKS4_EEEENS0_9assign_opIddEELi0EEC1ERS5_RKSH_RKSJ_RS4_, symObjAddr: 0x11E6C, symBinAddr: 0x10001271C, symSize: 0x4C }
  - { offsetInCU: 0x1572F7, offset: 0x1572F7, size: 0x8, addend: 0x0, symName: __ZN5Eigen8internal21dense_assignment_loopINS0_31generic_dense_assignment_kernelINS0_9evaluatorINS_6MatrixIdLin1ELin1ELi0ELin1ELin1EEEEENS3_INS_13CwiseBinaryOpINS0_13scalar_sum_opIddEEKNS_7ProductINSA_IS5_S5_Li0EEENS_9TransposeIS5_EELi0EEEKS5_EEEENS0_9assign_opIddEELi0EEELi0ELi0EE3runERSL_, symObjAddr: 0x11EB8, symBinAddr: 0x100012768, symSize: 0xAC }
  - { offsetInCU: 0x157355, offset: 0x157355, size: 0x8, addend: 0x0, symName: __ZN5Eigen8internal9evaluatorINS_13CwiseBinaryOpINS0_13scalar_sum_opIddEEKNS_7ProductINS5_INS_6MatrixIdLin1ELin1ELi0ELin1ELin1EEES7_Li0EEENS_9TransposeIS7_EELi0EEEKS7_EEED1Ev, symObjAddr: 0x11F64, symBinAddr: 0x100012814, symSize: 0x2C }
  - { offsetInCU: 0x157382, offset: 0x157382, size: 0x8, addend: 0x0, symName: __ZN5Eigen8internal9evaluatorINS_13CwiseBinaryOpINS0_13scalar_sum_opIddEEKNS_7ProductINS5_INS_6MatrixIdLin1ELin1ELi0ELin1ELin1EEES7_Li0EEENS_9TransposeIS7_EELi0EEEKS7_EEEC2ERKSE_, symObjAddr: 0x11F90, symBinAddr: 0x100012840, symSize: 0x34 }
  - { offsetInCU: 0x1573BB, offset: 0x1573BB, size: 0x8, addend: 0x0, symName: __ZN5Eigen8internal16binary_evaluatorINS_13CwiseBinaryOpINS0_13scalar_sum_opIddEEKNS_7ProductINS5_INS_6MatrixIdLin1ELin1ELi0ELin1ELin1EEES7_Li0EEENS_9TransposeIS7_EELi0EEEKS7_EENS0_10IndexBasedESF_ddEC2ERKSE_, symObjAddr: 0x11FC4, symBinAddr: 0x100012874, symSize: 0x64 }
  - { offsetInCU: 0x1573F4, offset: 0x1573F4, size: 0x8, addend: 0x0, symName: __ZN5Eigen8internal14evaluator_baseINS_13CwiseBinaryOpINS0_13scalar_sum_opIddEEKNS_7ProductINS5_INS_6MatrixIdLin1ELin1ELi0ELin1ELin1EEES7_Li0EEENS_9TransposeIS7_EELi0EEEKS7_EEEC2Ev, symObjAddr: 0x12028, symBinAddr: 0x1000128D8, symSize: 0x14 }
  - { offsetInCU: 0x15741E, offset: 0x15741E, size: 0x8, addend: 0x0, symName: __ZN5Eigen8internal16binary_evaluatorINS_13CwiseBinaryOpINS0_13scalar_sum_opIddEEKNS_7ProductINS5_INS_6MatrixIdLin1ELin1ELi0ELin1ELin1EEES7_Li0EEENS_9TransposeIS7_EELi0EEEKS7_EENS0_10IndexBasedESF_ddE4DataC1ERKSE_, symObjAddr: 0x1203C, symBinAddr: 0x1000128EC, symSize: 0x34 }
  - { offsetInCU: 0x157457, offset: 0x157457, size: 0x8, addend: 0x0, symName: __ZN5Eigen8internal14evaluator_baseINS_13CwiseBinaryOpINS0_13scalar_sum_opIddEEKNS_7ProductINS5_INS_6MatrixIdLin1ELin1ELi0ELin1ELin1EEES7_Li0EEENS_9TransposeIS7_EELi0EEEKS7_EEED2Ev, symObjAddr: 0x12070, symBinAddr: 0x100012920, symSize: 0x14 }
  - { offsetInCU: 0x157481, offset: 0x157481, size: 0x8, addend: 0x0, symName: __ZN5Eigen8internal16binary_evaluatorINS_13CwiseBinaryOpINS0_13scalar_sum_opIddEEKNS_7ProductINS5_INS_6MatrixIdLin1ELin1ELi0ELin1ELin1EEES7_Li0EEENS_9TransposeIS7_EELi0EEEKS7_EENS0_10IndexBasedESF_ddE4DataC2ERKSE_, symObjAddr: 0x12084, symBinAddr: 0x100012934, symSize: 0xA8 }
  - { offsetInCU: 0x1574BA, offset: 0x1574BA, size: 0x8, addend: 0x0, symName: __ZNK5Eigen13CwiseBinaryOpINS_8internal13scalar_sum_opIddEEKNS_7ProductINS4_INS_6MatrixIdLin1ELin1ELi0ELin1ELin1EEES6_Li0EEENS_9TransposeIS6_EELi0EEEKS6_E7functorEv, symObjAddr: 0x1212C, symBinAddr: 0x1000129DC, symSize: 0x18 }
  - { offsetInCU: 0x1574E0, offset: 0x1574E0, size: 0x8, addend: 0x0, symName: __ZNK5Eigen13CwiseBinaryOpINS_8internal13scalar_sum_opIddEEKNS_7ProductINS4_INS_6MatrixIdLin1ELin1ELi0ELin1ELin1EEES6_Li0EEENS_9TransposeIS6_EELi0EEEKS6_E3lhsEv, symObjAddr: 0x12144, symBinAddr: 0x1000129F4, symSize: 0x14 }
  - { offsetInCU: 0x157506, offset: 0x157506, size: 0x8, addend: 0x0, symName: __ZN5Eigen8internal9evaluatorIKNS_7ProductINS2_INS_6MatrixIdLin1ELin1ELi0ELin1ELin1EEES4_Li0EEENS_9TransposeIS4_EELi0EEEEC1ERS9_, symObjAddr: 0x12158, symBinAddr: 0x100012A08, symSize: 0x34 }
  - { offsetInCU: 0x15753E, offset: 0x15753E, size: 0x8, addend: 0x0, symName: __ZNK5Eigen13CwiseBinaryOpINS_8internal13scalar_sum_opIddEEKNS_7ProductINS4_INS_6MatrixIdLin1ELin1ELi0ELin1ELin1EEES6_Li0EEENS_9TransposeIS6_EELi0EEEKS6_E3rhsEv, symObjAddr: 0x1218C, symBinAddr: 0x100012A3C, symSize: 0x18 }
  - { offsetInCU: 0x157564, offset: 0x157564, size: 0x8, addend: 0x0, symName: __ZN5Eigen8internal9evaluatorIKNS_7ProductINS2_INS_6MatrixIdLin1ELin1ELi0ELin1ELin1EEES4_Li0EEENS_9TransposeIS4_EELi0EEEED1Ev, symObjAddr: 0x121A4, symBinAddr: 0x100012A54, symSize: 0x2C }
  - { offsetInCU: 0x157590, offset: 0x157590, size: 0x8, addend: 0x0, symName: __ZN5Eigen8internal9evaluatorIKNS_7ProductINS2_INS_6MatrixIdLin1ELin1ELi0ELin1ELin1EEES4_Li0EEENS_9TransposeIS4_EELi0EEEEC2ERS9_, symObjAddr: 0x121D0, symBinAddr: 0x100012A80, symSize: 0x34 }
  - { offsetInCU: 0x1575C8, offset: 0x1575C8, size: 0x8, addend: 0x0, symName: __ZN5Eigen8internal9evaluatorINS_7ProductINS2_INS_6MatrixIdLin1ELin1ELi0ELin1ELin1EEES4_Li0EEENS_9TransposeIS4_EELi0EEEEC2ERKS8_, symObjAddr: 0x12204, symBinAddr: 0x100012AB4, symSize: 0x34 }
  - { offsetInCU: 0x157600, offset: 0x157600, size: 0x8, addend: 0x0, symName: __ZN5Eigen8internal17product_evaluatorINS_7ProductINS2_INS_6MatrixIdLin1ELin1ELi0ELin1ELin1EEES4_Li0EEENS_9TransposeIS4_EELi0EEELi8ENS_10DenseShapeES9_ddEC2ERKS8_, symObjAddr: 0x12238, symBinAddr: 0x100012AE8, symSize: 0x108 }
  - { offsetInCU: 0x157638, offset: 0x157638, size: 0x8, addend: 0x0, symName: __ZN5Eigen8internal9evaluatorINS_6MatrixIdLin1ELin1ELi1ELin1ELin1EEEEC2Ev, symObjAddr: 0x12340, symBinAddr: 0x100012BF0, symSize: 0x2C }
  - { offsetInCU: 0x157662, offset: 0x157662, size: 0x8, addend: 0x0, symName: __ZN5Eigen6MatrixIdLin1ELin1ELi1ELin1ELin1EEC1IllEERKT_RKT0_, symObjAddr: 0x1236C, symBinAddr: 0x100012C1C, symSize: 0x3C }
  - { offsetInCU: 0x1576BC, offset: 0x1576BC, size: 0x8, addend: 0x0, symName: __ZN5Eigen8internal9evaluatorINS_6MatrixIdLin1ELin1ELi1ELin1ELin1EEEEC1ERKS3_, symObjAddr: 0x123A8, symBinAddr: 0x100012C58, symSize: 0x34 }
  - { offsetInCU: 0x1576F5, offset: 0x1576F5, size: 0x8, addend: 0x0, symName: __ZN5Eigen8internal20generic_product_implINS_7ProductINS_6MatrixIdLin1ELin1ELi0ELin1ELin1EEES4_Li0EEENS_9TransposeIS4_EENS_10DenseShapeES8_Li8EE6evalToINS3_IdLin1ELin1ELi1ELin1ELin1EEEEEvRT_RKS5_RKS7_, symObjAddr: 0x123DC, symBinAddr: 0x100012C8C, symSize: 0xE4 }
  - { offsetInCU: 0x157740, offset: 0x157740, size: 0x8, addend: 0x0, symName: __ZNK5Eigen7ProductINS0_INS_6MatrixIdLin1ELin1ELi0ELin1ELin1EEES2_Li0EEENS_9TransposeIS2_EELi0EE3lhsEv, symObjAddr: 0x124C0, symBinAddr: 0x100012D70, symSize: 0x14 }
  - { offsetInCU: 0x157766, offset: 0x157766, size: 0x8, addend: 0x0, symName: __ZNK5Eigen7ProductINS0_INS_6MatrixIdLin1ELin1ELi0ELin1ELin1EEES2_Li0EEENS_9TransposeIS2_EELi0EE3rhsEv, symObjAddr: 0x124D4, symBinAddr: 0x100012D84, symSize: 0x18 }
  - { offsetInCU: 0x15778C, offset: 0x15778C, size: 0x8, addend: 0x0, symName: __ZN5Eigen6MatrixIdLin1ELin1ELi1ELin1ELin1EED1Ev, symObjAddr: 0x124EC, symBinAddr: 0x100012D9C, symSize: 0x2C }
  - { offsetInCU: 0x1577B8, offset: 0x1577B8, size: 0x8, addend: 0x0, symName: __ZN5Eigen8internal9evaluatorINS_6MatrixIdLin1ELin1ELi1ELin1ELin1EEEED2Ev, symObjAddr: 0x12518, symBinAddr: 0x100012DC8, symSize: 0x2C }
  - { offsetInCU: 0x1577E5, offset: 0x1577E5, size: 0x8, addend: 0x0, symName: __ZN5Eigen8internal9evaluatorINS_15PlainObjectBaseINS_6MatrixIdLin1ELin1ELi1ELin1ELin1EEEEEEC2Ev, symObjAddr: 0x12544, symBinAddr: 0x100012DF4, symSize: 0x64 }
  - { offsetInCU: 0x15780F, offset: 0x15780F, size: 0x8, addend: 0x0, symName: __ZN5Eigen8internal14evaluator_baseINS_6MatrixIdLin1ELin1ELi1ELin1ELin1EEEEC2Ev, symObjAddr: 0x125A8, symBinAddr: 0x100012E58, symSize: 0x14 }
  - { offsetInCU: 0x157839, offset: 0x157839, size: 0x8, addend: 0x0, symName: __ZN5Eigen8internal14evaluator_baseINS_6MatrixIdLin1ELin1ELi1ELin1ELin1EEEED2Ev, symObjAddr: 0x125BC, symBinAddr: 0x100012E6C, symSize: 0x14 }
  - { offsetInCU: 0x157863, offset: 0x157863, size: 0x8, addend: 0x0, symName: __ZN5Eigen6MatrixIdLin1ELin1ELi1ELin1ELin1EEC2IllEERKT_RKT0_, symObjAddr: 0x125D0, symBinAddr: 0x100012E80, symSize: 0x80 }
  - { offsetInCU: 0x1578BD, offset: 0x1578BD, size: 0x8, addend: 0x0, symName: __ZN5Eigen15PlainObjectBaseINS_6MatrixIdLin1ELin1ELi1ELin1ELin1EEEEC2Ev, symObjAddr: 0x12650, symBinAddr: 0x100012F00, symSize: 0x34 }
  - { offsetInCU: 0x1578E7, offset: 0x1578E7, size: 0x8, addend: 0x0, symName: __ZN5Eigen15PlainObjectBaseINS_6MatrixIdLin1ELin1ELi1ELin1ELin1EEEE22_check_template_paramsEv, symObjAddr: 0x12684, symBinAddr: 0x100012F34, symSize: 0x4 }
  - { offsetInCU: 0x1578FB, offset: 0x1578FB, size: 0x8, addend: 0x0, symName: __ZN5Eigen15PlainObjectBaseINS_6MatrixIdLin1ELin1ELi1ELin1ELin1EEEE6_init2IllEEvllPNS_8internal9enable_ifILb1ET_E4typeE, symObjAddr: 0x12688, symBinAddr: 0x100012F38, symSize: 0x44 }
  - { offsetInCU: 0x15797A, offset: 0x15797A, size: 0x8, addend: 0x0, symName: __ZN5Eigen15PlainObjectBaseINS_6MatrixIdLin1ELin1ELi1ELin1ELin1EEEED2Ev, symObjAddr: 0x126CC, symBinAddr: 0x100012F7C, symSize: 0x2C }
  - { offsetInCU: 0x1579A6, offset: 0x1579A6, size: 0x8, addend: 0x0, symName: __ZN5Eigen10MatrixBaseINS_6MatrixIdLin1ELin1ELi1ELin1ELin1EEEEC2Ev, symObjAddr: 0x126F8, symBinAddr: 0x100012FA8, symSize: 0x2C }
  - { offsetInCU: 0x1579D0, offset: 0x1579D0, size: 0x8, addend: 0x0, symName: __ZN5Eigen12DenseStorageIdLin1ELin1ELin1ELi1EEC1Ev, symObjAddr: 0x12724, symBinAddr: 0x100012FD4, symSize: 0x2C }
  - { offsetInCU: 0x1579FA, offset: 0x1579FA, size: 0x8, addend: 0x0, symName: __ZN5Eigen9DenseBaseINS_6MatrixIdLin1ELin1ELi1ELin1ELin1EEEEC2Ev, symObjAddr: 0x12750, symBinAddr: 0x100013000, symSize: 0x14 }
  - { offsetInCU: 0x157A24, offset: 0x157A24, size: 0x8, addend: 0x0, symName: __ZN5Eigen12DenseStorageIdLin1ELin1ELin1ELi1EEC2Ev, symObjAddr: 0x12764, symBinAddr: 0x100013014, symSize: 0x20 }
  - { offsetInCU: 0x157A4E, offset: 0x157A4E, size: 0x8, addend: 0x0, symName: __ZN5Eigen15PlainObjectBaseINS_6MatrixIdLin1ELin1ELi1ELin1ELin1EEEE6resizeEll, symObjAddr: 0x12784, symBinAddr: 0x100013034, symSize: 0x14C }
  - { offsetInCU: 0x157ACA, offset: 0x157ACA, size: 0x8, addend: 0x0, symName: __ZN5Eigen12DenseStorageIdLin1ELin1ELin1ELi1EE6resizeElll, symObjAddr: 0x128D0, symBinAddr: 0x100013180, symSize: 0xB4 }
  - { offsetInCU: 0x157B1D, offset: 0x157B1D, size: 0x8, addend: 0x0, symName: __ZN5Eigen12DenseStorageIdLin1ELin1ELin1ELi1EED1Ev, symObjAddr: 0x12984, symBinAddr: 0x100013234, symSize: 0x2C }
  - { offsetInCU: 0x157B47, offset: 0x157B47, size: 0x8, addend: 0x0, symName: __ZN5Eigen12DenseStorageIdLin1ELin1ELin1ELi1EED2Ev, symObjAddr: 0x129B0, symBinAddr: 0x100013260, symSize: 0x44 }
  - { offsetInCU: 0x157B71, offset: 0x157B71, size: 0x8, addend: 0x0, symName: __ZN5Eigen8internal9evaluatorINS_6MatrixIdLin1ELin1ELi1ELin1ELin1EEEEC2ERKS3_, symObjAddr: 0x129F4, symBinAddr: 0x1000132A4, symSize: 0x34 }
  - { offsetInCU: 0x157BAA, offset: 0x157BAA, size: 0x8, addend: 0x0, symName: __ZN5Eigen8internal9evaluatorINS_15PlainObjectBaseINS_6MatrixIdLin1ELin1ELi1ELin1ELin1EEEEEEC2ERKS5_, symObjAddr: 0x12A28, symBinAddr: 0x1000132D8, symSize: 0x80 }
  - { offsetInCU: 0x157BE2, offset: 0x157BE2, size: 0x8, addend: 0x0, symName: __ZNK5Eigen15PlainObjectBaseINS_6MatrixIdLin1ELin1ELi1ELin1ELin1EEEE4dataEv, symObjAddr: 0x12AA8, symBinAddr: 0x100013358, symSize: 0x24 }
  - { offsetInCU: 0x157C08, offset: 0x157C08, size: 0x8, addend: 0x0, symName: __ZNK5Eigen15DenseCoeffsBaseINS_6MatrixIdLin1ELin1ELi1ELin1ELin1EEELi3EE11outerStrideEv, symObjAddr: 0x12ACC, symBinAddr: 0x10001337C, symSize: 0x38 }
  - { offsetInCU: 0x157C2E, offset: 0x157C2E, size: 0x8, addend: 0x0, symName: __ZNK5Eigen12DenseStorageIdLin1ELin1ELin1ELi1EE4dataEv, symObjAddr: 0x12B04, symBinAddr: 0x1000133B4, symSize: 0x18 }
  - { offsetInCU: 0x157C54, offset: 0x157C54, size: 0x8, addend: 0x0, symName: __ZNK5Eigen9EigenBaseINS_6MatrixIdLin1ELin1ELi1ELin1ELin1EEEE7derivedEv, symObjAddr: 0x12B1C, symBinAddr: 0x1000133CC, symSize: 0x14 }
  - { offsetInCU: 0x157C7A, offset: 0x157C7A, size: 0x8, addend: 0x0, symName: __ZNK5Eigen6MatrixIdLin1ELin1ELi1ELin1ELin1EE11outerStrideEv, symObjAddr: 0x12B30, symBinAddr: 0x1000133E0, symSize: 0x34 }
  - { offsetInCU: 0x157CA0, offset: 0x157CA0, size: 0x8, addend: 0x0, symName: __ZNK5Eigen9DenseBaseINS_6MatrixIdLin1ELin1ELi1ELin1ELin1EEEE9innerSizeEv, symObjAddr: 0x12B64, symBinAddr: 0x100013414, symSize: 0x24 }
  - { offsetInCU: 0x157CC6, offset: 0x157CC6, size: 0x8, addend: 0x0, symName: __ZNK5Eigen9EigenBaseINS_6MatrixIdLin1ELin1ELi1ELin1ELin1EEEE4colsEv, symObjAddr: 0x12B88, symBinAddr: 0x100013438, symSize: 0x28 }
  - { offsetInCU: 0x157CEC, offset: 0x157CEC, size: 0x8, addend: 0x0, symName: __ZNK5Eigen15PlainObjectBaseINS_6MatrixIdLin1ELin1ELi1ELin1ELin1EEEE4colsEv, symObjAddr: 0x12BB0, symBinAddr: 0x100013460, symSize: 0x24 }
  - { offsetInCU: 0x157D12, offset: 0x157D12, size: 0x8, addend: 0x0, symName: __ZNK5Eigen12DenseStorageIdLin1ELin1ELin1ELi1EE4colsEv, symObjAddr: 0x12BD4, symBinAddr: 0x100013484, symSize: 0x18 }
  - { offsetInCU: 0x157D38, offset: 0x157D38, size: 0x8, addend: 0x0, symName: __ZNK5Eigen15PlainObjectBaseINS_6MatrixIdLin1ELin1ELi1ELin1ELin1EEEE4rowsEv, symObjAddr: 0x12BEC, symBinAddr: 0x10001349C, symSize: 0x24 }
  - { offsetInCU: 0x157D7E, offset: 0x157D7E, size: 0x8, addend: 0x0, symName: __ZN5Eigen8internal20generic_product_implINS_7ProductINS_6MatrixIdLin1ELin1ELi0ELin1ELin1EEES4_Li0EEENS_9TransposeIS4_EENS_10DenseShapeES8_Li3EE12eval_dynamicINS3_IdLin1ELin1ELi1ELin1ELin1EEENS0_9assign_opIddEEEEvRT_RKS5_RKS7_RKT0_, symObjAddr: 0x12C10, symBinAddr: 0x1000134C0, symSize: 0xBC }
  - { offsetInCU: 0x157E3D, offset: 0x157E3D, size: 0x8, addend: 0x0, symName: __ZN5Eigen9DenseBaseINS_6MatrixIdLin1ELin1ELi1ELin1ELin1EEEE7setZeroEv, symObjAddr: 0x12CCC, symBinAddr: 0x10001357C, symSize: 0x30 }
  - { offsetInCU: 0x157E9C, offset: 0x157E9C, size: 0x8, addend: 0x0, symName: __ZN5Eigen8internal20generic_product_implINS_7ProductINS_6MatrixIdLin1ELin1ELi0ELin1ELin1EEES4_Li0EEENS_9TransposeIS4_EENS_10DenseShapeES8_Li8EE13scaleAndAddToINS3_IdLin1ELin1ELi1ELin1ELin1EEEEEvRT_RKS5_RKS7_RKd, symObjAddr: 0x12CFC, symBinAddr: 0x1000135AC, symSize: 0x374 }
  - { offsetInCU: 0x157FDE, offset: 0x157FDE, size: 0x8, addend: 0x0, symName: __ZNK5Eigen12DenseStorageIdLin1ELin1ELin1ELi1EE4rowsEv, symObjAddr: 0x13070, symBinAddr: 0x100013920, symSize: 0x18 }
  - { offsetInCU: 0x158004, offset: 0x158004, size: 0x8, addend: 0x0, symName: __ZN5Eigen8internal20generic_product_implINS_7ProductINS_6MatrixIdLin1ELin1ELi0ELin1ELin1EEES4_Li0EEENS_9TransposeIS4_EENS_10DenseShapeES8_Li3EE17eval_dynamic_implINS3_IdLin1ELin1ELi1ELin1ELin1EEES5_NS6_IKS4_EENS0_9assign_opIddEEdEEvRT_RKT0_RKT1_RKT2_RKT3_NS0_10false_typeE, symObjAddr: 0x13088, symBinAddr: 0x100013938, symSize: 0x60 }
  - { offsetInCU: 0x15809C, offset: 0x15809C, size: 0x8, addend: 0x0, symName: __ZN5Eigen8internal11blas_traitsINS_7ProductINS_6MatrixIdLin1ELin1ELi0ELin1ELin1EEES4_Li0EEEE7extractERKS5_, symObjAddr: 0x130E8, symBinAddr: 0x100013998, symSize: 0x14 }
  - { offsetInCU: 0x1580C0, offset: 0x1580C0, size: 0x8, addend: 0x0, symName: __ZNK5Eigen9DenseBaseINS_7ProductINS_6MatrixIdLin1ELin1ELi0ELin1ELin1EEES3_Li0EEEE11conjugateIfILb0EEENS_8internal11conditionalIXT_ERKS4_SA_E4typeEv, symObjAddr: 0x130FC, symBinAddr: 0x1000139AC, symSize: 0x24 }
  - { offsetInCU: 0x1580F0, offset: 0x1580F0, size: 0x8, addend: 0x0, symName: __ZN5Eigen8internal11blas_traitsINS_9TransposeINS_6MatrixIdLin1ELin1ELi0ELin1ELin1EEEEEE7extractERKS5_, symObjAddr: 0x13120, symBinAddr: 0x1000139D0, symSize: 0x38 }
  - { offsetInCU: 0x158114, offset: 0x158114, size: 0x8, addend: 0x0, symName: __ZNK5Eigen9DenseBaseINS_9TransposeIKNS_6MatrixIdLin1ELin1ELi0ELin1ELin1EEEEEE11conjugateIfILb0EEENS_8internal11conditionalIXT_ERKS5_SB_E4typeEv, symObjAddr: 0x13158, symBinAddr: 0x100013A08, symSize: 0x24 }
  - { offsetInCU: 0x158144, offset: 0x158144, size: 0x8, addend: 0x0, symName: __ZN5Eigen8internal11blas_traitsINS_7ProductINS_6MatrixIdLin1ELin1ELi0ELin1ELin1EEES4_Li0EEEE19extractScalarFactorERKS5_, symObjAddr: 0x1317C, symBinAddr: 0x100013A2C, symSize: 0x14 }
  - { offsetInCU: 0x158164, offset: 0x158164, size: 0x8, addend: 0x0, symName: __ZN5Eigen8internal11blas_traitsINS_9TransposeINS_6MatrixIdLin1ELin1ELi0ELin1ELin1EEEEEE19extractScalarFactorERKS5_, symObjAddr: 0x13190, symBinAddr: 0x100013A40, symSize: 0x28 }
  - { offsetInCU: 0x158188, offset: 0x158188, size: 0x8, addend: 0x0, symName: __ZNK5Eigen9TransposeINS_6MatrixIdLin1ELin1ELi0ELin1ELin1EEEE16nestedExpressionEv, symObjAddr: 0x131B8, symBinAddr: 0x100013A68, symSize: 0x18 }
  - { offsetInCU: 0x158361, offset: 0x158361, size: 0x8, addend: 0x0, symName: __ZNK5Eigen10MatrixBaseINS_7ProductINS_6MatrixIdLin1ELin1ELi0ELin1ELin1EEES3_Li0EEEE11lazyProductINS_9TransposeIKS3_EEEEKNS1_IS4_T_Li1EEERKNS0_ISA_EE, symObjAddr: 0x132C0, symBinAddr: 0x100013B70, symSize: 0x48 }
  - { offsetInCU: 0x1583DD, offset: 0x1583DD, size: 0x8, addend: 0x0, symName: __ZN5Eigen8internal9evaluatorINS_7ProductINS2_INS_6MatrixIdLin1ELin1ELi0ELin1ELin1EEES4_Li0EEENS_9TransposeIKS4_EELi1EEEEC1ERKS9_, symObjAddr: 0x13308, symBinAddr: 0x100013BB8, symSize: 0x34 }
  - { offsetInCU: 0x158415, offset: 0x158415, size: 0x8, addend: 0x0, symName: __ZNK5Eigen9EigenBaseINS_6MatrixIdLin1ELin1ELi1ELin1ELin1EEEE18const_cast_derivedEv, symObjAddr: 0x13434, symBinAddr: 0x100013CE4, symSize: 0x14 }
  - { offsetInCU: 0x158481, offset: 0x158481, size: 0x8, addend: 0x0, symName: __ZN5Eigen8internal41restricted_packet_dense_assignment_kernelINS0_9evaluatorINS_6MatrixIdLin1ELin1ELi1ELin1ELin1EEEEENS2_INS_7ProductINS6_INS3_IdLin1ELin1ELi0ELin1ELin1EEES7_Li0EEENS_9TransposeIKS7_EELi1EEEEENS0_9assign_opIddEEEC1ERS5_RKSD_RKSF_RS4_, symObjAddr: 0x13448, symBinAddr: 0x100013CF8, symSize: 0x4C }
  - { offsetInCU: 0x1584EC, offset: 0x1584EC, size: 0x8, addend: 0x0, symName: __ZN5Eigen8internal21dense_assignment_loopINS0_41restricted_packet_dense_assignment_kernelINS0_9evaluatorINS_6MatrixIdLin1ELin1ELi1ELin1ELin1EEEEENS3_INS_7ProductINS7_INS4_IdLin1ELin1ELi0ELin1ELin1EEES8_Li0EEENS_9TransposeIKS8_EELi1EEEEENS0_9assign_opIddEEEELi0ELi0EE3runERSH_, symObjAddr: 0x13494, symBinAddr: 0x100013D44, symSize: 0xAC }
  - { offsetInCU: 0x15854A, offset: 0x15854A, size: 0x8, addend: 0x0, symName: __ZN5Eigen8internal9evaluatorINS_6MatrixIdLin1ELin1ELi1ELin1ELin1EEEED1Ev, symObjAddr: 0x13540, symBinAddr: 0x100013DF0, symSize: 0x2C }
  - { offsetInCU: 0x158577, offset: 0x158577, size: 0x8, addend: 0x0, symName: __ZN5Eigen8internal9evaluatorINS_7ProductINS2_INS_6MatrixIdLin1ELin1ELi0ELin1ELin1EEES4_Li0EEENS_9TransposeIKS4_EELi1EEEED1Ev, symObjAddr: 0x1356C, symBinAddr: 0x100013E1C, symSize: 0x2C }
  - { offsetInCU: 0x1585A3, offset: 0x1585A3, size: 0x8, addend: 0x0, symName: __ZN5Eigen8internal9evaluatorINS_7ProductINS2_INS_6MatrixIdLin1ELin1ELi0ELin1ELin1EEES4_Li0EEENS_9TransposeIKS4_EELi1EEEEC2ERKS9_, symObjAddr: 0x13598, symBinAddr: 0x100013E48, symSize: 0x34 }
  - { offsetInCU: 0x1585DB, offset: 0x1585DB, size: 0x8, addend: 0x0, symName: __ZN5Eigen8internal17product_evaluatorINS_7ProductINS2_INS_6MatrixIdLin1ELin1ELi0ELin1ELin1EEES4_Li0EEENS_9TransposeIKS4_EELi1EEELi8ENS_10DenseShapeESA_ddEC2ERKS9_, symObjAddr: 0x135CC, symBinAddr: 0x100013E7C, symSize: 0x130 }
  - { offsetInCU: 0x158614, offset: 0x158614, size: 0x8, addend: 0x0, symName: __ZN5Eigen8internal14evaluator_baseINS_7ProductINS2_INS_6MatrixIdLin1ELin1ELi0ELin1ELin1EEES4_Li0EEENS_9TransposeIKS4_EELi1EEEEC2Ev, symObjAddr: 0x136FC, symBinAddr: 0x100013FAC, symSize: 0x14 }
  - { offsetInCU: 0x15863E, offset: 0x15863E, size: 0x8, addend: 0x0, symName: __ZNK5Eigen7ProductINS0_INS_6MatrixIdLin1ELin1ELi0ELin1ELin1EEES2_Li0EEENS_9TransposeIKS2_EELi1EE3lhsEv, symObjAddr: 0x13710, symBinAddr: 0x100013FC0, symSize: 0x14 }
  - { offsetInCU: 0x158664, offset: 0x158664, size: 0x8, addend: 0x0, symName: __ZN5Eigen6MatrixIdLin1ELin1ELi0ELin1ELin1EEC1INS_7ProductIS1_S1_Li0EEEEERKT_, symObjAddr: 0x13724, symBinAddr: 0x100013FD4, symSize: 0x34 }
  - { offsetInCU: 0x1586A6, offset: 0x1586A6, size: 0x8, addend: 0x0, symName: __ZNK5Eigen7ProductINS0_INS_6MatrixIdLin1ELin1ELi0ELin1ELin1EEES2_Li0EEENS_9TransposeIKS2_EELi1EE3rhsEv, symObjAddr: 0x13758, symBinAddr: 0x100014008, symSize: 0x18 }
  - { offsetInCU: 0x1586CC, offset: 0x1586CC, size: 0x8, addend: 0x0, symName: __ZN5Eigen8internal9evaluatorINS_9TransposeIKNS_6MatrixIdLin1ELin1ELi0ELin1ELin1EEEEEEC1ERKS6_, symObjAddr: 0x13770, symBinAddr: 0x100014020, symSize: 0x34 }
  - { offsetInCU: 0x158704, offset: 0x158704, size: 0x8, addend: 0x0, symName: __ZN5Eigen8internal9evaluatorINS_9TransposeIKNS_6MatrixIdLin1ELin1ELi0ELin1ELin1EEEEEED1Ev, symObjAddr: 0x137A4, symBinAddr: 0x100014054, symSize: 0x2C }
  - { offsetInCU: 0x158730, offset: 0x158730, size: 0x8, addend: 0x0, symName: __ZN5Eigen8internal14evaluator_baseINS_7ProductINS2_INS_6MatrixIdLin1ELin1ELi0ELin1ELin1EEES4_Li0EEENS_9TransposeIKS4_EELi1EEEED2Ev, symObjAddr: 0x137D0, symBinAddr: 0x100014080, symSize: 0x14 }
  - { offsetInCU: 0x15875A, offset: 0x15875A, size: 0x8, addend: 0x0, symName: __ZN5Eigen6MatrixIdLin1ELin1ELi0ELin1ELin1EEC2INS_7ProductIS1_S1_Li0EEEEERKT_, symObjAddr: 0x137E4, symBinAddr: 0x100014094, symSize: 0x68 }
  - { offsetInCU: 0x15879C, offset: 0x15879C, size: 0x8, addend: 0x0, symName: __ZN5Eigen15PlainObjectBaseINS_6MatrixIdLin1ELin1ELi0ELin1ELin1EEEE6_init1INS_7ProductIS2_S2_Li0EEES6_EEvRKNS_9DenseBaseIT0_EE, symObjAddr: 0x1384C, symBinAddr: 0x1000140FC, symSize: 0x2C }
  - { offsetInCU: 0x1587E3, offset: 0x1587E3, size: 0x8, addend: 0x0, symName: __ZN5Eigen15PlainObjectBaseINS_6MatrixIdLin1ELin1ELi0ELin1ELin1EEEE12_set_noaliasINS_7ProductIS2_S2_Li0EEEEERS2_RKNS_9DenseBaseIT_EE, symObjAddr: 0x13878, symBinAddr: 0x100014128, symSize: 0x60 }
  - { offsetInCU: 0x15882B, offset: 0x15882B, size: 0x8, addend: 0x0, symName: __ZN5Eigen8internal10AssignmentINS_6MatrixIdLin1ELin1ELi0ELin1ELin1EEENS_7ProductIS3_S3_Li0EEENS0_9assign_opIddEENS0_11Dense2DenseEvE3runERS3_RKS5_RKS7_, symObjAddr: 0x13914, symBinAddr: 0x1000141C4, symSize: 0xB4 }
  - { offsetInCU: 0x158883, offset: 0x158883, size: 0x8, addend: 0x0, symName: __ZN5Eigen8internal20generic_product_implINS_6MatrixIdLin1ELin1ELi0ELin1ELin1EEES3_NS_10DenseShapeES4_Li8EE6evalToIS3_EEvRT_RKS3_SA_, symObjAddr: 0x139C8, symBinAddr: 0x100014278, symSize: 0xE4 }
  - { offsetInCU: 0x1588CE, offset: 0x1588CE, size: 0x8, addend: 0x0, symName: __ZNK5Eigen7ProductINS_6MatrixIdLin1ELin1ELi0ELin1ELin1EEES2_Li0EE3lhsEv, symObjAddr: 0x13AAC, symBinAddr: 0x10001435C, symSize: 0x18 }
  - { offsetInCU: 0x1588F4, offset: 0x1588F4, size: 0x8, addend: 0x0, symName: __ZNK5Eigen7ProductINS_6MatrixIdLin1ELin1ELi0ELin1ELin1EEES2_Li0EE3rhsEv, symObjAddr: 0x13AC4, symBinAddr: 0x100014374, symSize: 0x18 }
  - { offsetInCU: 0x15893A, offset: 0x15893A, size: 0x8, addend: 0x0, symName: __ZN5Eigen8internal20generic_product_implINS_6MatrixIdLin1ELin1ELi0ELin1ELin1EEES3_NS_10DenseShapeES4_Li3EE12eval_dynamicIS3_NS0_9assign_opIddEEEEvRT_RKS3_SC_RKT0_, symObjAddr: 0x13ADC, symBinAddr: 0x10001438C, symSize: 0xB0 }
  - { offsetInCU: 0x1589F8, offset: 0x1589F8, size: 0x8, addend: 0x0, symName: __ZN5Eigen9DenseBaseINS_6MatrixIdLin1ELin1ELi0ELin1ELin1EEEE7setZeroEv, symObjAddr: 0x13B8C, symBinAddr: 0x10001443C, symSize: 0x30 }
  - { offsetInCU: 0x158A57, offset: 0x158A57, size: 0x8, addend: 0x0, symName: __ZN5Eigen8internal20generic_product_implINS_6MatrixIdLin1ELin1ELi0ELin1ELin1EEES3_NS_10DenseShapeES4_Li8EE13scaleAndAddToIS3_EEvRT_RKS3_SA_RKd, symObjAddr: 0x13BBC, symBinAddr: 0x10001446C, symSize: 0x394 }
  - { offsetInCU: 0x158B99, offset: 0x158B99, size: 0x8, addend: 0x0, symName: __ZN5Eigen8internal20generic_product_implINS_6MatrixIdLin1ELin1ELi0ELin1ELin1EEES3_NS_10DenseShapeES4_Li3EE17eval_dynamic_implIS3_S3_S3_NS0_9assign_opIddEEdEEvRT_RKT0_RKT1_RKT2_RKT3_NS0_10false_typeE, symObjAddr: 0x13F50, symBinAddr: 0x100014800, symSize: 0x68 }
  - { offsetInCU: 0x158C31, offset: 0x158C31, size: 0x8, addend: 0x0, symName: __ZNK5Eigen9DenseBaseINS_6MatrixIdLin1ELin1ELi0ELin1ELin1EEEE11conjugateIfILb0EEENS_8internal11conditionalIXT_ERKS2_S8_E4typeEv, symObjAddr: 0x13FB8, symBinAddr: 0x100014868, symSize: 0x24 }
  - { offsetInCU: 0x158C61, offset: 0x158C61, size: 0x8, addend: 0x0, symName: __ZNK5Eigen10MatrixBaseINS_6MatrixIdLin1ELin1ELi0ELin1ELin1EEEE11lazyProductIS2_EEKNS_7ProductIS2_T_Li1EEERKNS0_IS6_EE, symObjAddr: 0x140B4, symBinAddr: 0x100014964, symSize: 0x4C }
  - { offsetInCU: 0x158CA1, offset: 0x158CA1, size: 0x8, addend: 0x0, symName: __ZN5Eigen8internal9evaluatorINS_7ProductINS_6MatrixIdLin1ELin1ELi0ELin1ELin1EEES4_Li1EEEEC1ERKS5_, symObjAddr: 0x14100, symBinAddr: 0x1000149B0, symSize: 0x34 }
  - { offsetInCU: 0x158CD9, offset: 0x158CD9, size: 0x8, addend: 0x0, symName: __ZN5Eigen8internal41restricted_packet_dense_assignment_kernelINS0_9evaluatorINS_6MatrixIdLin1ELin1ELi0ELin1ELin1EEEEENS2_INS_7ProductIS4_S4_Li1EEEEENS0_9assign_opIddEEEC1ERS5_RKS8_RKSA_RS4_, symObjAddr: 0x1422C, symBinAddr: 0x100014ADC, symSize: 0x4C }
  - { offsetInCU: 0x158D3F, offset: 0x158D3F, size: 0x8, addend: 0x0, symName: __ZN5Eigen8internal9evaluatorINS_7ProductINS_6MatrixIdLin1ELin1ELi0ELin1ELin1EEES4_Li1EEEED1Ev, symObjAddr: 0x14450, symBinAddr: 0x100014D00, symSize: 0x2C }
  - { offsetInCU: 0x158D6B, offset: 0x158D6B, size: 0x8, addend: 0x0, symName: __ZN5Eigen8internal9evaluatorINS_7ProductINS_6MatrixIdLin1ELin1ELi0ELin1ELin1EEES4_Li1EEEEC2ERKS5_, symObjAddr: 0x1447C, symBinAddr: 0x100014D2C, symSize: 0x34 }
  - { offsetInCU: 0x158DA3, offset: 0x158DA3, size: 0x8, addend: 0x0, symName: __ZN5Eigen8internal17product_evaluatorINS_7ProductINS_6MatrixIdLin1ELin1ELi0ELin1ELin1EEES4_Li1EEELi8ENS_10DenseShapeES6_ddEC2ERKS5_, symObjAddr: 0x144B0, symBinAddr: 0x100014D60, symSize: 0x110 }
  - { offsetInCU: 0x158DDC, offset: 0x158DDC, size: 0x8, addend: 0x0, symName: __ZN5Eigen8internal14evaluator_baseINS_7ProductINS_6MatrixIdLin1ELin1ELi0ELin1ELin1EEES4_Li1EEEEC2Ev, symObjAddr: 0x145C0, symBinAddr: 0x100014E70, symSize: 0x14 }
  - { offsetInCU: 0x158E06, offset: 0x158E06, size: 0x8, addend: 0x0, symName: __ZNK5Eigen7ProductINS_6MatrixIdLin1ELin1ELi0ELin1ELin1EEES2_Li1EE3lhsEv, symObjAddr: 0x145D4, symBinAddr: 0x100014E84, symSize: 0x18 }
  - { offsetInCU: 0x158E2C, offset: 0x158E2C, size: 0x8, addend: 0x0, symName: __ZNK5Eigen7ProductINS_6MatrixIdLin1ELin1ELi0ELin1ELin1EEES2_Li1EE3rhsEv, symObjAddr: 0x145EC, symBinAddr: 0x100014E9C, symSize: 0x18 }
  - { offsetInCU: 0x158E52, offset: 0x158E52, size: 0x8, addend: 0x0, symName: __ZN5Eigen8internal14evaluator_baseINS_7ProductINS_6MatrixIdLin1ELin1ELi0ELin1ELin1EEES4_Li1EEEED2Ev, symObjAddr: 0x14604, symBinAddr: 0x100014EB4, symSize: 0x14 }
  - { offsetInCU: 0x158E7C, offset: 0x158E7C, size: 0x8, addend: 0x0, symName: __ZNK5Eigen7ProductINS_6MatrixIdLin1ELin1ELi0ELin1ELin1EEES2_Li1EE4rowsEv, symObjAddr: 0x14618, symBinAddr: 0x100014EC8, symSize: 0x28 }
  - { offsetInCU: 0x158EA2, offset: 0x158EA2, size: 0x8, addend: 0x0, symName: __ZNK5Eigen7ProductINS_6MatrixIdLin1ELin1ELi0ELin1ELin1EEES2_Li1EE4colsEv, symObjAddr: 0x14640, symBinAddr: 0x100014EF0, symSize: 0x28 }
  - { offsetInCU: 0x158EC8, offset: 0x158EC8, size: 0x8, addend: 0x0, symName: __ZN5Eigen8internal41restricted_packet_dense_assignment_kernelINS0_9evaluatorINS_6MatrixIdLin1ELin1ELi0ELin1ELin1EEEEENS2_INS_7ProductIS4_S4_Li1EEEEENS0_9assign_opIddEEEC2ERS5_RKS8_RKSA_RS4_, symObjAddr: 0x14668, symBinAddr: 0x100014F18, symSize: 0x4C }
  - { offsetInCU: 0x158F2E, offset: 0x158F2E, size: 0x8, addend: 0x0, symName: __ZN5Eigen8internal31generic_dense_assignment_kernelINS0_9evaluatorINS_6MatrixIdLin1ELin1ELi0ELin1ELin1EEEEENS2_INS_7ProductIS4_S4_Li1EEEEENS0_9assign_opIddEELi1EEC2ERS5_RKS8_RKSA_RS4_, symObjAddr: 0x146B4, symBinAddr: 0x100014F64, symSize: 0x44 }
  - { offsetInCU: 0x158F94, offset: 0x158F94, size: 0x8, addend: 0x0, symName: __ZNK5Eigen8internal31generic_dense_assignment_kernelINS0_9evaluatorINS_6MatrixIdLin1ELin1ELi0ELin1ELin1EEEEENS2_INS_7ProductIS4_S4_Li1EEEEENS0_9assign_opIddEELi1EE10dstDataPtrEv, symObjAddr: 0x146F8, symBinAddr: 0x100014FA8, symSize: 0x28 }
  - { offsetInCU: 0x158FBA, offset: 0x158FBA, size: 0x8, addend: 0x0, symName: __ZNK5Eigen8internal31generic_dense_assignment_kernelINS0_9evaluatorINS_6MatrixIdLin1ELin1ELi0ELin1ELin1EEEEENS2_INS_7ProductIS4_S4_Li1EEEEENS0_9assign_opIddEELi1EE9innerSizeEv, symObjAddr: 0x14720, symBinAddr: 0x100014FD0, symSize: 0x28 }
  - { offsetInCU: 0x158FE0, offset: 0x158FE0, size: 0x8, addend: 0x0, symName: __ZNK5Eigen8internal31generic_dense_assignment_kernelINS0_9evaluatorINS_6MatrixIdLin1ELin1ELi0ELin1ELin1EEEEENS2_INS_7ProductIS4_S4_Li1EEEEENS0_9assign_opIddEELi1EE9outerSizeEv, symObjAddr: 0x14748, symBinAddr: 0x100014FF8, symSize: 0x28 }
  - { offsetInCU: 0x159006, offset: 0x159006, size: 0x8, addend: 0x0, symName: __ZNK5Eigen8internal31generic_dense_assignment_kernelINS0_9evaluatorINS_6MatrixIdLin1ELin1ELi0ELin1ELin1EEEEENS2_INS_7ProductIS4_S4_Li1EEEEENS0_9assign_opIddEELi1EE11outerStrideEv, symObjAddr: 0x14770, symBinAddr: 0x100015020, symSize: 0x28 }
  - { offsetInCU: 0x15902C, offset: 0x15902C, size: 0x8, addend: 0x0, symName: __ZN5Eigen8internal31generic_dense_assignment_kernelINS0_9evaluatorINS_6MatrixIdLin1ELin1ELi0ELin1ELin1EEEEENS2_INS_7ProductIS4_S4_Li1EEEEENS0_9assign_opIddEELi1EE23assignCoeffByOuterInnerEll, symObjAddr: 0x14798, symBinAddr: 0x100015048, symSize: 0x60 }
  - { offsetInCU: 0x15908E, offset: 0x15908E, size: 0x8, addend: 0x0, symName: __ZN5Eigen8internal31generic_dense_assignment_kernelINS0_9evaluatorINS_6MatrixIdLin1ELin1ELi0ELin1ELin1EEEEENS2_INS_7ProductIS4_S4_Li1EEEEENS0_9assign_opIddEELi1EE24assignPacketByOuterInnerILi16ELi0E19__simd128_float64_tEEvll, symObjAddr: 0x147F8, symBinAddr: 0x1000150A8, symSize: 0x60 }
  - { offsetInCU: 0x15910D, offset: 0x15910D, size: 0x8, addend: 0x0, symName: __ZN5Eigen8internal31generic_dense_assignment_kernelINS0_9evaluatorINS_6MatrixIdLin1ELin1ELi0ELin1ELin1EEEEENS2_INS_7ProductIS4_S4_Li1EEEEENS0_9assign_opIddEELi1EE20rowIndexByOuterInnerEll, symObjAddr: 0x14858, symBinAddr: 0x100015108, symSize: 0x18 }
  - { offsetInCU: 0x159140, offset: 0x159140, size: 0x8, addend: 0x0, symName: __ZN5Eigen8internal31generic_dense_assignment_kernelINS0_9evaluatorINS_6MatrixIdLin1ELin1ELi0ELin1ELin1EEEEENS2_INS_7ProductIS4_S4_Li1EEEEENS0_9assign_opIddEELi1EE20colIndexByOuterInnerEll, symObjAddr: 0x14870, symBinAddr: 0x100015120, symSize: 0x18 }
  - { offsetInCU: 0x159173, offset: 0x159173, size: 0x8, addend: 0x0, symName: __ZN5Eigen8internal31generic_dense_assignment_kernelINS0_9evaluatorINS_6MatrixIdLin1ELin1ELi0ELin1ELin1EEEEENS2_INS_7ProductIS4_S4_Li1EEEEENS0_9assign_opIddEELi1EE11assignCoeffEll, symObjAddr: 0x14888, symBinAddr: 0x100015138, symSize: 0x70 }
  - { offsetInCU: 0x1591B7, offset: 0x1591B7, size: 0x8, addend: 0x0, symName: __ZNK5Eigen8internal17product_evaluatorINS_7ProductINS_6MatrixIdLin1ELin1ELi0ELin1ELin1EEES4_Li1EEELi8ENS_10DenseShapeES6_ddE5coeffEll, symObjAddr: 0x148F8, symBinAddr: 0x1000151A8, symSize: 0x8C }
  - { offsetInCU: 0x1591FB, offset: 0x1591FB, size: 0x8, addend: 0x0, symName: __ZNK5Eigen10MatrixBaseINS_9TransposeIKNS_5BlockIKNS_6MatrixIdLin1ELin1ELi0ELin1ELin1EEELi1ELin1ELb0EEEEEE12cwiseProductINS2_IS5_Lin1ELi1ELb1EEEEEKNS_13CwiseBinaryOpINS_8internal17scalar_product_opIdNSD_6traitsIT_E6ScalarEEEKS8_KSG_EERKNS0_ISG_EE, symObjAddr: 0x14984, symBinAddr: 0x100015234, symSize: 0x60 }
  - { offsetInCU: 0x159238, offset: 0x159238, size: 0x8, addend: 0x0, symName: __ZNK5Eigen9DenseBaseINS_6MatrixIdLin1ELin1ELi0ELin1ELin1EEEE3colEl, symObjAddr: 0x149E4, symBinAddr: 0x100015294, symSize: 0x3C }
  - { offsetInCU: 0x15926D, offset: 0x15926D, size: 0x8, addend: 0x0, symName: __ZNK5Eigen9DenseBaseINS_13CwiseBinaryOpINS_8internal17scalar_product_opIddEEKNS_9TransposeIKNS_5BlockIKNS_6MatrixIdLin1ELin1ELi0ELin1ELin1EEELi1ELin1ELb0EEEEEKNS6_IS9_Lin1ELi1ELb1EEEEEE3sumEv, symObjAddr: 0x14A20, symBinAddr: 0x1000152D0, symSize: 0x74 }
  - { offsetInCU: 0x159296, offset: 0x159296, size: 0x8, addend: 0x0, symName: __ZNK5Eigen9EigenBaseINS_5BlockIKNS_6MatrixIdLin1ELin1ELi0ELin1ELin1EEELin1ELi1ELb1EEEE7derivedEv, symObjAddr: 0x14A94, symBinAddr: 0x100015344, symSize: 0x14 }
  - { offsetInCU: 0x1592BC, offset: 0x1592BC, size: 0x8, addend: 0x0, symName: __ZN5Eigen13CwiseBinaryOpINS_8internal17scalar_product_opIddEEKNS_9TransposeIKNS_5BlockIKNS_6MatrixIdLin1ELin1ELi0ELin1ELin1EEELi1ELin1ELb0EEEEEKNS5_IS8_Lin1ELi1ELb1EEEEC1ERSC_RSE_RKS3_, symObjAddr: 0x14AA8, symBinAddr: 0x100015358, symSize: 0x44 }
  - { offsetInCU: 0x159310, offset: 0x159310, size: 0x8, addend: 0x0, symName: __ZN5Eigen13CwiseBinaryOpINS_8internal17scalar_product_opIddEEKNS_9TransposeIKNS_5BlockIKNS_6MatrixIdLin1ELin1ELi0ELin1ELin1EEELi1ELin1ELb0EEEEEKNS5_IS8_Lin1ELi1ELb1EEEEC2ERSC_RSE_RKS3_, symObjAddr: 0x14AEC, symBinAddr: 0x10001539C, symSize: 0x104 }
  - { offsetInCU: 0x159369, offset: 0x159369, size: 0x8, addend: 0x0, symName: __ZN5Eigen17CwiseBinaryOpImplINS_8internal17scalar_product_opIddEEKNS_9TransposeIKNS_5BlockIKNS_6MatrixIdLin1ELin1ELi0ELin1ELin1EEELi1ELin1ELb0EEEEEKNS5_IS8_Lin1ELi1ELb1EEENS_5DenseEEC2Ev, symObjAddr: 0x14BF0, symBinAddr: 0x1000154A0, symSize: 0x2C }
  - { offsetInCU: 0x159395, offset: 0x159395, size: 0x8, addend: 0x0, symName: __ZNK5Eigen7MapBaseINS_5BlockIKNS_6MatrixIdLin1ELin1ELi0ELin1ELin1EEELin1ELi1ELb1EEELi0EE4rowsEv, symObjAddr: 0x14C1C, symBinAddr: 0x1000154CC, symSize: 0x28 }
  - { offsetInCU: 0x1593BB, offset: 0x1593BB, size: 0x8, addend: 0x0, symName: __ZNK5Eigen7MapBaseINS_5BlockIKNS_6MatrixIdLin1ELin1ELi0ELin1ELin1EEELin1ELi1ELb1EEELi0EE4colsEv, symObjAddr: 0x14C44, symBinAddr: 0x1000154F4, symSize: 0x20 }
  - { offsetInCU: 0x1593E1, offset: 0x1593E1, size: 0x8, addend: 0x0, symName: __ZN5Eigen10MatrixBaseINS_13CwiseBinaryOpINS_8internal17scalar_product_opIddEEKNS_9TransposeIKNS_5BlockIKNS_6MatrixIdLin1ELin1ELi0ELin1ELin1EEELi1ELin1ELb0EEEEEKNS6_IS9_Lin1ELi1ELb1EEEEEEC2Ev, symObjAddr: 0x14C64, symBinAddr: 0x100015514, symSize: 0x2C }
  - { offsetInCU: 0x15940B, offset: 0x15940B, size: 0x8, addend: 0x0, symName: __ZN5Eigen9DenseBaseINS_13CwiseBinaryOpINS_8internal17scalar_product_opIddEEKNS_9TransposeIKNS_5BlockIKNS_6MatrixIdLin1ELin1ELi0ELin1ELin1EEELi1ELin1ELb0EEEEEKNS6_IS9_Lin1ELi1ELb1EEEEEEC2Ev, symObjAddr: 0x14C90, symBinAddr: 0x100015540, symSize: 0x14 }
  - { offsetInCU: 0x159435, offset: 0x159435, size: 0x8, addend: 0x0, symName: __ZN5Eigen5BlockIKNS_6MatrixIdLin1ELin1ELi0ELin1ELin1EEELin1ELi1ELb1EEC1ERS3_l, symObjAddr: 0x14CA4, symBinAddr: 0x100015554, symSize: 0x3C }
  - { offsetInCU: 0x15947B, offset: 0x15947B, size: 0x8, addend: 0x0, symName: __ZN5Eigen5BlockIKNS_6MatrixIdLin1ELin1ELi0ELin1ELin1EEELin1ELi1ELb1EEC2ERS3_l, symObjAddr: 0x14CE0, symBinAddr: 0x100015590, symSize: 0xAC }
  - { offsetInCU: 0x1594C1, offset: 0x1594C1, size: 0x8, addend: 0x0, symName: __ZN5Eigen9BlockImplIKNS_6MatrixIdLin1ELin1ELi0ELin1ELin1EEELin1ELi1ELb1ENS_5DenseEEC2ERS3_l, symObjAddr: 0x14D8C, symBinAddr: 0x10001563C, symSize: 0x3C }
  - { offsetInCU: 0x159507, offset: 0x159507, size: 0x8, addend: 0x0, symName: __ZN5Eigen8internal15BlockImpl_denseIKNS_6MatrixIdLin1ELin1ELi0ELin1ELin1EEELin1ELi1ELb1ELb1EEC2ERS4_l, symObjAddr: 0x14DC8, symBinAddr: 0x100015678, symSize: 0xAC }
  - { offsetInCU: 0x15954F, offset: 0x15954F, size: 0x8, addend: 0x0, symName: __ZN5Eigen7MapBaseINS_5BlockIKNS_6MatrixIdLin1ELin1ELi0ELin1ELin1EEELin1ELi1ELb1EEELi0EEC2EPKdll, symObjAddr: 0x14E74, symBinAddr: 0x100015724, symSize: 0x11C }
  - { offsetInCU: 0x1595A3, offset: 0x1595A3, size: 0x8, addend: 0x0, symName: __ZN5Eigen8internal15BlockImpl_denseIKNS_6MatrixIdLin1ELin1ELi0ELin1ELin1EEELin1ELi1ELb1ELb1EE4initEv, symObjAddr: 0x14F90, symBinAddr: 0x100015840, symSize: 0x34 }
  - { offsetInCU: 0x1595C9, offset: 0x1595C9, size: 0x8, addend: 0x0, symName: __ZN5Eigen10MatrixBaseINS_5BlockIKNS_6MatrixIdLin1ELin1ELi0ELin1ELin1EEELin1ELi1ELb1EEEEC2Ev, symObjAddr: 0x14FC4, symBinAddr: 0x100015874, symSize: 0x2C }
  - { offsetInCU: 0x1595F3, offset: 0x1595F3, size: 0x8, addend: 0x0, symName: __ZNK5Eigen7MapBaseINS_5BlockIKNS_6MatrixIdLin1ELin1ELi0ELin1ELin1EEELin1ELi1ELb1EEELi0EE11checkSanityIS5_EEvNS_8internal9enable_ifIXeqsr8internal6traitsIT_EE9AlignmentLi0EEPvE4typeE, symObjAddr: 0x14FF0, symBinAddr: 0x1000158A0, symSize: 0x14 }
  - { offsetInCU: 0x15962D, offset: 0x15962D, size: 0x8, addend: 0x0, symName: __ZN5Eigen9DenseBaseINS_5BlockIKNS_6MatrixIdLin1ELin1ELi0ELin1ELin1EEELin1ELi1ELb1EEEEC2Ev, symObjAddr: 0x15004, symBinAddr: 0x1000158B4, symSize: 0x14 }
  - { offsetInCU: 0x159657, offset: 0x159657, size: 0x8, addend: 0x0, symName: __ZNK5Eigen9EigenBaseINS_13CwiseBinaryOpINS_8internal17scalar_product_opIddEEKNS_9TransposeIKNS_5BlockIKNS_6MatrixIdLin1ELin1ELi0ELin1ELin1EEELi1ELin1ELb0EEEEEKNS6_IS9_Lin1ELi1ELb1EEEEEE4sizeEv, symObjAddr: 0x15018, symBinAddr: 0x1000158C8, symSize: 0x44 }
  - { offsetInCU: 0x15967D, offset: 0x15967D, size: 0x8, addend: 0x0, symName: __ZNK5Eigen9EigenBaseINS_13CwiseBinaryOpINS_8internal17scalar_product_opIddEEKNS_9TransposeIKNS_5BlockIKNS_6MatrixIdLin1ELin1ELi0ELin1ELin1EEELi1ELin1ELb0EEEEEKNS6_IS9_Lin1ELi1ELb1EEEEEE7derivedEv, symObjAddr: 0x1505C, symBinAddr: 0x10001590C, symSize: 0x14 }
  - { offsetInCU: 0x1596A3, offset: 0x1596A3, size: 0x8, addend: 0x0, symName: __ZNK5Eigen9DenseBaseINS_13CwiseBinaryOpINS_8internal17scalar_product_opIddEEKNS_9TransposeIKNS_5BlockIKNS_6MatrixIdLin1ELin1ELi0ELin1ELin1EEELi1ELin1ELb0EEEEEKNS6_IS9_Lin1ELi1ELb1EEEEEE5reduxINS2_13scalar_sum_opIddEEEEdRKT_, symObjAddr: 0x15070, symBinAddr: 0x100015920, symSize: 0x10C }
  - { offsetInCU: 0x1596FF, offset: 0x1596FF, size: 0x8, addend: 0x0, symName: __ZNK5Eigen9EigenBaseINS_13CwiseBinaryOpINS_8internal17scalar_product_opIddEEKNS_9TransposeIKNS_5BlockIKNS_6MatrixIdLin1ELin1ELi0ELin1ELin1EEELi1ELin1ELb0EEEEEKNS6_IS9_Lin1ELi1ELb1EEEEEE4rowsEv, symObjAddr: 0x1517C, symBinAddr: 0x100015A2C, symSize: 0x38 }
  - { offsetInCU: 0x159725, offset: 0x159725, size: 0x8, addend: 0x0, symName: __ZNK5Eigen9EigenBaseINS_13CwiseBinaryOpINS_8internal17scalar_product_opIddEEKNS_9TransposeIKNS_5BlockIKNS_6MatrixIdLin1ELin1ELi0ELin1ELin1EEELi1ELin1ELb0EEEEEKNS6_IS9_Lin1ELi1ELb1EEEEEE4colsEv, symObjAddr: 0x151B4, symBinAddr: 0x100015A64, symSize: 0x38 }
  - { offsetInCU: 0x15974B, offset: 0x15974B, size: 0x8, addend: 0x0, symName: __ZNK5Eigen13CwiseBinaryOpINS_8internal17scalar_product_opIddEEKNS_9TransposeIKNS_5BlockIKNS_6MatrixIdLin1ELin1ELi0ELin1ELin1EEELi1ELin1ELb0EEEEEKNS5_IS8_Lin1ELi1ELb1EEEE4rowsEv, symObjAddr: 0x151EC, symBinAddr: 0x100015A9C, symSize: 0x28 }
  - { offsetInCU: 0x159771, offset: 0x159771, size: 0x8, addend: 0x0, symName: __ZNK5Eigen13CwiseBinaryOpINS_8internal17scalar_product_opIddEEKNS_9TransposeIKNS_5BlockIKNS_6MatrixIdLin1ELin1ELi0ELin1ELin1EEELi1ELin1ELb0EEEEEKNS5_IS8_Lin1ELi1ELb1EEEE4colsEv, symObjAddr: 0x15214, symBinAddr: 0x100015AC4, symSize: 0x24 }
  - { offsetInCU: 0x159819, offset: 0x159819, size: 0x8, addend: 0x0, symName: __ZN5Eigen8internal15redux_evaluatorINS_13CwiseBinaryOpINS0_17scalar_product_opIddEEKNS_9TransposeIKNS_5BlockIKNS_6MatrixIdLin1ELin1ELi0ELin1ELin1EEELi1ELin1ELb0EEEEEKNS6_IS9_Lin1ELi1ELb1EEEEEEC1ERKSG_, symObjAddr: 0x15238, symBinAddr: 0x100015AE8, symSize: 0x34 }
  - { offsetInCU: 0x159857, offset: 0x159857, size: 0x8, addend: 0x0, symName: __ZN5Eigen8internal10redux_implINS0_13scalar_sum_opIddEENS0_15redux_evaluatorINS_13CwiseBinaryOpINS0_17scalar_product_opIddEEKNS_9TransposeIKNS_5BlockIKNS_6MatrixIdLin1ELin1ELi0ELin1ELin1EEELi1ELin1ELb0EEEEEKNS9_ISC_Lin1ELi1ELb1EEEEEEELi0ELi0EE3runISJ_EEdRKSK_RKS3_RKT_, symObjAddr: 0x1526C, symBinAddr: 0x100015B1C, symSize: 0x1E0 }
  - { offsetInCU: 0x159902, offset: 0x159902, size: 0x8, addend: 0x0, symName: __ZN5Eigen8internal15redux_evaluatorINS_13CwiseBinaryOpINS0_17scalar_product_opIddEEKNS_9TransposeIKNS_5BlockIKNS_6MatrixIdLin1ELin1ELi0ELin1ELin1EEELi1ELin1ELb0EEEEEKNS6_IS9_Lin1ELi1ELb1EEEEEED1Ev, symObjAddr: 0x1544C, symBinAddr: 0x100015CFC, symSize: 0x2C }
  - { offsetInCU: 0x15992F, offset: 0x15992F, size: 0x8, addend: 0x0, symName: __ZN5Eigen8internal15redux_evaluatorINS_13CwiseBinaryOpINS0_17scalar_product_opIddEEKNS_9TransposeIKNS_5BlockIKNS_6MatrixIdLin1ELin1ELi0ELin1ELin1EEELi1ELin1ELb0EEEEEKNS6_IS9_Lin1ELi1ELb1EEEEEEC2ERKSG_, symObjAddr: 0x15478, symBinAddr: 0x100015D28, symSize: 0x34 }
  - { offsetInCU: 0x159968, offset: 0x159968, size: 0x8, addend: 0x0, symName: __ZN5Eigen8internal9evaluatorINS_13CwiseBinaryOpINS0_17scalar_product_opIddEEKNS_9TransposeIKNS_5BlockIKNS_6MatrixIdLin1ELin1ELi0ELin1ELin1EEELi1ELin1ELb0EEEEEKNS6_IS9_Lin1ELi1ELb1EEEEEEC2ERKSG_, symObjAddr: 0x154AC, symBinAddr: 0x100015D5C, symSize: 0x34 }
  - { offsetInCU: 0x1599A1, offset: 0x1599A1, size: 0x8, addend: 0x0, symName: __ZN5Eigen8internal16binary_evaluatorINS_13CwiseBinaryOpINS0_17scalar_product_opIddEEKNS_9TransposeIKNS_5BlockIKNS_6MatrixIdLin1ELin1ELi0ELin1ELin1EEELi1ELin1ELb0EEEEEKNS6_IS9_Lin1ELi1ELb1EEEEENS0_10IndexBasedESH_ddEC2ERKSG_, symObjAddr: 0x154E0, symBinAddr: 0x100015D90, symSize: 0x64 }
  - { offsetInCU: 0x1599DA, offset: 0x1599DA, size: 0x8, addend: 0x0, symName: __ZN5Eigen8internal14evaluator_baseINS_13CwiseBinaryOpINS0_17scalar_product_opIddEEKNS_9TransposeIKNS_5BlockIKNS_6MatrixIdLin1ELin1ELi0ELin1ELin1EEELi1ELin1ELb0EEEEEKNS6_IS9_Lin1ELi1ELb1EEEEEEC2Ev, symObjAddr: 0x15544, symBinAddr: 0x100015DF4, symSize: 0x14 }
  - { offsetInCU: 0x159A04, offset: 0x159A04, size: 0x8, addend: 0x0, symName: __ZN5Eigen8internal16binary_evaluatorINS_13CwiseBinaryOpINS0_17scalar_product_opIddEEKNS_9TransposeIKNS_5BlockIKNS_6MatrixIdLin1ELin1ELi0ELin1ELin1EEELi1ELin1ELb0EEEEEKNS6_IS9_Lin1ELi1ELb1EEEEENS0_10IndexBasedESH_ddE4DataC1ERKSG_, symObjAddr: 0x15558, symBinAddr: 0x100015E08, symSize: 0x34 }
  - { offsetInCU: 0x159A3D, offset: 0x159A3D, size: 0x8, addend: 0x0, symName: __ZN5Eigen8internal14evaluator_baseINS_13CwiseBinaryOpINS0_17scalar_product_opIddEEKNS_9TransposeIKNS_5BlockIKNS_6MatrixIdLin1ELin1ELi0ELin1ELin1EEELi1ELin1ELb0EEEEEKNS6_IS9_Lin1ELi1ELb1EEEEEED2Ev, symObjAddr: 0x1558C, symBinAddr: 0x100015E3C, symSize: 0x14 }
  - { offsetInCU: 0x159A67, offset: 0x159A67, size: 0x8, addend: 0x0, symName: __ZN5Eigen8internal16binary_evaluatorINS_13CwiseBinaryOpINS0_17scalar_product_opIddEEKNS_9TransposeIKNS_5BlockIKNS_6MatrixIdLin1ELin1ELi0ELin1ELin1EEELi1ELin1ELb0EEEEEKNS6_IS9_Lin1ELi1ELb1EEEEENS0_10IndexBasedESH_ddE4DataC2ERKSG_, symObjAddr: 0x155A0, symBinAddr: 0x100015E50, symSize: 0xA8 }
  - { offsetInCU: 0x159AA0, offset: 0x159AA0, size: 0x8, addend: 0x0, symName: __ZNK5Eigen13CwiseBinaryOpINS_8internal17scalar_product_opIddEEKNS_9TransposeIKNS_5BlockIKNS_6MatrixIdLin1ELin1ELi0ELin1ELin1EEELi1ELin1ELb0EEEEEKNS5_IS8_Lin1ELi1ELb1EEEE7functorEv, symObjAddr: 0x15648, symBinAddr: 0x100015EF8, symSize: 0x18 }
  - { offsetInCU: 0x159AC6, offset: 0x159AC6, size: 0x8, addend: 0x0, symName: __ZNK5Eigen13CwiseBinaryOpINS_8internal17scalar_product_opIddEEKNS_9TransposeIKNS_5BlockIKNS_6MatrixIdLin1ELin1ELi0ELin1ELin1EEELi1ELin1ELb0EEEEEKNS5_IS8_Lin1ELi1ELb1EEEE3lhsEv, symObjAddr: 0x15660, symBinAddr: 0x100015F10, symSize: 0x14 }
  - { offsetInCU: 0x159AEC, offset: 0x159AEC, size: 0x8, addend: 0x0, symName: __ZNK5Eigen13CwiseBinaryOpINS_8internal17scalar_product_opIddEEKNS_9TransposeIKNS_5BlockIKNS_6MatrixIdLin1ELin1ELi0ELin1ELin1EEELi1ELin1ELb0EEEEEKNS5_IS8_Lin1ELi1ELb1EEEE3rhsEv, symObjAddr: 0x15674, symBinAddr: 0x100015F24, symSize: 0x18 }
  - { offsetInCU: 0x159B12, offset: 0x159B12, size: 0x8, addend: 0x0, symName: __ZN5Eigen8internal9evaluatorIKNS_5BlockIKNS_6MatrixIdLin1ELin1ELi0ELin1ELin1EEELin1ELi1ELb1EEEEC1ERS7_, symObjAddr: 0x1568C, symBinAddr: 0x100015F3C, symSize: 0x34 }
  - { offsetInCU: 0x159B4A, offset: 0x159B4A, size: 0x8, addend: 0x0, symName: __ZN5Eigen8internal9evaluatorIKNS_5BlockIKNS_6MatrixIdLin1ELin1ELi0ELin1ELin1EEELin1ELi1ELb1EEEEC2ERS7_, symObjAddr: 0x156C0, symBinAddr: 0x100015F70, symSize: 0x34 }
  - { offsetInCU: 0x159B82, offset: 0x159B82, size: 0x8, addend: 0x0, symName: __ZN5Eigen8internal9evaluatorINS_5BlockIKNS_6MatrixIdLin1ELin1ELi0ELin1ELin1EEELin1ELi1ELb1EEEEC2ERKS6_, symObjAddr: 0x156F4, symBinAddr: 0x100015FA4, symSize: 0x34 }
  - { offsetInCU: 0x159BBB, offset: 0x159BBB, size: 0x8, addend: 0x0, symName: __ZN5Eigen8internal15block_evaluatorIKNS_6MatrixIdLin1ELin1ELi0ELin1ELin1EEELin1ELi1ELb1ELb1EEC2ERKNS_5BlockIS4_Lin1ELi1ELb1EEE, symObjAddr: 0x15728, symBinAddr: 0x100015FD8, symSize: 0xDC }
  - { offsetInCU: 0x159BF4, offset: 0x159BF4, size: 0x8, addend: 0x0, symName: __ZN5Eigen8internal17mapbase_evaluatorINS_5BlockIKNS_6MatrixIdLin1ELin1ELi0ELin1ELin1EEELin1ELi1ELb1EEENS3_IdLin1ELi1ELi0ELin1ELi1EEEEC2ERKS6_, symObjAddr: 0x15804, symBinAddr: 0x1000160B4, symSize: 0xB0 }
  - { offsetInCU: 0x159C2D, offset: 0x159C2D, size: 0x8, addend: 0x0, symName: __ZNK5Eigen7MapBaseINS_5BlockIKNS_6MatrixIdLin1ELin1ELi0ELin1ELin1EEELin1ELi1ELb1EEELi0EE4dataEv, symObjAddr: 0x158B4, symBinAddr: 0x100016164, symSize: 0x18 }
  - { offsetInCU: 0x159C53, offset: 0x159C53, size: 0x8, addend: 0x0, symName: __ZN5Eigen8internal17mapbase_evaluatorINS_5BlockIKNS_6MatrixIdLin1ELin1ELi0ELin1ELin1EEELin1ELi1ELb1EEENS3_IdLin1ELi1ELi0ELin1ELi1EEEED2Ev, symObjAddr: 0x158CC, symBinAddr: 0x10001617C, symSize: 0x2C }
  - { offsetInCU: 0x159C80, offset: 0x159C80, size: 0x8, addend: 0x0, symName: __ZN5Eigen8internal14evaluator_baseINS_5BlockIKNS_6MatrixIdLin1ELin1ELi0ELin1ELin1EEELin1ELi1ELb1EEEEC2Ev, symObjAddr: 0x158F8, symBinAddr: 0x1000161A8, symSize: 0x14 }
  - { offsetInCU: 0x159CAA, offset: 0x159CAA, size: 0x8, addend: 0x0, symName: __ZNK5Eigen8internal15BlockImpl_denseIKNS_6MatrixIdLin1ELin1ELi0ELin1ELin1EEELin1ELi1ELb1ELb1EE11innerStrideEv, symObjAddr: 0x1590C, symBinAddr: 0x1000161BC, symSize: 0x28 }
  - { offsetInCU: 0x159CD0, offset: 0x159CD0, size: 0x8, addend: 0x0, symName: __ZNK5Eigen8internal15BlockImpl_denseIKNS_6MatrixIdLin1ELin1ELi0ELin1ELin1EEELin1ELi1ELb1ELb1EE11outerStrideEv, symObjAddr: 0x15934, symBinAddr: 0x1000161E4, symSize: 0x28 }
  - { offsetInCU: 0x159CF6, offset: 0x159CF6, size: 0x8, addend: 0x0, symName: __ZN5Eigen8internal14evaluator_baseINS_5BlockIKNS_6MatrixIdLin1ELin1ELi0ELin1ELin1EEELin1ELi1ELb1EEEED2Ev, symObjAddr: 0x1595C, symBinAddr: 0x10001620C, symSize: 0x14 }
  - { offsetInCU: 0x159D20, offset: 0x159D20, size: 0x8, addend: 0x0, symName: __ZNK5Eigen8internal15redux_evaluatorINS_13CwiseBinaryOpINS0_17scalar_product_opIddEEKNS_9TransposeIKNS_5BlockIKNS_6MatrixIdLin1ELin1ELi0ELin1ELin1EEELi1ELin1ELb0EEEEEKNS6_IS9_Lin1ELi1ELb1EEEEEE17coeffByOuterInnerEll, symObjAddr: 0x15970, symBinAddr: 0x100016220, symSize: 0x34 }
  - { offsetInCU: 0x159D64, offset: 0x159D64, size: 0x8, addend: 0x0, symName: __ZNK5Eigen9DenseBaseINS_13CwiseBinaryOpINS_8internal17scalar_product_opIddEEKNS_9TransposeIKNS_5BlockIKNS_6MatrixIdLin1ELin1ELi0ELin1ELin1EEELi1ELin1ELb0EEEEEKNS6_IS9_Lin1ELi1ELb1EEEEEE9innerSizeEv, symObjAddr: 0x159A4, symBinAddr: 0x100016254, symSize: 0x24 }
  - { offsetInCU: 0x159D8A, offset: 0x159D8A, size: 0x8, addend: 0x0, symName: __ZNK5Eigen9DenseBaseINS_13CwiseBinaryOpINS_8internal17scalar_product_opIddEEKNS_9TransposeIKNS_5BlockIKNS_6MatrixIdLin1ELin1ELi0ELin1ELin1EEELi1ELin1ELb0EEEEEKNS6_IS9_Lin1ELi1ELb1EEEEEE9outerSizeEv, symObjAddr: 0x159C8, symBinAddr: 0x100016278, symSize: 0x14 }
  - { offsetInCU: 0x159DB0, offset: 0x159DB0, size: 0x8, addend: 0x0, symName: __ZNK5Eigen8internal16binary_evaluatorINS_13CwiseBinaryOpINS0_17scalar_product_opIddEEKNS_9TransposeIKNS_5BlockIKNS_6MatrixIdLin1ELin1ELi0ELin1ELin1EEELi1ELin1ELb0EEEEEKNS6_IS9_Lin1ELi1ELb1EEEEENS0_10IndexBasedESH_ddE5coeffEll, symObjAddr: 0x159DC, symBinAddr: 0x10001628C, symSize: 0x7C }
  - { offsetInCU: 0x159DF4, offset: 0x159DF4, size: 0x8, addend: 0x0, symName: __ZNK5Eigen8internal16binary_evaluatorINS_13CwiseBinaryOpINS0_17scalar_product_opIddEEKNS_9TransposeIKNS_5BlockIKNS_6MatrixIdLin1ELin1ELi0ELin1ELin1EEELi1ELin1ELb0EEEEEKNS6_IS9_Lin1ELi1ELb1EEEEENS0_10IndexBasedESH_ddE4Data4funcEv, symObjAddr: 0x15A58, symBinAddr: 0x100016308, symSize: 0x14 }
  - { offsetInCU: 0x159E1A, offset: 0x159E1A, size: 0x8, addend: 0x0, symName: __ZNK5Eigen8internal17mapbase_evaluatorINS_5BlockIKNS_6MatrixIdLin1ELin1ELi0ELin1ELin1EEELin1ELi1ELb1EEENS3_IdLin1ELi1ELi0ELin1ELi1EEEE5coeffEll, symObjAddr: 0x15A6C, symBinAddr: 0x10001631C, symSize: 0x78 }
  - { offsetInCU: 0x159E5E, offset: 0x159E5E, size: 0x8, addend: 0x0, symName: __ZNK5Eigen8internal17mapbase_evaluatorINS_5BlockIKNS_6MatrixIdLin1ELin1ELi0ELin1ELin1EEELin1ELi1ELb1EEENS3_IdLin1ELi1ELi0ELin1ELi1EEEE9colStrideEv, symObjAddr: 0x15AE4, symBinAddr: 0x100016394, symSize: 0x28 }
  - { offsetInCU: 0x159E84, offset: 0x159E84, size: 0x8, addend: 0x0, symName: __ZNK5Eigen8internal17mapbase_evaluatorINS_5BlockIKNS_6MatrixIdLin1ELin1ELi0ELin1ELin1EEELin1ELi1ELb1EEENS3_IdLin1ELi1ELi0ELin1ELi1EEEE9rowStrideEv, symObjAddr: 0x15B0C, symBinAddr: 0x1000163BC, symSize: 0x20 }
  - { offsetInCU: 0x159EAA, offset: 0x159EAA, size: 0x8, addend: 0x0, symName: __ZN5Eigen8internal15redux_evaluatorINS_13CwiseBinaryOpINS0_17scalar_product_opIddEEKNS_9TransposeIKNS_5BlockIKNS_6MatrixIdLin1ELin1ELi0ELin1ELin1EEELi1ELin1ELb0EEEEEKNS6_IS9_Lin1ELi1ELb1EEEEEED2Ev, symObjAddr: 0x15B2C, symBinAddr: 0x1000163DC, symSize: 0x2C }
  - { offsetInCU: 0x159ED7, offset: 0x159ED7, size: 0x8, addend: 0x0, symName: __ZN5Eigen8internal9evaluatorINS_13CwiseBinaryOpINS0_17scalar_product_opIddEEKNS_9TransposeIKNS_5BlockIKNS_6MatrixIdLin1ELin1ELi0ELin1ELin1EEELi1ELin1ELb0EEEEEKNS6_IS9_Lin1ELi1ELb1EEEEEED2Ev, symObjAddr: 0x15B58, symBinAddr: 0x100016408, symSize: 0x2C }
  - { offsetInCU: 0x159F04, offset: 0x159F04, size: 0x8, addend: 0x0, symName: __ZN5Eigen8internal16binary_evaluatorINS_13CwiseBinaryOpINS0_17scalar_product_opIddEEKNS_9TransposeIKNS_5BlockIKNS_6MatrixIdLin1ELin1ELi0ELin1ELin1EEELi1ELin1ELb0EEEEEKNS6_IS9_Lin1ELi1ELb1EEEEENS0_10IndexBasedESH_ddED2Ev, symObjAddr: 0x15B84, symBinAddr: 0x100016434, symSize: 0x34 }
  - { offsetInCU: 0x159F30, offset: 0x159F30, size: 0x8, addend: 0x0, symName: __ZN5Eigen8internal16binary_evaluatorINS_13CwiseBinaryOpINS0_17scalar_product_opIddEEKNS_9TransposeIKNS_5BlockIKNS_6MatrixIdLin1ELin1ELi0ELin1ELin1EEELi1ELin1ELb0EEEEEKNS6_IS9_Lin1ELi1ELb1EEEEENS0_10IndexBasedESH_ddE4DataD1Ev, symObjAddr: 0x15BB8, symBinAddr: 0x100016468, symSize: 0x2C }
  - { offsetInCU: 0x159F5D, offset: 0x159F5D, size: 0x8, addend: 0x0, symName: __ZN5Eigen8internal16binary_evaluatorINS_13CwiseBinaryOpINS0_17scalar_product_opIddEEKNS_9TransposeIKNS_5BlockIKNS_6MatrixIdLin1ELin1ELi0ELin1ELin1EEELi1ELin1ELb0EEEEEKNS6_IS9_Lin1ELi1ELb1EEEEENS0_10IndexBasedESH_ddE4DataD2Ev, symObjAddr: 0x15BE4, symBinAddr: 0x100016494, symSize: 0x3C }
  - { offsetInCU: 0x159F8A, offset: 0x159F8A, size: 0x8, addend: 0x0, symName: __ZN5Eigen8internal9evaluatorIKNS_5BlockIKNS_6MatrixIdLin1ELin1ELi0ELin1ELin1EEELin1ELi1ELb1EEEED1Ev, symObjAddr: 0x15C20, symBinAddr: 0x1000164D0, symSize: 0x2C }
  - { offsetInCU: 0x159FB6, offset: 0x159FB6, size: 0x8, addend: 0x0, symName: __ZN5Eigen8internal9evaluatorIKNS_5BlockIKNS_6MatrixIdLin1ELin1ELi0ELin1ELin1EEELin1ELi1ELb1EEEED2Ev, symObjAddr: 0x15C4C, symBinAddr: 0x1000164FC, symSize: 0x2C }
  - { offsetInCU: 0x159FE2, offset: 0x159FE2, size: 0x8, addend: 0x0, symName: __ZN5Eigen8internal9evaluatorINS_5BlockIKNS_6MatrixIdLin1ELin1ELi0ELin1ELin1EEELin1ELi1ELb1EEEED2Ev, symObjAddr: 0x15C78, symBinAddr: 0x100016528, symSize: 0x2C }
  - { offsetInCU: 0x15A00F, offset: 0x15A00F, size: 0x8, addend: 0x0, symName: __ZN5Eigen8internal15block_evaluatorIKNS_6MatrixIdLin1ELin1ELi0ELin1ELin1EEELin1ELi1ELb1ELb1EED2Ev, symObjAddr: 0x15CA4, symBinAddr: 0x100016554, symSize: 0x2C }
  - { offsetInCU: 0x15A03C, offset: 0x15A03C, size: 0x8, addend: 0x0, symName: __ZN5Eigen8internal31generic_dense_assignment_kernelINS0_9evaluatorINS_6MatrixIdLin1ELin1ELi0ELin1ELin1EEEEENS2_INS_7ProductIS4_S4_Li1EEEEENS0_9assign_opIddEELi1EE12assignPacketILi16ELi0E19__simd128_float64_tEEvll, symObjAddr: 0x15CD0, symBinAddr: 0x100016580, symSize: 0x70 }
  - { offsetInCU: 0x15A09D, offset: 0x15A09D, size: 0x8, addend: 0x0, symName: __ZNK5Eigen8internal17product_evaluatorINS_7ProductINS_6MatrixIdLin1ELin1ELi0ELin1ELin1EEES4_Li1EEELi8ENS_10DenseShapeES6_ddE6packetILi0E19__simd128_float64_tEEKT0_ll, symObjAddr: 0x15D40, symBinAddr: 0x1000165F0, symSize: 0x48 }
  - { offsetInCU: 0x15A112, offset: 0x15A112, size: 0x8, addend: 0x0, symName: __ZN5Eigen8internal24etor_product_packet_implILi0ELin1ENS0_9evaluatorINS_6MatrixIdLin1ELin1ELi0ELin1ELin1EEEEES5_19__simd128_float64_tLi0EE3runEllRKS5_S9_lRS6_, symObjAddr: 0x15D88, symBinAddr: 0x100016638, symSize: 0xC8 }
  - { offsetInCU: 0x15A19E, offset: 0x15A19E, size: 0x8, addend: 0x0, symName: __ZNK5Eigen8internal9evaluatorINS_15PlainObjectBaseINS_6MatrixIdLin1ELin1ELi0ELin1ELin1EEEEEE6packetILi0E19__simd128_float64_tEET0_ll, symObjAddr: 0x15E50, symBinAddr: 0x100016700, symSize: 0x60 }
  - { offsetInCU: 0x15A210, offset: 0x15A210, size: 0x8, addend: 0x0, symName: __ZN5Eigen8internal9evaluatorINS_7ProductINS_6MatrixIdLin1ELin1ELi0ELin1ELin1EEES4_Li1EEEED2Ev, symObjAddr: 0x15EB0, symBinAddr: 0x100016760, symSize: 0x2C }
  - { offsetInCU: 0x15A23C, offset: 0x15A23C, size: 0x8, addend: 0x0, symName: __ZN5Eigen8internal17product_evaluatorINS_7ProductINS_6MatrixIdLin1ELin1ELi0ELin1ELin1EEES4_Li1EEELi8ENS_10DenseShapeES6_ddED2Ev, symObjAddr: 0x15EDC, symBinAddr: 0x10001678C, symSize: 0x44 }
  - { offsetInCU: 0x15A268, offset: 0x15A268, size: 0x8, addend: 0x0, symName: __ZN5Eigen7ProductINS_6MatrixIdLin1ELin1ELi0ELin1ELin1EEES2_Li1EEC1ERKS2_S5_, symObjAddr: 0x15F20, symBinAddr: 0x1000167D0, symSize: 0x3C }
  - { offsetInCU: 0x15A2AE, offset: 0x15A2AE, size: 0x8, addend: 0x0, symName: __ZN5Eigen7ProductINS_6MatrixIdLin1ELin1ELi0ELin1ELin1EEES2_Li1EEC2ERKS2_S5_, symObjAddr: 0x15F5C, symBinAddr: 0x10001680C, symSize: 0xC0 }
  - { offsetInCU: 0x15A2F9, offset: 0x15A2F9, size: 0x8, addend: 0x0, symName: __ZN5Eigen11ProductImplINS_6MatrixIdLin1ELin1ELi0ELin1ELin1EEES2_Li1ENS_5DenseEEC2Ev, symObjAddr: 0x1601C, symBinAddr: 0x1000168CC, symSize: 0x2C }
  - { offsetInCU: 0x15A32A, offset: 0x15A32A, size: 0x8, addend: 0x0, symName: __ZN5Eigen8internal18dense_product_baseINS_6MatrixIdLin1ELin1ELi0ELin1ELin1EEES3_Li1ELi8EEC2Ev, symObjAddr: 0x16048, symBinAddr: 0x1000168F8, symSize: 0x2C }
  - { offsetInCU: 0x15A356, offset: 0x15A356, size: 0x8, addend: 0x0, symName: __ZN5Eigen10MatrixBaseINS_7ProductINS_6MatrixIdLin1ELin1ELi0ELin1ELin1EEES3_Li1EEEEC2Ev, symObjAddr: 0x16074, symBinAddr: 0x100016924, symSize: 0x2C }
  - { offsetInCU: 0x15A380, offset: 0x15A380, size: 0x8, addend: 0x0, symName: __ZN5Eigen9DenseBaseINS_7ProductINS_6MatrixIdLin1ELin1ELi0ELin1ELin1EEES3_Li1EEEEC2Ev, symObjAddr: 0x160A0, symBinAddr: 0x100016950, symSize: 0x14 }
  - { offsetInCU: 0x15A3AA, offset: 0x15A3AA, size: 0x8, addend: 0x0, symName: __ZN5Eigen9DenseBaseINS_6MatrixIdLin1ELin1ELi0ELin1ELin1EEEE11setConstantERKd, symObjAddr: 0x160B4, symBinAddr: 0x100016964, symSize: 0x64 }
  - { offsetInCU: 0x15A3E2, offset: 0x15A3E2, size: 0x8, addend: 0x0, symName: __ZN5Eigen6MatrixIdLin1ELin1ELi0ELin1ELin1EEaSINS_14CwiseNullaryOpINS_8internal18scalar_constant_opIdEES1_EEEERS1_RKNS_9DenseBaseIT_EE, symObjAddr: 0x16118, symBinAddr: 0x1000169C8, symSize: 0x2C }
  - { offsetInCU: 0x15A41F, offset: 0x15A41F, size: 0x8, addend: 0x0, symName: __ZN5Eigen15PlainObjectBaseINS_6MatrixIdLin1ELin1ELi0ELin1ELin1EEEE4_setINS_14CwiseNullaryOpINS_8internal18scalar_constant_opIdEES2_EEEERS2_RKNS_9DenseBaseIT_EE, symObjAddr: 0x16144, symBinAddr: 0x1000169F4, symSize: 0x4C }
  - { offsetInCU: 0x15A45D, offset: 0x15A45D, size: 0x8, addend: 0x0, symName: __ZN5Eigen9DenseBaseINS_6MatrixIdLin1ELin1ELi0ELin1ELin1EEEE3colEl, symObjAddr: 0x16218, symBinAddr: 0x100016AC8, symSize: 0x3C }
  - { offsetInCU: 0x15A64F, offset: 0x15A64F, size: 0x8, addend: 0x0, symName: __ZN5Eigen8internal20generic_product_implINS_6MatrixIdLin1ELin1ELi0ELin1ELin1EEEKNS_5BlockIKS3_Lin1ELi1ELb1EEENS_10DenseShapeES8_Li7EE13scaleAndAddToINS4_IS3_Lin1ELi1ELb1EEEEEvRT_RS5_RS7_RKd, symObjAddr: 0x16254, symBinAddr: 0x100016B04, symSize: 0x110 }
  - { offsetInCU: 0x15A6C9, offset: 0x15A6C9, size: 0x8, addend: 0x0, symName: __ZN5Eigen9DenseBaseINS_6MatrixIdLin1ELin1ELi0ELin1ELin1EEEE3rowEl, symObjAddr: 0x16364, symBinAddr: 0x100016C14, symSize: 0x3C }
  - { offsetInCU: 0x15A8BB, offset: 0x15A8BB, size: 0x8, addend: 0x0, symName: __ZN5Eigen8internal20generic_product_implIKNS_5BlockIKNS_6MatrixIdLin1ELin1ELi0ELin1ELin1EEELi1ELin1ELb0EEES4_NS_10DenseShapeES8_Li7EE13scaleAndAddToINS2_IS4_Li1ELin1ELb0EEEEEvRT_RS7_RS5_RKd, symObjAddr: 0x163A0, symBinAddr: 0x100016C50, symSize: 0x110 }
  - { offsetInCU: 0x15A93A, offset: 0x15A93A, size: 0x8, addend: 0x0, symName: __ZN5Eigen8internal19gemm_blocking_spaceILi0EddLin1ELin1ELin1ELi1ELb0EEC1Ellllb, symObjAddr: 0x164B0, symBinAddr: 0x100016D60, symSize: 0x60 }
  - { offsetInCU: 0x15A9CD, offset: 0x15A9CD, size: 0x8, addend: 0x0, symName: __ZN5Eigen8internal12gemm_functorIdlNS0_29general_matrix_matrix_productIldLi0ELb0EdLi0ELb0ELi0ELi1EEENS_6MatrixIdLin1ELin1ELi0ELin1ELin1EEES5_S5_NS0_19gemm_blocking_spaceILi0EddLin1ELin1ELin1ELi1ELb0EEEEC1ERKS5_SA_RS5_RKdRS7_, symObjAddr: 0x16574, symBinAddr: 0x100016E24, symSize: 0x54 }
  - { offsetInCU: 0x15AA3D, offset: 0x15AA3D, size: 0x8, addend: 0x0, symName: __ZN5Eigen8internal19gemm_blocking_spaceILi0EddLin1ELin1ELin1ELi1ELb0EED1Ev, symObjAddr: 0x165C8, symBinAddr: 0x100016E78, symSize: 0x2C }
  - { offsetInCU: 0x15AA67, offset: 0x15AA67, size: 0x8, addend: 0x0, symName: __ZN5Eigen5BlockINS_6MatrixIdLin1ELin1ELi0ELin1ELin1EEELin1ELi1ELb1EEC1ERS2_l, symObjAddr: 0x165F4, symBinAddr: 0x100016EA4, symSize: 0x3C }
  - { offsetInCU: 0x15AAAD, offset: 0x15AAAD, size: 0x8, addend: 0x0, symName: __ZN5Eigen5BlockINS_6MatrixIdLin1ELin1ELi0ELin1ELin1EEELin1ELi1ELb1EEC2ERS2_l, symObjAddr: 0x16630, symBinAddr: 0x100016EE0, symSize: 0xAC }
  - { offsetInCU: 0x15AAF3, offset: 0x15AAF3, size: 0x8, addend: 0x0, symName: __ZN5Eigen9BlockImplINS_6MatrixIdLin1ELin1ELi0ELin1ELin1EEELin1ELi1ELb1ENS_5DenseEEC2ERS2_l, symObjAddr: 0x166DC, symBinAddr: 0x100016F8C, symSize: 0x3C }
  - { offsetInCU: 0x15AB39, offset: 0x15AB39, size: 0x8, addend: 0x0, symName: __ZN5Eigen8internal15BlockImpl_denseINS_6MatrixIdLin1ELin1ELi0ELin1ELin1EEELin1ELi1ELb1ELb1EEC2ERS3_l, symObjAddr: 0x16718, symBinAddr: 0x100016FC8, symSize: 0xAC }
  - { offsetInCU: 0x15AB81, offset: 0x15AB81, size: 0x8, addend: 0x0, symName: __ZN5Eigen7MapBaseINS_5BlockINS_6MatrixIdLin1ELin1ELi0ELin1ELin1EEELin1ELi1ELb1EEELi1EEC2EPdll, symObjAddr: 0x167C4, symBinAddr: 0x100017074, symSize: 0x44 }
  - { offsetInCU: 0x15ABD8, offset: 0x15ABD8, size: 0x8, addend: 0x0, symName: __ZN5Eigen8internal15BlockImpl_denseINS_6MatrixIdLin1ELin1ELi0ELin1ELin1EEELin1ELi1ELb1ELb1EE4initEv, symObjAddr: 0x16808, symBinAddr: 0x1000170B8, symSize: 0x34 }
  - { offsetInCU: 0x15ABFE, offset: 0x15ABFE, size: 0x8, addend: 0x0, symName: __ZN5Eigen7MapBaseINS_5BlockINS_6MatrixIdLin1ELin1ELi0ELin1ELin1EEELin1ELi1ELb1EEELi0EEC2EPdll, symObjAddr: 0x1683C, symBinAddr: 0x1000170EC, symSize: 0x11C }
  - { offsetInCU: 0x15AC52, offset: 0x15AC52, size: 0x8, addend: 0x0, symName: __ZN5Eigen10MatrixBaseINS_5BlockINS_6MatrixIdLin1ELin1ELi0ELin1ELin1EEELin1ELi1ELb1EEEEC2Ev, symObjAddr: 0x16958, symBinAddr: 0x100017208, symSize: 0x2C }
  - { offsetInCU: 0x15AC7C, offset: 0x15AC7C, size: 0x8, addend: 0x0, symName: __ZNK5Eigen7MapBaseINS_5BlockINS_6MatrixIdLin1ELin1ELi0ELin1ELin1EEELin1ELi1ELb1EEELi0EE11checkSanityIS4_EEvNS_8internal9enable_ifIXeqsr8internal6traitsIT_EE9AlignmentLi0EEPvE4typeE, symObjAddr: 0x16984, symBinAddr: 0x100017234, symSize: 0x14 }
  - { offsetInCU: 0x15ACB6, offset: 0x15ACB6, size: 0x8, addend: 0x0, symName: __ZN5Eigen9DenseBaseINS_5BlockINS_6MatrixIdLin1ELin1ELi0ELin1ELin1EEELin1ELi1ELb1EEEEC2Ev, symObjAddr: 0x16998, symBinAddr: 0x100017248, symSize: 0x14 }
  - { offsetInCU: 0x15ACE0, offset: 0x15ACE0, size: 0x8, addend: 0x0, symName: __ZNK5Eigen10MatrixBaseINS_5BlockIKNS_6MatrixIdLin1ELin1ELi0ELin1ELin1EEELi1ELin1ELb0EEEE3dotINS1_IKNS1_IS4_Lin1ELi1ELb1EEELin1ELi1ELb1EEEEENS_20ScalarBinaryOpTraitsIdNS_8internal6traitsIT_E6ScalarENSC_17scalar_product_opIdSG_EEE10ReturnTypeERKNS0_ISE_EE, symObjAddr: 0x169AC, symBinAddr: 0x10001725C, symSize: 0x80 }
  - { offsetInCU: 0x15AD1F, offset: 0x15AD1F, size: 0x8, addend: 0x0, symName: __ZNK5Eigen9DenseBaseINS_5BlockIKNS_6MatrixIdLin1ELin1ELi0ELin1ELin1EEELin1ELi1ELb1EEEE3colEl, symObjAddr: 0x16A2C, symBinAddr: 0x1000172DC, symSize: 0x3C }
  - { offsetInCU: 0x15AD54, offset: 0x15AD54, size: 0x8, addend: 0x0, symName: __ZN5Eigen7MapBaseINS_5BlockINS_6MatrixIdLin1ELin1ELi0ELin1ELin1EEELin1ELi1ELb1EEELi1EE8coeffRefEll, symObjAddr: 0x16A68, symBinAddr: 0x100017318, symSize: 0x78 }
  - { offsetInCU: 0x15ADCE, offset: 0x15ADCE, size: 0x8, addend: 0x0, symName: __ZN5Eigen8internal19gemv_dense_selectorILi2ELi0ELb1EE3runINS_6MatrixIdLin1ELin1ELi0ELin1ELin1EEENS_5BlockIKS5_Lin1ELi1ELb1EEENS6_IS5_Lin1ELi1ELb1EEEEEvRKT_RKT0_RT1_RKNSG_6ScalarE, symObjAddr: 0x16AE0, symBinAddr: 0x100017390, symSize: 0x260 }
  - { offsetInCU: 0x15B034, offset: 0x15B034, size: 0x8, addend: 0x0, symName: __ZNK5Eigen9EigenBaseINS_5BlockIKNS1_IKNS_6MatrixIdLin1ELin1ELi0ELin1ELin1EEELin1ELi1ELb1EEELin1ELi1ELb1EEEE4sizeEv, symObjAddr: 0x16D40, symBinAddr: 0x1000175F0, symSize: 0x44 }
  - { offsetInCU: 0x15B05A, offset: 0x15B05A, size: 0x8, addend: 0x0, symName: __ZN5Eigen8internal11dot_nocheckINS_5BlockIKNS_6MatrixIdLin1ELin1ELi0ELin1ELin1EEELi1ELin1ELb0EEENS2_IKNS2_IS5_Lin1ELi1ELb1EEELin1ELi1ELb1EEELb1EE3runERKNS_10MatrixBaseIS6_EERKNSB_IS9_EE, symObjAddr: 0x16D84, symBinAddr: 0x100017634, symSize: 0x78 }
  - { offsetInCU: 0x15B08B, offset: 0x15B08B, size: 0x8, addend: 0x0, symName: __ZNK5Eigen9EigenBaseINS_5BlockIKNS1_IKNS_6MatrixIdLin1ELin1ELi0ELin1ELin1EEELin1ELi1ELb1EEELin1ELi1ELb1EEEE4rowsEv, symObjAddr: 0x16DFC, symBinAddr: 0x1000176AC, symSize: 0x38 }
  - { offsetInCU: 0x15B0B1, offset: 0x15B0B1, size: 0x8, addend: 0x0, symName: __ZNK5Eigen9EigenBaseINS_5BlockIKNS1_IKNS_6MatrixIdLin1ELin1ELi0ELin1ELin1EEELin1ELi1ELb1EEELin1ELi1ELb1EEEE4colsEv, symObjAddr: 0x16E34, symBinAddr: 0x1000176E4, symSize: 0x28 }
  - { offsetInCU: 0x15B0D7, offset: 0x15B0D7, size: 0x8, addend: 0x0, symName: __ZNK5Eigen9EigenBaseINS_5BlockIKNS1_IKNS_6MatrixIdLin1ELin1ELi0ELin1ELin1EEELin1ELi1ELb1EEELin1ELi1ELb1EEEE7derivedEv, symObjAddr: 0x16E5C, symBinAddr: 0x10001770C, symSize: 0x14 }
  - { offsetInCU: 0x15B0FD, offset: 0x15B0FD, size: 0x8, addend: 0x0, symName: __ZNK5Eigen7MapBaseINS_5BlockIKNS1_IKNS_6MatrixIdLin1ELin1ELi0ELin1ELin1EEELin1ELi1ELb1EEELin1ELi1ELb1EEELi0EE4rowsEv, symObjAddr: 0x16E70, symBinAddr: 0x100017720, symSize: 0x28 }
  - { offsetInCU: 0x15B123, offset: 0x15B123, size: 0x8, addend: 0x0, symName: __ZNK5Eigen7MapBaseINS_5BlockIKNS1_IKNS_6MatrixIdLin1ELin1ELi0ELin1ELin1EEELin1ELi1ELb1EEELin1ELi1ELb1EEELi0EE4colsEv, symObjAddr: 0x16E98, symBinAddr: 0x100017748, symSize: 0x20 }
  - { offsetInCU: 0x15B149, offset: 0x15B149, size: 0x8, addend: 0x0, symName: __ZNK5Eigen10MatrixBaseINS_9TransposeIKNS_5BlockIKNS_6MatrixIdLin1ELin1ELi0ELin1ELin1EEELi1ELin1ELb0EEEEEE10binaryExprINS_8internal22scalar_conj_product_opIddEENS2_IKNS2_IS5_Lin1ELi1ELb1EEELin1ELi1ELb1EEEEEKNS_13CwiseBinaryOpIT_KS8_KT0_EERKNS0_ISK_EERKSI_, symObjAddr: 0x16EB8, symBinAddr: 0x100017768, symSize: 0x54 }
  - { offsetInCU: 0x15B19D, offset: 0x15B19D, size: 0x8, addend: 0x0, symName: __ZNK5Eigen9DenseBaseINS_13CwiseBinaryOpINS_8internal22scalar_conj_product_opIddEEKNS_9TransposeIKNS_5BlockIKNS_6MatrixIdLin1ELin1ELi0ELin1ELin1EEELi1ELin1ELb0EEEEEKNS6_IKNS6_IS9_Lin1ELi1ELb1EEELin1ELi1ELb1EEEEEE3sumEv, symObjAddr: 0x16F0C, symBinAddr: 0x1000177BC, symSize: 0x74 }
  - { offsetInCU: 0x15B1C6, offset: 0x15B1C6, size: 0x8, addend: 0x0, symName: __ZN5Eigen13CwiseBinaryOpINS_8internal22scalar_conj_product_opIddEEKNS_9TransposeIKNS_5BlockIKNS_6MatrixIdLin1ELin1ELi0ELin1ELin1EEELi1ELin1ELb0EEEEEKNS5_IKNS5_IS8_Lin1ELi1ELb1EEELin1ELi1ELb1EEEEC1ERSC_RSG_RKS3_, symObjAddr: 0x16F80, symBinAddr: 0x100017830, symSize: 0x44 }
  - { offsetInCU: 0x15B21A, offset: 0x15B21A, size: 0x8, addend: 0x0, symName: __ZN5Eigen13CwiseBinaryOpINS_8internal22scalar_conj_product_opIddEEKNS_9TransposeIKNS_5BlockIKNS_6MatrixIdLin1ELin1ELi0ELin1ELin1EEELi1ELin1ELb0EEEEEKNS5_IKNS5_IS8_Lin1ELi1ELb1EEELin1ELi1ELb1EEEEC2ERSC_RSG_RKS3_, symObjAddr: 0x16FC4, symBinAddr: 0x100017874, symSize: 0x100 }
  - { offsetInCU: 0x15B273, offset: 0x15B273, size: 0x8, addend: 0x0, symName: __ZN5Eigen17CwiseBinaryOpImplINS_8internal22scalar_conj_product_opIddEEKNS_9TransposeIKNS_5BlockIKNS_6MatrixIdLin1ELin1ELi0ELin1ELin1EEELi1ELin1ELb0EEEEEKNS5_IKNS5_IS8_Lin1ELi1ELb1EEELin1ELi1ELb1EEENS_5DenseEEC2Ev, symObjAddr: 0x170C4, symBinAddr: 0x100017974, symSize: 0x2C }
  - { offsetInCU: 0x15B29F, offset: 0x15B29F, size: 0x8, addend: 0x0, symName: __ZN5Eigen10MatrixBaseINS_13CwiseBinaryOpINS_8internal22scalar_conj_product_opIddEEKNS_9TransposeIKNS_5BlockIKNS_6MatrixIdLin1ELin1ELi0ELin1ELin1EEELi1ELin1ELb0EEEEEKNS6_IKNS6_IS9_Lin1ELi1ELb1EEELin1ELi1ELb1EEEEEEC2Ev, symObjAddr: 0x170F0, symBinAddr: 0x1000179A0, symSize: 0x2C }
  - { offsetInCU: 0x15B2C9, offset: 0x15B2C9, size: 0x8, addend: 0x0, symName: __ZN5Eigen9DenseBaseINS_13CwiseBinaryOpINS_8internal22scalar_conj_product_opIddEEKNS_9TransposeIKNS_5BlockIKNS_6MatrixIdLin1ELin1ELi0ELin1ELin1EEELi1ELin1ELb0EEEEEKNS6_IKNS6_IS9_Lin1ELi1ELb1EEELin1ELi1ELb1EEEEEEC2Ev, symObjAddr: 0x1711C, symBinAddr: 0x1000179CC, symSize: 0x14 }
  - { offsetInCU: 0x15B2F3, offset: 0x15B2F3, size: 0x8, addend: 0x0, symName: __ZNK5Eigen9EigenBaseINS_13CwiseBinaryOpINS_8internal22scalar_conj_product_opIddEEKNS_9TransposeIKNS_5BlockIKNS_6MatrixIdLin1ELin1ELi0ELin1ELin1EEELi1ELin1ELb0EEEEEKNS6_IKNS6_IS9_Lin1ELi1ELb1EEELin1ELi1ELb1EEEEEE4sizeEv, symObjAddr: 0x17130, symBinAddr: 0x1000179E0, symSize: 0x44 }
  - { offsetInCU: 0x15B319, offset: 0x15B319, size: 0x8, addend: 0x0, symName: __ZNK5Eigen9EigenBaseINS_13CwiseBinaryOpINS_8internal22scalar_conj_product_opIddEEKNS_9TransposeIKNS_5BlockIKNS_6MatrixIdLin1ELin1ELi0ELin1ELin1EEELi1ELin1ELb0EEEEEKNS6_IKNS6_IS9_Lin1ELi1ELb1EEELin1ELi1ELb1EEEEEE7derivedEv, symObjAddr: 0x17174, symBinAddr: 0x100017A24, symSize: 0x14 }
  - { offsetInCU: 0x15B33F, offset: 0x15B33F, size: 0x8, addend: 0x0, symName: __ZNK5Eigen9DenseBaseINS_13CwiseBinaryOpINS_8internal22scalar_conj_product_opIddEEKNS_9TransposeIKNS_5BlockIKNS_6MatrixIdLin1ELin1ELi0ELin1ELin1EEELi1ELin1ELb0EEEEEKNS6_IKNS6_IS9_Lin1ELi1ELb1EEELin1ELi1ELb1EEEEEE5reduxINS2_13scalar_sum_opIddEEEEdRKT_, symObjAddr: 0x17188, symBinAddr: 0x100017A38, symSize: 0x10C }
  - { offsetInCU: 0x15B39B, offset: 0x15B39B, size: 0x8, addend: 0x0, symName: __ZNK5Eigen9EigenBaseINS_13CwiseBinaryOpINS_8internal22scalar_conj_product_opIddEEKNS_9TransposeIKNS_5BlockIKNS_6MatrixIdLin1ELin1ELi0ELin1ELin1EEELi1ELin1ELb0EEEEEKNS6_IKNS6_IS9_Lin1ELi1ELb1EEELin1ELi1ELb1EEEEEE4rowsEv, symObjAddr: 0x17294, symBinAddr: 0x100017B44, symSize: 0x38 }
  - { offsetInCU: 0x15B3C1, offset: 0x15B3C1, size: 0x8, addend: 0x0, symName: __ZNK5Eigen9EigenBaseINS_13CwiseBinaryOpINS_8internal22scalar_conj_product_opIddEEKNS_9TransposeIKNS_5BlockIKNS_6MatrixIdLin1ELin1ELi0ELin1ELin1EEELi1ELin1ELb0EEEEEKNS6_IKNS6_IS9_Lin1ELi1ELb1EEELin1ELi1ELb1EEEEEE4colsEv, symObjAddr: 0x172CC, symBinAddr: 0x100017B7C, symSize: 0x38 }
  - { offsetInCU: 0x15B3E7, offset: 0x15B3E7, size: 0x8, addend: 0x0, symName: __ZNK5Eigen13CwiseBinaryOpINS_8internal22scalar_conj_product_opIddEEKNS_9TransposeIKNS_5BlockIKNS_6MatrixIdLin1ELin1ELi0ELin1ELin1EEELi1ELin1ELb0EEEEEKNS5_IKNS5_IS8_Lin1ELi1ELb1EEELin1ELi1ELb1EEEE4rowsEv, symObjAddr: 0x17304, symBinAddr: 0x100017BB4, symSize: 0x28 }
  - { offsetInCU: 0x15B40D, offset: 0x15B40D, size: 0x8, addend: 0x0, symName: __ZNK5Eigen13CwiseBinaryOpINS_8internal22scalar_conj_product_opIddEEKNS_9TransposeIKNS_5BlockIKNS_6MatrixIdLin1ELin1ELi0ELin1ELin1EEELi1ELin1ELb0EEEEEKNS5_IKNS5_IS8_Lin1ELi1ELb1EEELin1ELi1ELb1EEEE4colsEv, symObjAddr: 0x1732C, symBinAddr: 0x100017BDC, symSize: 0x24 }
  - { offsetInCU: 0x15B4B5, offset: 0x15B4B5, size: 0x8, addend: 0x0, symName: __ZN5Eigen8internal15redux_evaluatorINS_13CwiseBinaryOpINS0_22scalar_conj_product_opIddEEKNS_9TransposeIKNS_5BlockIKNS_6MatrixIdLin1ELin1ELi0ELin1ELin1EEELi1ELin1ELb0EEEEEKNS6_IKNS6_IS9_Lin1ELi1ELb1EEELin1ELi1ELb1EEEEEEC1ERKSI_, symObjAddr: 0x17350, symBinAddr: 0x100017C00, symSize: 0x34 }
  - { offsetInCU: 0x15B4F3, offset: 0x15B4F3, size: 0x8, addend: 0x0, symName: __ZN5Eigen8internal10redux_implINS0_13scalar_sum_opIddEENS0_15redux_evaluatorINS_13CwiseBinaryOpINS0_22scalar_conj_product_opIddEEKNS_9TransposeIKNS_5BlockIKNS_6MatrixIdLin1ELin1ELi0ELin1ELin1EEELi1ELin1ELb0EEEEEKNS9_IKNS9_ISC_Lin1ELi1ELb1EEELin1ELi1ELb1EEEEEEELi0ELi0EE3runISL_EEdRKSM_RKS3_RKT_, symObjAddr: 0x17384, symBinAddr: 0x100017C34, symSize: 0x1E0 }
  - { offsetInCU: 0x15B59E, offset: 0x15B59E, size: 0x8, addend: 0x0, symName: __ZN5Eigen8internal15redux_evaluatorINS_13CwiseBinaryOpINS0_22scalar_conj_product_opIddEEKNS_9TransposeIKNS_5BlockIKNS_6MatrixIdLin1ELin1ELi0ELin1ELin1EEELi1ELin1ELb0EEEEEKNS6_IKNS6_IS9_Lin1ELi1ELb1EEELin1ELi1ELb1EEEEEED1Ev, symObjAddr: 0x17564, symBinAddr: 0x100017E14, symSize: 0x2C }
  - { offsetInCU: 0x15B5CB, offset: 0x15B5CB, size: 0x8, addend: 0x0, symName: __ZN5Eigen8internal15redux_evaluatorINS_13CwiseBinaryOpINS0_22scalar_conj_product_opIddEEKNS_9TransposeIKNS_5BlockIKNS_6MatrixIdLin1ELin1ELi0ELin1ELin1EEELi1ELin1ELb0EEEEEKNS6_IKNS6_IS9_Lin1ELi1ELb1EEELin1ELi1ELb1EEEEEEC2ERKSI_, symObjAddr: 0x17590, symBinAddr: 0x100017E40, symSize: 0x34 }
  - { offsetInCU: 0x15B604, offset: 0x15B604, size: 0x8, addend: 0x0, symName: __ZN5Eigen8internal9evaluatorINS_13CwiseBinaryOpINS0_22scalar_conj_product_opIddEEKNS_9TransposeIKNS_5BlockIKNS_6MatrixIdLin1ELin1ELi0ELin1ELin1EEELi1ELin1ELb0EEEEEKNS6_IKNS6_IS9_Lin1ELi1ELb1EEELin1ELi1ELb1EEEEEEC2ERKSI_, symObjAddr: 0x175C4, symBinAddr: 0x100017E74, symSize: 0x34 }
  - { offsetInCU: 0x15B63D, offset: 0x15B63D, size: 0x8, addend: 0x0, symName: __ZN5Eigen8internal16binary_evaluatorINS_13CwiseBinaryOpINS0_22scalar_conj_product_opIddEEKNS_9TransposeIKNS_5BlockIKNS_6MatrixIdLin1ELin1ELi0ELin1ELin1EEELi1ELin1ELb0EEEEEKNS6_IKNS6_IS9_Lin1ELi1ELb1EEELin1ELi1ELb1EEEEENS0_10IndexBasedESJ_ddEC2ERKSI_, symObjAddr: 0x175F8, symBinAddr: 0x100017EA8, symSize: 0x64 }
  - { offsetInCU: 0x15B676, offset: 0x15B676, size: 0x8, addend: 0x0, symName: __ZN5Eigen8internal14evaluator_baseINS_13CwiseBinaryOpINS0_22scalar_conj_product_opIddEEKNS_9TransposeIKNS_5BlockIKNS_6MatrixIdLin1ELin1ELi0ELin1ELin1EEELi1ELin1ELb0EEEEEKNS6_IKNS6_IS9_Lin1ELi1ELb1EEELin1ELi1ELb1EEEEEEC2Ev, symObjAddr: 0x1765C, symBinAddr: 0x100017F0C, symSize: 0x14 }
  - { offsetInCU: 0x15B6A0, offset: 0x15B6A0, size: 0x8, addend: 0x0, symName: __ZN5Eigen8internal16binary_evaluatorINS_13CwiseBinaryOpINS0_22scalar_conj_product_opIddEEKNS_9TransposeIKNS_5BlockIKNS_6MatrixIdLin1ELin1ELi0ELin1ELin1EEELi1ELin1ELb0EEEEEKNS6_IKNS6_IS9_Lin1ELi1ELb1EEELin1ELi1ELb1EEEEENS0_10IndexBasedESJ_ddE4DataC1ERKSI_, symObjAddr: 0x17670, symBinAddr: 0x100017F20, symSize: 0x34 }
  - { offsetInCU: 0x15B6D9, offset: 0x15B6D9, size: 0x8, addend: 0x0, symName: __ZN5Eigen8internal14evaluator_baseINS_13CwiseBinaryOpINS0_22scalar_conj_product_opIddEEKNS_9TransposeIKNS_5BlockIKNS_6MatrixIdLin1ELin1ELi0ELin1ELin1EEELi1ELin1ELb0EEEEEKNS6_IKNS6_IS9_Lin1ELi1ELb1EEELin1ELi1ELb1EEEEEED2Ev, symObjAddr: 0x176A4, symBinAddr: 0x100017F54, symSize: 0x14 }
  - { offsetInCU: 0x15B703, offset: 0x15B703, size: 0x8, addend: 0x0, symName: __ZN5Eigen8internal16binary_evaluatorINS_13CwiseBinaryOpINS0_22scalar_conj_product_opIddEEKNS_9TransposeIKNS_5BlockIKNS_6MatrixIdLin1ELin1ELi0ELin1ELin1EEELi1ELin1ELb0EEEEEKNS6_IKNS6_IS9_Lin1ELi1ELb1EEELin1ELi1ELb1EEEEENS0_10IndexBasedESJ_ddE4DataC2ERKSI_, symObjAddr: 0x176B8, symBinAddr: 0x100017F68, symSize: 0xA8 }
  - { offsetInCU: 0x15B73C, offset: 0x15B73C, size: 0x8, addend: 0x0, symName: __ZNK5Eigen13CwiseBinaryOpINS_8internal22scalar_conj_product_opIddEEKNS_9TransposeIKNS_5BlockIKNS_6MatrixIdLin1ELin1ELi0ELin1ELin1EEELi1ELin1ELb0EEEEEKNS5_IKNS5_IS8_Lin1ELi1ELb1EEELin1ELi1ELb1EEEE7functorEv, symObjAddr: 0x17760, symBinAddr: 0x100018010, symSize: 0x18 }
  - { offsetInCU: 0x15B762, offset: 0x15B762, size: 0x8, addend: 0x0, symName: __ZNK5Eigen13CwiseBinaryOpINS_8internal22scalar_conj_product_opIddEEKNS_9TransposeIKNS_5BlockIKNS_6MatrixIdLin1ELin1ELi0ELin1ELin1EEELi1ELin1ELb0EEEEEKNS5_IKNS5_IS8_Lin1ELi1ELb1EEELin1ELi1ELb1EEEE3lhsEv, symObjAddr: 0x17778, symBinAddr: 0x100018028, symSize: 0x14 }
  - { offsetInCU: 0x15B788, offset: 0x15B788, size: 0x8, addend: 0x0, symName: __ZNK5Eigen13CwiseBinaryOpINS_8internal22scalar_conj_product_opIddEEKNS_9TransposeIKNS_5BlockIKNS_6MatrixIdLin1ELin1ELi0ELin1ELin1EEELi1ELin1ELb0EEEEEKNS5_IKNS5_IS8_Lin1ELi1ELb1EEELin1ELi1ELb1EEEE3rhsEv, symObjAddr: 0x1778C, symBinAddr: 0x10001803C, symSize: 0x18 }
  - { offsetInCU: 0x15B7AE, offset: 0x15B7AE, size: 0x8, addend: 0x0, symName: __ZN5Eigen8internal9evaluatorIKNS_5BlockIKNS2_IKNS_6MatrixIdLin1ELin1ELi0ELin1ELin1EEELin1ELi1ELb1EEELin1ELi1ELb1EEEEC1ERS9_, symObjAddr: 0x177A4, symBinAddr: 0x100018054, symSize: 0x34 }
  - { offsetInCU: 0x15B7E6, offset: 0x15B7E6, size: 0x8, addend: 0x0, symName: __ZN5Eigen8internal9evaluatorIKNS_5BlockIKNS2_IKNS_6MatrixIdLin1ELin1ELi0ELin1ELin1EEELin1ELi1ELb1EEELin1ELi1ELb1EEEEC2ERS9_, symObjAddr: 0x177D8, symBinAddr: 0x100018088, symSize: 0x34 }
  - { offsetInCU: 0x15B81E, offset: 0x15B81E, size: 0x8, addend: 0x0, symName: __ZN5Eigen8internal9evaluatorINS_5BlockIKNS2_IKNS_6MatrixIdLin1ELin1ELi0ELin1ELin1EEELin1ELi1ELb1EEELin1ELi1ELb1EEEEC2ERKS8_, symObjAddr: 0x1780C, symBinAddr: 0x1000180BC, symSize: 0x34 }
  - { offsetInCU: 0x15B857, offset: 0x15B857, size: 0x8, addend: 0x0, symName: __ZN5Eigen8internal15block_evaluatorIKNS_5BlockIKNS_6MatrixIdLin1ELin1ELi0ELin1ELin1EEELin1ELi1ELb1EEELin1ELi1ELb1ELb1EEC2ERKNS2_IS7_Lin1ELi1ELb1EEE, symObjAddr: 0x17840, symBinAddr: 0x1000180F0, symSize: 0xDC }
  - { offsetInCU: 0x15B890, offset: 0x15B890, size: 0x8, addend: 0x0, symName: __ZN5Eigen8internal17mapbase_evaluatorINS_5BlockIKNS2_IKNS_6MatrixIdLin1ELin1ELi0ELin1ELin1EEELin1ELi1ELb1EEELin1ELi1ELb1EEENS3_IdLin1ELi1ELi0ELin1ELi1EEEEC2ERKS8_, symObjAddr: 0x1791C, symBinAddr: 0x1000181CC, symSize: 0xB0 }
  - { offsetInCU: 0x15B8C9, offset: 0x15B8C9, size: 0x8, addend: 0x0, symName: __ZNK5Eigen7MapBaseINS_5BlockIKNS1_IKNS_6MatrixIdLin1ELin1ELi0ELin1ELin1EEELin1ELi1ELb1EEELin1ELi1ELb1EEELi0EE4dataEv, symObjAddr: 0x179CC, symBinAddr: 0x10001827C, symSize: 0x18 }
  - { offsetInCU: 0x15B8EF, offset: 0x15B8EF, size: 0x8, addend: 0x0, symName: __ZN5Eigen8internal17mapbase_evaluatorINS_5BlockIKNS2_IKNS_6MatrixIdLin1ELin1ELi0ELin1ELin1EEELin1ELi1ELb1EEELin1ELi1ELb1EEENS3_IdLin1ELi1ELi0ELin1ELi1EEEED2Ev, symObjAddr: 0x179E4, symBinAddr: 0x100018294, symSize: 0x2C }
  - { offsetInCU: 0x15B91C, offset: 0x15B91C, size: 0x8, addend: 0x0, symName: __ZN5Eigen8internal14evaluator_baseINS_5BlockIKNS2_IKNS_6MatrixIdLin1ELin1ELi0ELin1ELin1EEELin1ELi1ELb1EEELin1ELi1ELb1EEEEC2Ev, symObjAddr: 0x17A10, symBinAddr: 0x1000182C0, symSize: 0x14 }
  - { offsetInCU: 0x15B946, offset: 0x15B946, size: 0x8, addend: 0x0, symName: __ZNK5Eigen8internal15BlockImpl_denseIKNS_5BlockIKNS_6MatrixIdLin1ELin1ELi0ELin1ELin1EEELin1ELi1ELb1EEELin1ELi1ELb1ELb1EE11innerStrideEv, symObjAddr: 0x17A24, symBinAddr: 0x1000182D4, symSize: 0x28 }
  - { offsetInCU: 0x15B96C, offset: 0x15B96C, size: 0x8, addend: 0x0, symName: __ZNK5Eigen8internal15BlockImpl_denseIKNS_5BlockIKNS_6MatrixIdLin1ELin1ELi0ELin1ELin1EEELin1ELi1ELb1EEELin1ELi1ELb1ELb1EE11outerStrideEv, symObjAddr: 0x17A4C, symBinAddr: 0x1000182FC, symSize: 0x28 }
  - { offsetInCU: 0x15B992, offset: 0x15B992, size: 0x8, addend: 0x0, symName: __ZN5Eigen8internal14evaluator_baseINS_5BlockIKNS2_IKNS_6MatrixIdLin1ELin1ELi0ELin1ELin1EEELin1ELi1ELb1EEELin1ELi1ELb1EEEED2Ev, symObjAddr: 0x17A74, symBinAddr: 0x100018324, symSize: 0x14 }
  - { offsetInCU: 0x15B9BC, offset: 0x15B9BC, size: 0x8, addend: 0x0, symName: __ZNK5Eigen8internal15redux_evaluatorINS_13CwiseBinaryOpINS0_22scalar_conj_product_opIddEEKNS_9TransposeIKNS_5BlockIKNS_6MatrixIdLin1ELin1ELi0ELin1ELin1EEELi1ELin1ELb0EEEEEKNS6_IKNS6_IS9_Lin1ELi1ELb1EEELin1ELi1ELb1EEEEEE17coeffByOuterInnerEll, symObjAddr: 0x17A88, symBinAddr: 0x100018338, symSize: 0x34 }
  - { offsetInCU: 0x15BA00, offset: 0x15BA00, size: 0x8, addend: 0x0, symName: __ZNK5Eigen9DenseBaseINS_13CwiseBinaryOpINS_8internal22scalar_conj_product_opIddEEKNS_9TransposeIKNS_5BlockIKNS_6MatrixIdLin1ELin1ELi0ELin1ELin1EEELi1ELin1ELb0EEEEEKNS6_IKNS6_IS9_Lin1ELi1ELb1EEELin1ELi1ELb1EEEEEE9innerSizeEv, symObjAddr: 0x17ABC, symBinAddr: 0x10001836C, symSize: 0x24 }
  - { offsetInCU: 0x15BA26, offset: 0x15BA26, size: 0x8, addend: 0x0, symName: __ZNK5Eigen9DenseBaseINS_13CwiseBinaryOpINS_8internal22scalar_conj_product_opIddEEKNS_9TransposeIKNS_5BlockIKNS_6MatrixIdLin1ELin1ELi0ELin1ELin1EEELi1ELin1ELb0EEEEEKNS6_IKNS6_IS9_Lin1ELi1ELb1EEELin1ELi1ELb1EEEEEE9outerSizeEv, symObjAddr: 0x17AE0, symBinAddr: 0x100018390, symSize: 0x14 }
  - { offsetInCU: 0x15BA4C, offset: 0x15BA4C, size: 0x8, addend: 0x0, symName: __ZNK5Eigen8internal16binary_evaluatorINS_13CwiseBinaryOpINS0_22scalar_conj_product_opIddEEKNS_9TransposeIKNS_5BlockIKNS_6MatrixIdLin1ELin1ELi0ELin1ELin1EEELi1ELin1ELb0EEEEEKNS6_IKNS6_IS9_Lin1ELi1ELb1EEELin1ELi1ELb1EEEEENS0_10IndexBasedESJ_ddE5coeffEll, symObjAddr: 0x17AF4, symBinAddr: 0x1000183A4, symSize: 0x7C }
  - { offsetInCU: 0x15BA90, offset: 0x15BA90, size: 0x8, addend: 0x0, symName: __ZNK5Eigen8internal16binary_evaluatorINS_13CwiseBinaryOpINS0_22scalar_conj_product_opIddEEKNS_9TransposeIKNS_5BlockIKNS_6MatrixIdLin1ELin1ELi0ELin1ELin1EEELi1ELin1ELb0EEEEEKNS6_IKNS6_IS9_Lin1ELi1ELb1EEELin1ELi1ELb1EEEEENS0_10IndexBasedESJ_ddE4Data4funcEv, symObjAddr: 0x17B70, symBinAddr: 0x100018420, symSize: 0x14 }
  - { offsetInCU: 0x15BAB6, offset: 0x15BAB6, size: 0x8, addend: 0x0, symName: __ZNK5Eigen8internal17mapbase_evaluatorINS_5BlockIKNS2_IKNS_6MatrixIdLin1ELin1ELi0ELin1ELin1EEELin1ELi1ELb1EEELin1ELi1ELb1EEENS3_IdLin1ELi1ELi0ELin1ELi1EEEE5coeffEll, symObjAddr: 0x17B84, symBinAddr: 0x100018434, symSize: 0x78 }
  - { offsetInCU: 0x15BAFA, offset: 0x15BAFA, size: 0x8, addend: 0x0, symName: __ZNK5Eigen8internal17mapbase_evaluatorINS_5BlockIKNS2_IKNS_6MatrixIdLin1ELin1ELi0ELin1ELin1EEELin1ELi1ELb1EEELin1ELi1ELb1EEENS3_IdLin1ELi1ELi0ELin1ELi1EEEE9colStrideEv, symObjAddr: 0x17BFC, symBinAddr: 0x1000184AC, symSize: 0x28 }
  - { offsetInCU: 0x15BB20, offset: 0x15BB20, size: 0x8, addend: 0x0, symName: __ZNK5Eigen8internal17mapbase_evaluatorINS_5BlockIKNS2_IKNS_6MatrixIdLin1ELin1ELi0ELin1ELin1EEELin1ELi1ELb1EEELin1ELi1ELb1EEENS3_IdLin1ELi1ELi0ELin1ELi1EEEE9rowStrideEv, symObjAddr: 0x17C24, symBinAddr: 0x1000184D4, symSize: 0x20 }
  - { offsetInCU: 0x15BB46, offset: 0x15BB46, size: 0x8, addend: 0x0, symName: __ZN5Eigen8internal15redux_evaluatorINS_13CwiseBinaryOpINS0_22scalar_conj_product_opIddEEKNS_9TransposeIKNS_5BlockIKNS_6MatrixIdLin1ELin1ELi0ELin1ELin1EEELi1ELin1ELb0EEEEEKNS6_IKNS6_IS9_Lin1ELi1ELb1EEELin1ELi1ELb1EEEEEED2Ev, symObjAddr: 0x17C44, symBinAddr: 0x1000184F4, symSize: 0x2C }
  - { offsetInCU: 0x15BB73, offset: 0x15BB73, size: 0x8, addend: 0x0, symName: __ZN5Eigen8internal9evaluatorINS_13CwiseBinaryOpINS0_22scalar_conj_product_opIddEEKNS_9TransposeIKNS_5BlockIKNS_6MatrixIdLin1ELin1ELi0ELin1ELin1EEELi1ELin1ELb0EEEEEKNS6_IKNS6_IS9_Lin1ELi1ELb1EEELin1ELi1ELb1EEEEEED2Ev, symObjAddr: 0x17C70, symBinAddr: 0x100018520, symSize: 0x2C }
  - { offsetInCU: 0x15BBA0, offset: 0x15BBA0, size: 0x8, addend: 0x0, symName: __ZN5Eigen8internal16binary_evaluatorINS_13CwiseBinaryOpINS0_22scalar_conj_product_opIddEEKNS_9TransposeIKNS_5BlockIKNS_6MatrixIdLin1ELin1ELi0ELin1ELin1EEELi1ELin1ELb0EEEEEKNS6_IKNS6_IS9_Lin1ELi1ELb1EEELin1ELi1ELb1EEEEENS0_10IndexBasedESJ_ddED2Ev, symObjAddr: 0x17C9C, symBinAddr: 0x10001854C, symSize: 0x34 }
  - { offsetInCU: 0x15BBCC, offset: 0x15BBCC, size: 0x8, addend: 0x0, symName: __ZN5Eigen8internal16binary_evaluatorINS_13CwiseBinaryOpINS0_22scalar_conj_product_opIddEEKNS_9TransposeIKNS_5BlockIKNS_6MatrixIdLin1ELin1ELi0ELin1ELin1EEELi1ELin1ELb0EEEEEKNS6_IKNS6_IS9_Lin1ELi1ELb1EEELin1ELi1ELb1EEEEENS0_10IndexBasedESJ_ddE4DataD1Ev, symObjAddr: 0x17CD0, symBinAddr: 0x100018580, symSize: 0x2C }
  - { offsetInCU: 0x15BBF9, offset: 0x15BBF9, size: 0x8, addend: 0x0, symName: __ZN5Eigen8internal16binary_evaluatorINS_13CwiseBinaryOpINS0_22scalar_conj_product_opIddEEKNS_9TransposeIKNS_5BlockIKNS_6MatrixIdLin1ELin1ELi0ELin1ELin1EEELi1ELin1ELb0EEEEEKNS6_IKNS6_IS9_Lin1ELi1ELb1EEELin1ELi1ELb1EEEEENS0_10IndexBasedESJ_ddE4DataD2Ev, symObjAddr: 0x17CFC, symBinAddr: 0x1000185AC, symSize: 0x3C }
  - { offsetInCU: 0x15BC26, offset: 0x15BC26, size: 0x8, addend: 0x0, symName: __ZN5Eigen8internal9evaluatorIKNS_5BlockIKNS2_IKNS_6MatrixIdLin1ELin1ELi0ELin1ELin1EEELin1ELi1ELb1EEELin1ELi1ELb1EEEED1Ev, symObjAddr: 0x17D38, symBinAddr: 0x1000185E8, symSize: 0x2C }
  - { offsetInCU: 0x15BC52, offset: 0x15BC52, size: 0x8, addend: 0x0, symName: __ZN5Eigen8internal9evaluatorIKNS_5BlockIKNS2_IKNS_6MatrixIdLin1ELin1ELi0ELin1ELin1EEELin1ELi1ELb1EEELin1ELi1ELb1EEEED2Ev, symObjAddr: 0x17D64, symBinAddr: 0x100018614, symSize: 0x2C }
  - { offsetInCU: 0x15BC7E, offset: 0x15BC7E, size: 0x8, addend: 0x0, symName: __ZN5Eigen8internal9evaluatorINS_5BlockIKNS2_IKNS_6MatrixIdLin1ELin1ELi0ELin1ELin1EEELin1ELi1ELb1EEELin1ELi1ELb1EEEED2Ev, symObjAddr: 0x17D90, symBinAddr: 0x100018640, symSize: 0x2C }
  - { offsetInCU: 0x15BCAB, offset: 0x15BCAB, size: 0x8, addend: 0x0, symName: __ZN5Eigen8internal15block_evaluatorIKNS_5BlockIKNS_6MatrixIdLin1ELin1ELi0ELin1ELin1EEELin1ELi1ELb1EEELin1ELi1ELb1ELb1EED2Ev, symObjAddr: 0x17DBC, symBinAddr: 0x10001866C, symSize: 0x2C }
  - { offsetInCU: 0x15BCD8, offset: 0x15BCD8, size: 0x8, addend: 0x0, symName: __ZN5Eigen5BlockIKNS0_IKNS_6MatrixIdLin1ELin1ELi0ELin1ELin1EEELin1ELi1ELb1EEELin1ELi1ELb1EEC1ERS5_l, symObjAddr: 0x17DE8, symBinAddr: 0x100018698, symSize: 0x3C }
  - { offsetInCU: 0x15BD1E, offset: 0x15BD1E, size: 0x8, addend: 0x0, symName: __ZN5Eigen5BlockIKNS0_IKNS_6MatrixIdLin1ELin1ELi0ELin1ELin1EEELin1ELi1ELb1EEELin1ELi1ELb1EEC2ERS5_l, symObjAddr: 0x17E24, symBinAddr: 0x1000186D4, symSize: 0xAC }
  - { offsetInCU: 0x15BD64, offset: 0x15BD64, size: 0x8, addend: 0x0, symName: __ZN5Eigen9BlockImplIKNS_5BlockIKNS_6MatrixIdLin1ELin1ELi0ELin1ELin1EEELin1ELi1ELb1EEELin1ELi1ELb1ENS_5DenseEEC2ERS6_l, symObjAddr: 0x17ED0, symBinAddr: 0x100018780, symSize: 0x3C }
  - { offsetInCU: 0x15BDAA, offset: 0x15BDAA, size: 0x8, addend: 0x0, symName: __ZN5Eigen8internal15BlockImpl_denseIKNS_5BlockIKNS_6MatrixIdLin1ELin1ELi0ELin1ELin1EEELin1ELi1ELb1EEELin1ELi1ELb1ELb1EEC2ERS7_l, symObjAddr: 0x17F0C, symBinAddr: 0x1000187BC, symSize: 0xB8 }
  - { offsetInCU: 0x15BDF2, offset: 0x15BDF2, size: 0x8, addend: 0x0, symName: __ZN5Eigen7MapBaseINS_5BlockIKNS1_IKNS_6MatrixIdLin1ELin1ELi0ELin1ELin1EEELin1ELi1ELb1EEELin1ELi1ELb1EEELi0EEC2EPKdll, symObjAddr: 0x17FC4, symBinAddr: 0x100018874, symSize: 0x11C }
  - { offsetInCU: 0x15BE46, offset: 0x15BE46, size: 0x8, addend: 0x0, symName: __ZN5Eigen8internal15BlockImpl_denseIKNS_5BlockIKNS_6MatrixIdLin1ELin1ELi0ELin1ELin1EEELin1ELi1ELb1EEELin1ELi1ELb1ELb1EE4initEv, symObjAddr: 0x180E0, symBinAddr: 0x100018990, symSize: 0x34 }
  - { offsetInCU: 0x15BE6C, offset: 0x15BE6C, size: 0x8, addend: 0x0, symName: __ZN5Eigen10MatrixBaseINS_5BlockIKNS1_IKNS_6MatrixIdLin1ELin1ELi0ELin1ELin1EEELin1ELi1ELb1EEELin1ELi1ELb1EEEEC2Ev, symObjAddr: 0x18114, symBinAddr: 0x1000189C4, symSize: 0x2C }
  - { offsetInCU: 0x15BE96, offset: 0x15BE96, size: 0x8, addend: 0x0, symName: __ZNK5Eigen7MapBaseINS_5BlockIKNS1_IKNS_6MatrixIdLin1ELin1ELi0ELin1ELin1EEELin1ELi1ELb1EEELin1ELi1ELb1EEELi0EE11checkSanityIS7_EEvNS_8internal9enable_ifIXeqsr8internal6traitsIT_EE9AlignmentLi0EEPvE4typeE, symObjAddr: 0x18140, symBinAddr: 0x1000189F0, symSize: 0x14 }
  - { offsetInCU: 0x15BED0, offset: 0x15BED0, size: 0x8, addend: 0x0, symName: __ZN5Eigen9DenseBaseINS_5BlockIKNS1_IKNS_6MatrixIdLin1ELin1ELi0ELin1ELin1EEELin1ELi1ELb1EEELin1ELi1ELb1EEEEC2Ev, symObjAddr: 0x18154, symBinAddr: 0x100018A04, symSize: 0x14 }
  - { offsetInCU: 0x15BEFA, offset: 0x15BEFA, size: 0x8, addend: 0x0, symName: __ZNK5Eigen15DenseCoeffsBaseINS_5BlockINS_6MatrixIdLin1ELin1ELi0ELin1ELin1EEELin1ELi1ELb1EEELi3EE9colStrideEv, symObjAddr: 0x18168, symBinAddr: 0x100018A18, symSize: 0x24 }
  - { offsetInCU: 0x15BF20, offset: 0x15BF20, size: 0x8, addend: 0x0, symName: __ZNK5Eigen15DenseCoeffsBaseINS_5BlockINS_6MatrixIdLin1ELin1ELi0ELin1ELin1EEELin1ELi1ELb1EEELi3EE9rowStrideEv, symObjAddr: 0x1818C, symBinAddr: 0x100018A3C, symSize: 0x24 }
  - { offsetInCU: 0x15BF46, offset: 0x15BF46, size: 0x8, addend: 0x0, symName: __ZNK5Eigen15DenseCoeffsBaseINS_5BlockINS_6MatrixIdLin1ELin1ELi0ELin1ELin1EEELin1ELi1ELb1EEELi3EE11outerStrideEv, symObjAddr: 0x181B0, symBinAddr: 0x100018A60, symSize: 0x38 }
  - { offsetInCU: 0x15BF6C, offset: 0x15BF6C, size: 0x8, addend: 0x0, symName: __ZNK5Eigen9EigenBaseINS_5BlockINS_6MatrixIdLin1ELin1ELi0ELin1ELin1EEELin1ELi1ELb1EEEE7derivedEv, symObjAddr: 0x181E8, symBinAddr: 0x100018A98, symSize: 0x14 }
  - { offsetInCU: 0x15BF92, offset: 0x15BF92, size: 0x8, addend: 0x0, symName: __ZNK5Eigen8internal15BlockImpl_denseINS_6MatrixIdLin1ELin1ELi0ELin1ELin1EEELin1ELi1ELb1ELb1EE11outerStrideEv, symObjAddr: 0x181FC, symBinAddr: 0x100018AAC, symSize: 0x28 }
  - { offsetInCU: 0x15BFB8, offset: 0x15BFB8, size: 0x8, addend: 0x0, symName: __ZNK5Eigen15DenseCoeffsBaseINS_5BlockINS_6MatrixIdLin1ELin1ELi0ELin1ELin1EEELin1ELi1ELb1EEELi3EE11innerStrideEv, symObjAddr: 0x18224, symBinAddr: 0x100018AD4, symSize: 0x28 }
  - { offsetInCU: 0x15BFDE, offset: 0x15BFDE, size: 0x8, addend: 0x0, symName: __ZNK5Eigen8internal15BlockImpl_denseINS_6MatrixIdLin1ELin1ELi0ELin1ELin1EEELin1ELi1ELb1ELb1EE11innerStrideEv, symObjAddr: 0x1824C, symBinAddr: 0x100018AFC, symSize: 0x28 }
  - { offsetInCU: 0x15C004, offset: 0x15C004, size: 0x8, addend: 0x0, symName: __ZN5Eigen8internal11blas_traitsINS_5BlockIKNS_6MatrixIdLin1ELin1ELi0ELin1ELin1EEELin1ELi1ELb1EEEE7extractERKS6_, symObjAddr: 0x18274, symBinAddr: 0x100018B24, symSize: 0x14 }
  - { offsetInCU: 0x15C028, offset: 0x15C028, size: 0x8, addend: 0x0, symName: __ZN5Eigen7MapBaseINS_5BlockINS_6MatrixIdLin1ELin1ELi0ELin1ELin1EEELin1ELi1ELb1EEELi1EE4dataEv, symObjAddr: 0x18288, symBinAddr: 0x100018B38, symSize: 0x18 }
  - { offsetInCU: 0x15C04E, offset: 0x15C04E, size: 0x8, addend: 0x0, symName: __ZN5Eigen8internal11blas_traitsINS_5BlockIKNS_6MatrixIdLin1ELin1ELi0ELin1ELin1EEELin1ELi1ELb1EEEE19extractScalarFactorERKS6_, symObjAddr: 0x182A0, symBinAddr: 0x100018B50, symSize: 0x14 }
  - { offsetInCU: 0x15C06E, offset: 0x15C06E, size: 0x8, addend: 0x0, symName: __ZN5Eigen5BlockINS_6MatrixIdLin1ELin1ELi0ELin1ELin1EEELi1ELin1ELb0EEC1ERS2_l, symObjAddr: 0x182B4, symBinAddr: 0x100018B64, symSize: 0x3C }
  - { offsetInCU: 0x15C0B4, offset: 0x15C0B4, size: 0x8, addend: 0x0, symName: __ZN5Eigen5BlockINS_6MatrixIdLin1ELin1ELi0ELin1ELin1EEELi1ELin1ELb0EEC2ERS2_l, symObjAddr: 0x182F0, symBinAddr: 0x100018BA0, symSize: 0xCC }
  - { offsetInCU: 0x15C0FA, offset: 0x15C0FA, size: 0x8, addend: 0x0, symName: __ZN5Eigen9BlockImplINS_6MatrixIdLin1ELin1ELi0ELin1ELin1EEELi1ELin1ELb0ENS_5DenseEEC2ERS2_l, symObjAddr: 0x183BC, symBinAddr: 0x100018C6C, symSize: 0x3C }
  - { offsetInCU: 0x15C140, offset: 0x15C140, size: 0x8, addend: 0x0, symName: __ZN5Eigen8internal15BlockImpl_denseINS_6MatrixIdLin1ELin1ELi0ELin1ELin1EEELi1ELin1ELb0ELb1EEC2ERS3_l, symObjAddr: 0x183F8, symBinAddr: 0x100018CA8, symSize: 0xAC }
  - { offsetInCU: 0x15C188, offset: 0x15C188, size: 0x8, addend: 0x0, symName: __ZN5Eigen7MapBaseINS_5BlockINS_6MatrixIdLin1ELin1ELi0ELin1ELin1EEELi1ELin1ELb0EEELi1EEC2EPdll, symObjAddr: 0x184A4, symBinAddr: 0x100018D54, symSize: 0x44 }
  - { offsetInCU: 0x15C1DF, offset: 0x15C1DF, size: 0x8, addend: 0x0, symName: __ZN5Eigen8internal15BlockImpl_denseINS_6MatrixIdLin1ELin1ELi0ELin1ELin1EEELi1ELin1ELb0ELb1EE4initEv, symObjAddr: 0x184E8, symBinAddr: 0x100018D98, symSize: 0x34 }
  - { offsetInCU: 0x15C205, offset: 0x15C205, size: 0x8, addend: 0x0, symName: __ZN5Eigen7MapBaseINS_5BlockINS_6MatrixIdLin1ELin1ELi0ELin1ELin1EEELi1ELin1ELb0EEELi0EEC2EPdll, symObjAddr: 0x1851C, symBinAddr: 0x100018DCC, symSize: 0x130 }
  - { offsetInCU: 0x15C259, offset: 0x15C259, size: 0x8, addend: 0x0, symName: __ZN5Eigen10MatrixBaseINS_5BlockINS_6MatrixIdLin1ELin1ELi0ELin1ELin1EEELi1ELin1ELb0EEEEC2Ev, symObjAddr: 0x1864C, symBinAddr: 0x100018EFC, symSize: 0x2C }
  - { offsetInCU: 0x15C283, offset: 0x15C283, size: 0x8, addend: 0x0, symName: __ZNK5Eigen7MapBaseINS_5BlockINS_6MatrixIdLin1ELin1ELi0ELin1ELin1EEELi1ELin1ELb0EEELi0EE11checkSanityIS4_EEvNS_8internal9enable_ifIXeqsr8internal6traitsIT_EE9AlignmentLi0EEPvE4typeE, symObjAddr: 0x18678, symBinAddr: 0x100018F28, symSize: 0x14 }
  - { offsetInCU: 0x15C2BD, offset: 0x15C2BD, size: 0x8, addend: 0x0, symName: __ZN5Eigen9DenseBaseINS_5BlockINS_6MatrixIdLin1ELin1ELi0ELin1ELin1EEELi1ELin1ELb0EEEEC2Ev, symObjAddr: 0x1868C, symBinAddr: 0x100018F3C, symSize: 0x14 }
  - { offsetInCU: 0x15C2E7, offset: 0x15C2E7, size: 0x8, addend: 0x0, symName: __ZNK5Eigen9DenseBaseINS_5BlockIKNS_6MatrixIdLin1ELin1ELi0ELin1ELin1EEELi1ELin1ELb0EEEE3rowEl, symObjAddr: 0x186A0, symBinAddr: 0x100018F50, symSize: 0x3C }
  - { offsetInCU: 0x15C31C, offset: 0x15C31C, size: 0x8, addend: 0x0, symName: __ZNK5Eigen9DenseBaseINS_5BlockIKNS1_IKNS_6MatrixIdLin1ELin1ELi0ELin1ELin1EEELi1ELin1ELb0EEELi1ELin1ELb1EEEE9conjugateEv, symObjAddr: 0x186DC, symBinAddr: 0x100018F8C, symSize: 0x24 }
  - { offsetInCU: 0x15C342, offset: 0x15C342, size: 0x8, addend: 0x0, symName: __ZNK5Eigen10MatrixBaseINS_5BlockIKNS1_IKNS_6MatrixIdLin1ELin1ELi0ELin1ELin1EEELi1ELin1ELb0EEELi1ELin1ELb1EEEE3dotINS1_IS4_Lin1ELi1ELb1EEEEENS_20ScalarBinaryOpTraitsIdNS_8internal6traitsIT_E6ScalarENSC_17scalar_product_opIdSG_EEE10ReturnTypeERKNS0_ISE_EE, symObjAddr: 0x18700, symBinAddr: 0x100018FB0, symSize: 0x80 }
  - { offsetInCU: 0x15C381, offset: 0x15C381, size: 0x8, addend: 0x0, symName: __ZN5Eigen7MapBaseINS_5BlockINS_6MatrixIdLin1ELin1ELi0ELin1ELin1EEELi1ELin1ELb0EEELi1EE8coeffRefEll, symObjAddr: 0x18780, symBinAddr: 0x100019030, symSize: 0x78 }
  - { offsetInCU: 0x15C3CF, offset: 0x15C3CF, size: 0x8, addend: 0x0, symName: __ZN5Eigen8internal19gemv_dense_selectorILi1ELi0ELb1EE3runINS_5BlockIKNS_6MatrixIdLin1ELin1ELi0ELin1ELin1EEELi1ELin1ELb0EEES6_NS4_IS6_Li1ELin1ELb0EEEEEvRKT_RKT0_RT1_RKNSG_6ScalarE, symObjAddr: 0x187F8, symBinAddr: 0x1000190A8, symSize: 0x70 }
  - { offsetInCU: 0x15C446, offset: 0x15C446, size: 0x8, addend: 0x0, symName: __ZN5Eigen5BlockIKNS0_IKNS_6MatrixIdLin1ELin1ELi0ELin1ELin1EEELi1ELin1ELb0EEELi1ELin1ELb1EEC1ERS5_l, symObjAddr: 0x18868, symBinAddr: 0x100019118, symSize: 0x3C }
  - { offsetInCU: 0x15C48C, offset: 0x15C48C, size: 0x8, addend: 0x0, symName: __ZN5Eigen5BlockIKNS0_IKNS_6MatrixIdLin1ELin1ELi0ELin1ELin1EEELi1ELin1ELb0EEELi1ELin1ELb1EEC2ERS5_l, symObjAddr: 0x188A4, symBinAddr: 0x100019154, symSize: 0xCC }
  - { offsetInCU: 0x15C4D2, offset: 0x15C4D2, size: 0x8, addend: 0x0, symName: __ZN5Eigen9BlockImplIKNS_5BlockIKNS_6MatrixIdLin1ELin1ELi0ELin1ELin1EEELi1ELin1ELb0EEELi1ELin1ELb1ENS_5DenseEEC2ERS6_l, symObjAddr: 0x18970, symBinAddr: 0x100019220, symSize: 0x3C }
  - { offsetInCU: 0x15C518, offset: 0x15C518, size: 0x8, addend: 0x0, symName: __ZN5Eigen8internal15BlockImpl_denseIKNS_5BlockIKNS_6MatrixIdLin1ELin1ELi0ELin1ELin1EEELi1ELin1ELb0EEELi1ELin1ELb1ELb1EEC2ERS7_l, symObjAddr: 0x189AC, symBinAddr: 0x10001925C, symSize: 0xB8 }
  - { offsetInCU: 0x15C560, offset: 0x15C560, size: 0x8, addend: 0x0, symName: __ZN5Eigen7MapBaseINS_5BlockIKNS1_IKNS_6MatrixIdLin1ELin1ELi0ELin1ELin1EEELi1ELin1ELb0EEELi1ELin1ELb1EEELi0EEC2EPKdll, symObjAddr: 0x18A64, symBinAddr: 0x100019314, symSize: 0x130 }
  - { offsetInCU: 0x15C5B4, offset: 0x15C5B4, size: 0x8, addend: 0x0, symName: __ZN5Eigen8internal15BlockImpl_denseIKNS_5BlockIKNS_6MatrixIdLin1ELin1ELi0ELin1ELin1EEELi1ELin1ELb0EEELi1ELin1ELb1ELb1EE4initEv, symObjAddr: 0x18B94, symBinAddr: 0x100019444, symSize: 0x34 }
  - { offsetInCU: 0x15C5DA, offset: 0x15C5DA, size: 0x8, addend: 0x0, symName: __ZN5Eigen10MatrixBaseINS_5BlockIKNS1_IKNS_6MatrixIdLin1ELin1ELi0ELin1ELin1EEELi1ELin1ELb0EEELi1ELin1ELb1EEEEC2Ev, symObjAddr: 0x18BC8, symBinAddr: 0x100019478, symSize: 0x2C }
  - { offsetInCU: 0x15C604, offset: 0x15C604, size: 0x8, addend: 0x0, symName: __ZNK5Eigen7MapBaseINS_5BlockIKNS1_IKNS_6MatrixIdLin1ELin1ELi0ELin1ELin1EEELi1ELin1ELb0EEELi1ELin1ELb1EEELi0EE11checkSanityIS7_EEvNS_8internal9enable_ifIXeqsr8internal6traitsIT_EE9AlignmentLi0EEPvE4typeE, symObjAddr: 0x18BF4, symBinAddr: 0x1000194A4, symSize: 0x14 }
  - { offsetInCU: 0x15C63E, offset: 0x15C63E, size: 0x8, addend: 0x0, symName: __ZN5Eigen9DenseBaseINS_5BlockIKNS1_IKNS_6MatrixIdLin1ELin1ELi0ELin1ELin1EEELi1ELin1ELb0EEELi1ELin1ELb1EEEEC2Ev, symObjAddr: 0x18C08, symBinAddr: 0x1000194B8, symSize: 0x14 }
  - { offsetInCU: 0x15C668, offset: 0x15C668, size: 0x8, addend: 0x0, symName: __ZNK5Eigen9EigenBaseINS_5BlockIKNS1_IKNS_6MatrixIdLin1ELin1ELi0ELin1ELin1EEELi1ELin1ELb0EEELi1ELin1ELb1EEEE7derivedEv, symObjAddr: 0x18C1C, symBinAddr: 0x1000194CC, symSize: 0x14 }
  - { offsetInCU: 0x15C68E, offset: 0x15C68E, size: 0x8, addend: 0x0, symName: __ZNK5Eigen9EigenBaseINS_5BlockIKNS1_IKNS_6MatrixIdLin1ELin1ELi0ELin1ELin1EEELi1ELin1ELb0EEELi1ELin1ELb1EEEE4sizeEv, symObjAddr: 0x18C30, symBinAddr: 0x1000194E0, symSize: 0x44 }
  - { offsetInCU: 0x15C6B4, offset: 0x15C6B4, size: 0x8, addend: 0x0, symName: __ZNK5Eigen9EigenBaseINS_5BlockIKNS_6MatrixIdLin1ELin1ELi0ELin1ELin1EEELin1ELi1ELb1EEEE4sizeEv, symObjAddr: 0x18C74, symBinAddr: 0x100019524, symSize: 0x44 }
  - { offsetInCU: 0x15C6DA, offset: 0x15C6DA, size: 0x8, addend: 0x0, symName: __ZN5Eigen8internal11dot_nocheckINS_5BlockIKNS2_IKNS_6MatrixIdLin1ELin1ELi0ELin1ELin1EEELi1ELin1ELb0EEELi1ELin1ELb1EEENS2_IS5_Lin1ELi1ELb1EEELb1EE3runERKNS_10MatrixBaseIS8_EERKNSB_IS9_EE, symObjAddr: 0x18CB8, symBinAddr: 0x100019568, symSize: 0x78 }
  - { offsetInCU: 0x15C70B, offset: 0x15C70B, size: 0x8, addend: 0x0, symName: __ZNK5Eigen9EigenBaseINS_5BlockIKNS1_IKNS_6MatrixIdLin1ELin1ELi0ELin1ELin1EEELi1ELin1ELb0EEELi1ELin1ELb1EEEE4rowsEv, symObjAddr: 0x18D30, symBinAddr: 0x1000195E0, symSize: 0x28 }
  - { offsetInCU: 0x15C731, offset: 0x15C731, size: 0x8, addend: 0x0, symName: __ZNK5Eigen9EigenBaseINS_5BlockIKNS1_IKNS_6MatrixIdLin1ELin1ELi0ELin1ELin1EEELi1ELin1ELb0EEELi1ELin1ELb1EEEE4colsEv, symObjAddr: 0x18D58, symBinAddr: 0x100019608, symSize: 0x28 }
  - { offsetInCU: 0x15C757, offset: 0x15C757, size: 0x8, addend: 0x0, symName: __ZNK5Eigen7MapBaseINS_5BlockIKNS1_IKNS_6MatrixIdLin1ELin1ELi0ELin1ELin1EEELi1ELin1ELb0EEELi1ELin1ELb1EEELi0EE4rowsEv, symObjAddr: 0x18D80, symBinAddr: 0x100019630, symSize: 0x20 }
  - { offsetInCU: 0x15C77D, offset: 0x15C77D, size: 0x8, addend: 0x0, symName: __ZNK5Eigen7MapBaseINS_5BlockIKNS1_IKNS_6MatrixIdLin1ELin1ELi0ELin1ELin1EEELi1ELin1ELb0EEELi1ELin1ELb1EEELi0EE4colsEv, symObjAddr: 0x18DA0, symBinAddr: 0x100019650, symSize: 0x28 }
  - { offsetInCU: 0x15C7A3, offset: 0x15C7A3, size: 0x8, addend: 0x0, symName: __ZNK5Eigen9EigenBaseINS_5BlockIKNS_6MatrixIdLin1ELin1ELi0ELin1ELin1EEELin1ELi1ELb1EEEE4rowsEv, symObjAddr: 0x18DC8, symBinAddr: 0x100019678, symSize: 0x28 }
  - { offsetInCU: 0x15C7C9, offset: 0x15C7C9, size: 0x8, addend: 0x0, symName: __ZNK5Eigen9EigenBaseINS_5BlockIKNS_6MatrixIdLin1ELin1ELi0ELin1ELin1EEELin1ELi1ELb1EEEE4colsEv, symObjAddr: 0x18DF0, symBinAddr: 0x1000196A0, symSize: 0x28 }
  - { offsetInCU: 0x15C7EF, offset: 0x15C7EF, size: 0x8, addend: 0x0, symName: __ZNK5Eigen9DenseBaseINS_5BlockIKNS1_IKNS_6MatrixIdLin1ELin1ELi0ELin1ELin1EEELi1ELin1ELb0EEELi1ELin1ELb1EEEE9transposeEv, symObjAddr: 0x18E18, symBinAddr: 0x1000196C8, symSize: 0x34 }
  - { offsetInCU: 0x15C817, offset: 0x15C817, size: 0x8, addend: 0x0, symName: __ZNK5Eigen10MatrixBaseINS_9TransposeIKNS_5BlockIKNS2_IKNS_6MatrixIdLin1ELin1ELi0ELin1ELin1EEELi1ELin1ELb0EEELi1ELin1ELb1EEEEEE10binaryExprINS_8internal22scalar_conj_product_opIddEENS2_IS5_Lin1ELi1ELb1EEEEEKNS_13CwiseBinaryOpIT_KSA_KT0_EERKNS0_ISK_EERKSI_, symObjAddr: 0x18E4C, symBinAddr: 0x1000196FC, symSize: 0x54 }
  - { offsetInCU: 0x15C86B, offset: 0x15C86B, size: 0x8, addend: 0x0, symName: __ZNK5Eigen9DenseBaseINS_13CwiseBinaryOpINS_8internal22scalar_conj_product_opIddEEKNS_9TransposeIKNS_5BlockIKNS6_IKNS_6MatrixIdLin1ELin1ELi0ELin1ELin1EEELi1ELin1ELb0EEELi1ELin1ELb1EEEEEKNS6_IS9_Lin1ELi1ELb1EEEEEE3sumEv, symObjAddr: 0x18EA0, symBinAddr: 0x100019750, symSize: 0x74 }
  - { offsetInCU: 0x15C894, offset: 0x15C894, size: 0x8, addend: 0x0, symName: __ZN5Eigen9TransposeIKNS_5BlockIKNS1_IKNS_6MatrixIdLin1ELin1ELi0ELin1ELin1EEELi1ELin1ELb0EEELi1ELin1ELb1EEEEC1ERS8_, symObjAddr: 0x18F14, symBinAddr: 0x1000197C4, symSize: 0x34 }
  - { offsetInCU: 0x15C8CC, offset: 0x15C8CC, size: 0x8, addend: 0x0, symName: __ZN5Eigen9TransposeIKNS_5BlockIKNS1_IKNS_6MatrixIdLin1ELin1ELi0ELin1ELin1EEELi1ELin1ELb0EEELi1ELin1ELb1EEEEC2ERS8_, symObjAddr: 0x18F48, symBinAddr: 0x1000197F8, symSize: 0x40 }
  - { offsetInCU: 0x15C904, offset: 0x15C904, size: 0x8, addend: 0x0, symName: __ZN5Eigen13TransposeImplIKNS_5BlockIKNS1_IKNS_6MatrixIdLin1ELin1ELi0ELin1ELin1EEELi1ELin1ELb0EEELi1ELin1ELb1EEENS_5DenseEEC2Ev, symObjAddr: 0x18F88, symBinAddr: 0x100019838, symSize: 0x2C }
  - { offsetInCU: 0x15C92E, offset: 0x15C92E, size: 0x8, addend: 0x0, symName: __ZN5Eigen10MatrixBaseINS_9TransposeIKNS_5BlockIKNS2_IKNS_6MatrixIdLin1ELin1ELi0ELin1ELin1EEELi1ELin1ELb0EEELi1ELin1ELb1EEEEEEC2Ev, symObjAddr: 0x18FB4, symBinAddr: 0x100019864, symSize: 0x2C }
  - { offsetInCU: 0x15C958, offset: 0x15C958, size: 0x8, addend: 0x0, symName: __ZN5Eigen9DenseBaseINS_9TransposeIKNS_5BlockIKNS2_IKNS_6MatrixIdLin1ELin1ELi0ELin1ELin1EEELi1ELin1ELb0EEELi1ELin1ELb1EEEEEEC2Ev, symObjAddr: 0x18FE0, symBinAddr: 0x100019890, symSize: 0x14 }
  - { offsetInCU: 0x15C982, offset: 0x15C982, size: 0x8, addend: 0x0, symName: __ZNK5Eigen9EigenBaseINS_9TransposeIKNS_5BlockIKNS2_IKNS_6MatrixIdLin1ELin1ELi0ELin1ELin1EEELi1ELin1ELb0EEELi1ELin1ELb1EEEEEE7derivedEv, symObjAddr: 0x18FF4, symBinAddr: 0x1000198A4, symSize: 0x14 }
  - { offsetInCU: 0x15C9A8, offset: 0x15C9A8, size: 0x8, addend: 0x0, symName: __ZN5Eigen13CwiseBinaryOpINS_8internal22scalar_conj_product_opIddEEKNS_9TransposeIKNS_5BlockIKNS5_IKNS_6MatrixIdLin1ELin1ELi0ELin1ELin1EEELi1ELin1ELb0EEELi1ELin1ELb1EEEEEKNS5_IS8_Lin1ELi1ELb1EEEEC1ERSE_RSG_RKS3_, symObjAddr: 0x19008, symBinAddr: 0x1000198B8, symSize: 0x44 }
  - { offsetInCU: 0x15C9FC, offset: 0x15C9FC, size: 0x8, addend: 0x0, symName: __ZN5Eigen13CwiseBinaryOpINS_8internal22scalar_conj_product_opIddEEKNS_9TransposeIKNS_5BlockIKNS5_IKNS_6MatrixIdLin1ELin1ELi0ELin1ELin1EEELi1ELin1ELb0EEELi1ELin1ELb1EEEEEKNS5_IS8_Lin1ELi1ELb1EEEEC2ERSE_RSG_RKS3_, symObjAddr: 0x1904C, symBinAddr: 0x1000198FC, symSize: 0x100 }
  - { offsetInCU: 0x15CA55, offset: 0x15CA55, size: 0x8, addend: 0x0, symName: __ZN5Eigen17CwiseBinaryOpImplINS_8internal22scalar_conj_product_opIddEEKNS_9TransposeIKNS_5BlockIKNS5_IKNS_6MatrixIdLin1ELin1ELi0ELin1ELin1EEELi1ELin1ELb0EEELi1ELin1ELb1EEEEEKNS5_IS8_Lin1ELi1ELb1EEENS_5DenseEEC2Ev, symObjAddr: 0x1914C, symBinAddr: 0x1000199FC, symSize: 0x2C }
  - { offsetInCU: 0x15CA81, offset: 0x15CA81, size: 0x8, addend: 0x0, symName: __ZNK5Eigen9TransposeIKNS_5BlockIKNS1_IKNS_6MatrixIdLin1ELin1ELi0ELin1ELin1EEELi1ELin1ELb0EEELi1ELin1ELb1EEEE4rowsEv, symObjAddr: 0x19178, symBinAddr: 0x100019A28, symSize: 0x24 }
  - { offsetInCU: 0x15CAA7, offset: 0x15CAA7, size: 0x8, addend: 0x0, symName: __ZNK5Eigen9TransposeIKNS_5BlockIKNS1_IKNS_6MatrixIdLin1ELin1ELi0ELin1ELin1EEELi1ELin1ELb0EEELi1ELin1ELb1EEEE4colsEv, symObjAddr: 0x1919C, symBinAddr: 0x100019A4C, symSize: 0x24 }
  - { offsetInCU: 0x15CACD, offset: 0x15CACD, size: 0x8, addend: 0x0, symName: __ZN5Eigen10MatrixBaseINS_13CwiseBinaryOpINS_8internal22scalar_conj_product_opIddEEKNS_9TransposeIKNS_5BlockIKNS6_IKNS_6MatrixIdLin1ELin1ELi0ELin1ELin1EEELi1ELin1ELb0EEELi1ELin1ELb1EEEEEKNS6_IS9_Lin1ELi1ELb1EEEEEEC2Ev, symObjAddr: 0x191C0, symBinAddr: 0x100019A70, symSize: 0x2C }
  - { offsetInCU: 0x15CAF7, offset: 0x15CAF7, size: 0x8, addend: 0x0, symName: __ZN5Eigen9DenseBaseINS_13CwiseBinaryOpINS_8internal22scalar_conj_product_opIddEEKNS_9TransposeIKNS_5BlockIKNS6_IKNS_6MatrixIdLin1ELin1ELi0ELin1ELin1EEELi1ELin1ELb0EEELi1ELin1ELb1EEEEEKNS6_IS9_Lin1ELi1ELb1EEEEEEC2Ev, symObjAddr: 0x191EC, symBinAddr: 0x100019A9C, symSize: 0x14 }
  - { offsetInCU: 0x15CB21, offset: 0x15CB21, size: 0x8, addend: 0x0, symName: __ZNK5Eigen9EigenBaseINS_13CwiseBinaryOpINS_8internal22scalar_conj_product_opIddEEKNS_9TransposeIKNS_5BlockIKNS6_IKNS_6MatrixIdLin1ELin1ELi0ELin1ELin1EEELi1ELin1ELb0EEELi1ELin1ELb1EEEEEKNS6_IS9_Lin1ELi1ELb1EEEEEE4sizeEv, symObjAddr: 0x19200, symBinAddr: 0x100019AB0, symSize: 0x44 }
  - { offsetInCU: 0x15CB47, offset: 0x15CB47, size: 0x8, addend: 0x0, symName: __ZNK5Eigen9EigenBaseINS_13CwiseBinaryOpINS_8internal22scalar_conj_product_opIddEEKNS_9TransposeIKNS_5BlockIKNS6_IKNS_6MatrixIdLin1ELin1ELi0ELin1ELin1EEELi1ELin1ELb0EEELi1ELin1ELb1EEEEEKNS6_IS9_Lin1ELi1ELb1EEEEEE7derivedEv, symObjAddr: 0x19244, symBinAddr: 0x100019AF4, symSize: 0x14 }
  - { offsetInCU: 0x15CB6D, offset: 0x15CB6D, size: 0x8, addend: 0x0, symName: __ZNK5Eigen9DenseBaseINS_13CwiseBinaryOpINS_8internal22scalar_conj_product_opIddEEKNS_9TransposeIKNS_5BlockIKNS6_IKNS_6MatrixIdLin1ELin1ELi0ELin1ELin1EEELi1ELin1ELb0EEELi1ELin1ELb1EEEEEKNS6_IS9_Lin1ELi1ELb1EEEEEE5reduxINS2_13scalar_sum_opIddEEEEdRKT_, symObjAddr: 0x19258, symBinAddr: 0x100019B08, symSize: 0x10C }
  - { offsetInCU: 0x15CBC9, offset: 0x15CBC9, size: 0x8, addend: 0x0, symName: __ZNK5Eigen9EigenBaseINS_13CwiseBinaryOpINS_8internal22scalar_conj_product_opIddEEKNS_9TransposeIKNS_5BlockIKNS6_IKNS_6MatrixIdLin1ELin1ELi0ELin1ELin1EEELi1ELin1ELb0EEELi1ELin1ELb1EEEEEKNS6_IS9_Lin1ELi1ELb1EEEEEE4rowsEv, symObjAddr: 0x19364, symBinAddr: 0x100019C14, symSize: 0x38 }
  - { offsetInCU: 0x15CBEF, offset: 0x15CBEF, size: 0x8, addend: 0x0, symName: __ZNK5Eigen9EigenBaseINS_13CwiseBinaryOpINS_8internal22scalar_conj_product_opIddEEKNS_9TransposeIKNS_5BlockIKNS6_IKNS_6MatrixIdLin1ELin1ELi0ELin1ELin1EEELi1ELin1ELb0EEELi1ELin1ELb1EEEEEKNS6_IS9_Lin1ELi1ELb1EEEEEE4colsEv, symObjAddr: 0x1939C, symBinAddr: 0x100019C4C, symSize: 0x38 }
  - { offsetInCU: 0x15CC15, offset: 0x15CC15, size: 0x8, addend: 0x0, symName: __ZNK5Eigen13CwiseBinaryOpINS_8internal22scalar_conj_product_opIddEEKNS_9TransposeIKNS_5BlockIKNS5_IKNS_6MatrixIdLin1ELin1ELi0ELin1ELin1EEELi1ELin1ELb0EEELi1ELin1ELb1EEEEEKNS5_IS8_Lin1ELi1ELb1EEEE4rowsEv, symObjAddr: 0x193D4, symBinAddr: 0x100019C84, symSize: 0x28 }
  - { offsetInCU: 0x15CC3B, offset: 0x15CC3B, size: 0x8, addend: 0x0, symName: __ZNK5Eigen13CwiseBinaryOpINS_8internal22scalar_conj_product_opIddEEKNS_9TransposeIKNS_5BlockIKNS5_IKNS_6MatrixIdLin1ELin1ELi0ELin1ELin1EEELi1ELin1ELb0EEELi1ELin1ELb1EEEEEKNS5_IS8_Lin1ELi1ELb1EEEE4colsEv, symObjAddr: 0x193FC, symBinAddr: 0x100019CAC, symSize: 0x24 }
  - { offsetInCU: 0x15CD1F, offset: 0x15CD1F, size: 0x8, addend: 0x0, symName: __ZN5Eigen8internal15redux_evaluatorINS_13CwiseBinaryOpINS0_22scalar_conj_product_opIddEEKNS_9TransposeIKNS_5BlockIKNS6_IKNS_6MatrixIdLin1ELin1ELi0ELin1ELin1EEELi1ELin1ELb0EEELi1ELin1ELb1EEEEEKNS6_IS9_Lin1ELi1ELb1EEEEEEC1ERKSI_, symObjAddr: 0x19420, symBinAddr: 0x100019CD0, symSize: 0x34 }
  - { offsetInCU: 0x15CD5D, offset: 0x15CD5D, size: 0x8, addend: 0x0, symName: __ZN5Eigen8internal10redux_implINS0_13scalar_sum_opIddEENS0_15redux_evaluatorINS_13CwiseBinaryOpINS0_22scalar_conj_product_opIddEEKNS_9TransposeIKNS_5BlockIKNS9_IKNS_6MatrixIdLin1ELin1ELi0ELin1ELin1EEELi1ELin1ELb0EEELi1ELin1ELb1EEEEEKNS9_ISC_Lin1ELi1ELb1EEEEEEELi0ELi0EE3runISL_EEdRKSM_RKS3_RKT_, symObjAddr: 0x19454, symBinAddr: 0x100019D04, symSize: 0x1E0 }
  - { offsetInCU: 0x15CE08, offset: 0x15CE08, size: 0x8, addend: 0x0, symName: __ZN5Eigen8internal15redux_evaluatorINS_13CwiseBinaryOpINS0_22scalar_conj_product_opIddEEKNS_9TransposeIKNS_5BlockIKNS6_IKNS_6MatrixIdLin1ELin1ELi0ELin1ELin1EEELi1ELin1ELb0EEELi1ELin1ELb1EEEEEKNS6_IS9_Lin1ELi1ELb1EEEEEED1Ev, symObjAddr: 0x19634, symBinAddr: 0x100019EE4, symSize: 0x2C }
  - { offsetInCU: 0x15CE35, offset: 0x15CE35, size: 0x8, addend: 0x0, symName: __ZN5Eigen8internal15redux_evaluatorINS_13CwiseBinaryOpINS0_22scalar_conj_product_opIddEEKNS_9TransposeIKNS_5BlockIKNS6_IKNS_6MatrixIdLin1ELin1ELi0ELin1ELin1EEELi1ELin1ELb0EEELi1ELin1ELb1EEEEEKNS6_IS9_Lin1ELi1ELb1EEEEEEC2ERKSI_, symObjAddr: 0x19660, symBinAddr: 0x100019F10, symSize: 0x34 }
  - { offsetInCU: 0x15CE6E, offset: 0x15CE6E, size: 0x8, addend: 0x0, symName: __ZN5Eigen8internal9evaluatorINS_13CwiseBinaryOpINS0_22scalar_conj_product_opIddEEKNS_9TransposeIKNS_5BlockIKNS6_IKNS_6MatrixIdLin1ELin1ELi0ELin1ELin1EEELi1ELin1ELb0EEELi1ELin1ELb1EEEEEKNS6_IS9_Lin1ELi1ELb1EEEEEEC2ERKSI_, symObjAddr: 0x19694, symBinAddr: 0x100019F44, symSize: 0x34 }
  - { offsetInCU: 0x15CEA7, offset: 0x15CEA7, size: 0x8, addend: 0x0, symName: __ZN5Eigen8internal16binary_evaluatorINS_13CwiseBinaryOpINS0_22scalar_conj_product_opIddEEKNS_9TransposeIKNS_5BlockIKNS6_IKNS_6MatrixIdLin1ELin1ELi0ELin1ELin1EEELi1ELin1ELb0EEELi1ELin1ELb1EEEEEKNS6_IS9_Lin1ELi1ELb1EEEEENS0_10IndexBasedESJ_ddEC2ERKSI_, symObjAddr: 0x196C8, symBinAddr: 0x100019F78, symSize: 0x64 }
  - { offsetInCU: 0x15CEE0, offset: 0x15CEE0, size: 0x8, addend: 0x0, symName: __ZN5Eigen8internal14evaluator_baseINS_13CwiseBinaryOpINS0_22scalar_conj_product_opIddEEKNS_9TransposeIKNS_5BlockIKNS6_IKNS_6MatrixIdLin1ELin1ELi0ELin1ELin1EEELi1ELin1ELb0EEELi1ELin1ELb1EEEEEKNS6_IS9_Lin1ELi1ELb1EEEEEEC2Ev, symObjAddr: 0x1972C, symBinAddr: 0x100019FDC, symSize: 0x14 }
  - { offsetInCU: 0x15CF0A, offset: 0x15CF0A, size: 0x8, addend: 0x0, symName: __ZN5Eigen8internal16binary_evaluatorINS_13CwiseBinaryOpINS0_22scalar_conj_product_opIddEEKNS_9TransposeIKNS_5BlockIKNS6_IKNS_6MatrixIdLin1ELin1ELi0ELin1ELin1EEELi1ELin1ELb0EEELi1ELin1ELb1EEEEEKNS6_IS9_Lin1ELi1ELb1EEEEENS0_10IndexBasedESJ_ddE4DataC1ERKSI_, symObjAddr: 0x19740, symBinAddr: 0x100019FF0, symSize: 0x34 }
  - { offsetInCU: 0x15CF43, offset: 0x15CF43, size: 0x8, addend: 0x0, symName: __ZN5Eigen8internal14evaluator_baseINS_13CwiseBinaryOpINS0_22scalar_conj_product_opIddEEKNS_9TransposeIKNS_5BlockIKNS6_IKNS_6MatrixIdLin1ELin1ELi0ELin1ELin1EEELi1ELin1ELb0EEELi1ELin1ELb1EEEEEKNS6_IS9_Lin1ELi1ELb1EEEEEED2Ev, symObjAddr: 0x19774, symBinAddr: 0x10001A024, symSize: 0x14 }
  - { offsetInCU: 0x15CF6D, offset: 0x15CF6D, size: 0x8, addend: 0x0, symName: __ZN5Eigen8internal16binary_evaluatorINS_13CwiseBinaryOpINS0_22scalar_conj_product_opIddEEKNS_9TransposeIKNS_5BlockIKNS6_IKNS_6MatrixIdLin1ELin1ELi0ELin1ELin1EEELi1ELin1ELb0EEELi1ELin1ELb1EEEEEKNS6_IS9_Lin1ELi1ELb1EEEEENS0_10IndexBasedESJ_ddE4DataC2ERKSI_, symObjAddr: 0x19788, symBinAddr: 0x10001A038, symSize: 0xA8 }
  - { offsetInCU: 0x15CFA6, offset: 0x15CFA6, size: 0x8, addend: 0x0, symName: __ZNK5Eigen13CwiseBinaryOpINS_8internal22scalar_conj_product_opIddEEKNS_9TransposeIKNS_5BlockIKNS5_IKNS_6MatrixIdLin1ELin1ELi0ELin1ELin1EEELi1ELin1ELb0EEELi1ELin1ELb1EEEEEKNS5_IS8_Lin1ELi1ELb1EEEE7functorEv, symObjAddr: 0x19830, symBinAddr: 0x10001A0E0, symSize: 0x18 }
  - { offsetInCU: 0x15CFCC, offset: 0x15CFCC, size: 0x8, addend: 0x0, symName: __ZNK5Eigen13CwiseBinaryOpINS_8internal22scalar_conj_product_opIddEEKNS_9TransposeIKNS_5BlockIKNS5_IKNS_6MatrixIdLin1ELin1ELi0ELin1ELin1EEELi1ELin1ELb0EEELi1ELin1ELb1EEEEEKNS5_IS8_Lin1ELi1ELb1EEEE3lhsEv, symObjAddr: 0x19848, symBinAddr: 0x10001A0F8, symSize: 0x14 }
  - { offsetInCU: 0x15CFF2, offset: 0x15CFF2, size: 0x8, addend: 0x0, symName: __ZN5Eigen8internal9evaluatorIKNS_9TransposeIKNS_5BlockIKNS3_IKNS_6MatrixIdLin1ELin1ELi0ELin1ELin1EEELi1ELin1ELb0EEELi1ELin1ELb1EEEEEEC1ERSC_, symObjAddr: 0x1985C, symBinAddr: 0x10001A10C, symSize: 0x34 }
  - { offsetInCU: 0x15D02A, offset: 0x15D02A, size: 0x8, addend: 0x0, symName: __ZNK5Eigen13CwiseBinaryOpINS_8internal22scalar_conj_product_opIddEEKNS_9TransposeIKNS_5BlockIKNS5_IKNS_6MatrixIdLin1ELin1ELi0ELin1ELin1EEELi1ELin1ELb0EEELi1ELin1ELb1EEEEEKNS5_IS8_Lin1ELi1ELb1EEEE3rhsEv, symObjAddr: 0x19890, symBinAddr: 0x10001A140, symSize: 0x18 }
  - { offsetInCU: 0x15D050, offset: 0x15D050, size: 0x8, addend: 0x0, symName: __ZN5Eigen8internal9evaluatorIKNS_9TransposeIKNS_5BlockIKNS3_IKNS_6MatrixIdLin1ELin1ELi0ELin1ELin1EEELi1ELin1ELb0EEELi1ELin1ELb1EEEEEED1Ev, symObjAddr: 0x198A8, symBinAddr: 0x10001A158, symSize: 0x2C }
  - { offsetInCU: 0x15D07C, offset: 0x15D07C, size: 0x8, addend: 0x0, symName: __ZN5Eigen8internal9evaluatorIKNS_9TransposeIKNS_5BlockIKNS3_IKNS_6MatrixIdLin1ELin1ELi0ELin1ELin1EEELi1ELin1ELb0EEELi1ELin1ELb1EEEEEEC2ERSC_, symObjAddr: 0x198D4, symBinAddr: 0x10001A184, symSize: 0x34 }
  - { offsetInCU: 0x15D0B4, offset: 0x15D0B4, size: 0x8, addend: 0x0, symName: __ZN5Eigen8internal9evaluatorINS_9TransposeIKNS_5BlockIKNS3_IKNS_6MatrixIdLin1ELin1ELi0ELin1ELin1EEELi1ELin1ELb0EEELi1ELin1ELb1EEEEEEC2ERKSB_, symObjAddr: 0x19908, symBinAddr: 0x10001A1B8, symSize: 0x34 }
  - { offsetInCU: 0x15D0EC, offset: 0x15D0EC, size: 0x8, addend: 0x0, symName: __ZN5Eigen8internal15unary_evaluatorINS_9TransposeIKNS_5BlockIKNS3_IKNS_6MatrixIdLin1ELin1ELi0ELin1ELin1EEELi1ELin1ELb0EEELi1ELin1ELb1EEEEENS0_10IndexBasedEdEC2ERKSB_, symObjAddr: 0x1993C, symBinAddr: 0x10001A1EC, symSize: 0x74 }
  - { offsetInCU: 0x15D125, offset: 0x15D125, size: 0x8, addend: 0x0, symName: __ZN5Eigen8internal14evaluator_baseINS_9TransposeIKNS_5BlockIKNS3_IKNS_6MatrixIdLin1ELin1ELi0ELin1ELin1EEELi1ELin1ELb0EEELi1ELin1ELb1EEEEEEC2Ev, symObjAddr: 0x199B0, symBinAddr: 0x10001A260, symSize: 0x14 }
  - { offsetInCU: 0x15D14F, offset: 0x15D14F, size: 0x8, addend: 0x0, symName: __ZNK5Eigen9TransposeIKNS_5BlockIKNS1_IKNS_6MatrixIdLin1ELin1ELi0ELin1ELin1EEELi1ELin1ELb0EEELi1ELin1ELb1EEEE16nestedExpressionEv, symObjAddr: 0x199C4, symBinAddr: 0x10001A274, symSize: 0x14 }
  - { offsetInCU: 0x15D175, offset: 0x15D175, size: 0x8, addend: 0x0, symName: __ZN5Eigen8internal9evaluatorIKNS_5BlockIKNS2_IKNS_6MatrixIdLin1ELin1ELi0ELin1ELin1EEELi1ELin1ELb0EEELi1ELin1ELb1EEEEC1ERS9_, symObjAddr: 0x199D8, symBinAddr: 0x10001A288, symSize: 0x34 }
  - { offsetInCU: 0x15D1AD, offset: 0x15D1AD, size: 0x8, addend: 0x0, symName: __ZN5Eigen8internal14evaluator_baseINS_9TransposeIKNS_5BlockIKNS3_IKNS_6MatrixIdLin1ELin1ELi0ELin1ELin1EEELi1ELin1ELb0EEELi1ELin1ELb1EEEEEED2Ev, symObjAddr: 0x19A0C, symBinAddr: 0x10001A2BC, symSize: 0x14 }
  - { offsetInCU: 0x15D1D7, offset: 0x15D1D7, size: 0x8, addend: 0x0, symName: __ZN5Eigen8internal9evaluatorIKNS_5BlockIKNS2_IKNS_6MatrixIdLin1ELin1ELi0ELin1ELin1EEELi1ELin1ELb0EEELi1ELin1ELb1EEEEC2ERS9_, symObjAddr: 0x19A20, symBinAddr: 0x10001A2D0, symSize: 0x34 }
  - { offsetInCU: 0x15D20F, offset: 0x15D20F, size: 0x8, addend: 0x0, symName: __ZN5Eigen8internal9evaluatorINS_5BlockIKNS2_IKNS_6MatrixIdLin1ELin1ELi0ELin1ELin1EEELi1ELin1ELb0EEELi1ELin1ELb1EEEEC2ERKS8_, symObjAddr: 0x19A54, symBinAddr: 0x10001A304, symSize: 0x34 }
  - { offsetInCU: 0x15D248, offset: 0x15D248, size: 0x8, addend: 0x0, symName: __ZN5Eigen8internal15block_evaluatorIKNS_5BlockIKNS_6MatrixIdLin1ELin1ELi0ELin1ELin1EEELi1ELin1ELb0EEELi1ELin1ELb1ELb1EEC2ERKNS2_IS7_Li1ELin1ELb1EEE, symObjAddr: 0x19A88, symBinAddr: 0x10001A338, symSize: 0xDC }
  - { offsetInCU: 0x15D281, offset: 0x15D281, size: 0x8, addend: 0x0, symName: __ZN5Eigen8internal17mapbase_evaluatorINS_5BlockIKNS2_IKNS_6MatrixIdLin1ELin1ELi0ELin1ELin1EEELi1ELin1ELb0EEELi1ELin1ELb1EEENS3_IdLi1ELin1ELi1ELi1ELin1EEEEC2ERKS8_, symObjAddr: 0x19B64, symBinAddr: 0x10001A414, symSize: 0xB0 }
  - { offsetInCU: 0x15D2BA, offset: 0x15D2BA, size: 0x8, addend: 0x0, symName: __ZNK5Eigen7MapBaseINS_5BlockIKNS1_IKNS_6MatrixIdLin1ELin1ELi0ELin1ELin1EEELi1ELin1ELb0EEELi1ELin1ELb1EEELi0EE4dataEv, symObjAddr: 0x19C14, symBinAddr: 0x10001A4C4, symSize: 0x18 }
  - { offsetInCU: 0x15D2E0, offset: 0x15D2E0, size: 0x8, addend: 0x0, symName: __ZN5Eigen8internal17mapbase_evaluatorINS_5BlockIKNS2_IKNS_6MatrixIdLin1ELin1ELi0ELin1ELin1EEELi1ELin1ELb0EEELi1ELin1ELb1EEENS3_IdLi1ELin1ELi1ELi1ELin1EEEED2Ev, symObjAddr: 0x19C2C, symBinAddr: 0x10001A4DC, symSize: 0x2C }
  - { offsetInCU: 0x15D30D, offset: 0x15D30D, size: 0x8, addend: 0x0, symName: __ZN5Eigen8internal14evaluator_baseINS_5BlockIKNS2_IKNS_6MatrixIdLin1ELin1ELi0ELin1ELin1EEELi1ELin1ELb0EEELi1ELin1ELb1EEEEC2Ev, symObjAddr: 0x19C58, symBinAddr: 0x10001A508, symSize: 0x14 }
  - { offsetInCU: 0x15D337, offset: 0x15D337, size: 0x8, addend: 0x0, symName: __ZNK5Eigen8internal15BlockImpl_denseIKNS_5BlockIKNS_6MatrixIdLin1ELin1ELi0ELin1ELin1EEELi1ELin1ELb0EEELi1ELin1ELb1ELb1EE11innerStrideEv, symObjAddr: 0x19C6C, symBinAddr: 0x10001A51C, symSize: 0x28 }
  - { offsetInCU: 0x15D35D, offset: 0x15D35D, size: 0x8, addend: 0x0, symName: __ZNK5Eigen8internal15BlockImpl_denseIKNS_5BlockIKNS_6MatrixIdLin1ELin1ELi0ELin1ELin1EEELi1ELin1ELb0EEELi1ELin1ELb1ELb1EE11outerStrideEv, symObjAddr: 0x19C94, symBinAddr: 0x10001A544, symSize: 0x28 }
  - { offsetInCU: 0x15D383, offset: 0x15D383, size: 0x8, addend: 0x0, symName: __ZN5Eigen8internal14evaluator_baseINS_5BlockIKNS2_IKNS_6MatrixIdLin1ELin1ELi0ELin1ELin1EEELi1ELin1ELb0EEELi1ELin1ELb1EEEED2Ev, symObjAddr: 0x19CBC, symBinAddr: 0x10001A56C, symSize: 0x14 }
  - { offsetInCU: 0x15D3AD, offset: 0x15D3AD, size: 0x8, addend: 0x0, symName: __ZN5Eigen8internal9evaluatorIKNS_9TransposeIKNS_5BlockIKNS3_IKNS_6MatrixIdLin1ELin1ELi0ELin1ELin1EEELi1ELin1ELb0EEELi1ELin1ELb1EEEEEED2Ev, symObjAddr: 0x19CD0, symBinAddr: 0x10001A580, symSize: 0x2C }
  - { offsetInCU: 0x15D3D9, offset: 0x15D3D9, size: 0x8, addend: 0x0, symName: __ZN5Eigen8internal9evaluatorINS_9TransposeIKNS_5BlockIKNS3_IKNS_6MatrixIdLin1ELin1ELi0ELin1ELin1EEELi1ELin1ELb0EEELi1ELin1ELb1EEEEEED2Ev, symObjAddr: 0x19CFC, symBinAddr: 0x10001A5AC, symSize: 0x2C }
  - { offsetInCU: 0x15D405, offset: 0x15D405, size: 0x8, addend: 0x0, symName: __ZN5Eigen8internal15unary_evaluatorINS_9TransposeIKNS_5BlockIKNS3_IKNS_6MatrixIdLin1ELin1ELi0ELin1ELin1EEELi1ELin1ELb0EEELi1ELin1ELb1EEEEENS0_10IndexBasedEdED2Ev, symObjAddr: 0x19D28, symBinAddr: 0x10001A5D8, symSize: 0x34 }
  - { offsetInCU: 0x15D431, offset: 0x15D431, size: 0x8, addend: 0x0, symName: __ZN5Eigen8internal9evaluatorIKNS_5BlockIKNS2_IKNS_6MatrixIdLin1ELin1ELi0ELin1ELin1EEELi1ELin1ELb0EEELi1ELin1ELb1EEEED1Ev, symObjAddr: 0x19D5C, symBinAddr: 0x10001A60C, symSize: 0x2C }
  - { offsetInCU: 0x15D45D, offset: 0x15D45D, size: 0x8, addend: 0x0, symName: __ZN5Eigen8internal9evaluatorIKNS_5BlockIKNS2_IKNS_6MatrixIdLin1ELin1ELi0ELin1ELin1EEELi1ELin1ELb0EEELi1ELin1ELb1EEEED2Ev, symObjAddr: 0x19D88, symBinAddr: 0x10001A638, symSize: 0x2C }
  - { offsetInCU: 0x15D489, offset: 0x15D489, size: 0x8, addend: 0x0, symName: __ZN5Eigen8internal9evaluatorINS_5BlockIKNS2_IKNS_6MatrixIdLin1ELin1ELi0ELin1ELin1EEELi1ELin1ELb0EEELi1ELin1ELb1EEEED2Ev, symObjAddr: 0x19DB4, symBinAddr: 0x10001A664, symSize: 0x2C }
  - { offsetInCU: 0x15D4B6, offset: 0x15D4B6, size: 0x8, addend: 0x0, symName: __ZN5Eigen8internal15block_evaluatorIKNS_5BlockIKNS_6MatrixIdLin1ELin1ELi0ELin1ELin1EEELi1ELin1ELb0EEELi1ELin1ELb1ELb1EED2Ev, symObjAddr: 0x19DE0, symBinAddr: 0x10001A690, symSize: 0x2C }
  - { offsetInCU: 0x15D4E3, offset: 0x15D4E3, size: 0x8, addend: 0x0, symName: __ZNK5Eigen8internal15redux_evaluatorINS_13CwiseBinaryOpINS0_22scalar_conj_product_opIddEEKNS_9TransposeIKNS_5BlockIKNS6_IKNS_6MatrixIdLin1ELin1ELi0ELin1ELin1EEELi1ELin1ELb0EEELi1ELin1ELb1EEEEEKNS6_IS9_Lin1ELi1ELb1EEEEEE17coeffByOuterInnerEll, symObjAddr: 0x19E0C, symBinAddr: 0x10001A6BC, symSize: 0x34 }
  - { offsetInCU: 0x15D527, offset: 0x15D527, size: 0x8, addend: 0x0, symName: __ZNK5Eigen9DenseBaseINS_13CwiseBinaryOpINS_8internal22scalar_conj_product_opIddEEKNS_9TransposeIKNS_5BlockIKNS6_IKNS_6MatrixIdLin1ELin1ELi0ELin1ELin1EEELi1ELin1ELb0EEELi1ELin1ELb1EEEEEKNS6_IS9_Lin1ELi1ELb1EEEEEE9innerSizeEv, symObjAddr: 0x19E40, symBinAddr: 0x10001A6F0, symSize: 0x24 }
  - { offsetInCU: 0x15D54D, offset: 0x15D54D, size: 0x8, addend: 0x0, symName: __ZNK5Eigen9DenseBaseINS_13CwiseBinaryOpINS_8internal22scalar_conj_product_opIddEEKNS_9TransposeIKNS_5BlockIKNS6_IKNS_6MatrixIdLin1ELin1ELi0ELin1ELin1EEELi1ELin1ELb0EEELi1ELin1ELb1EEEEEKNS6_IS9_Lin1ELi1ELb1EEEEEE9outerSizeEv, symObjAddr: 0x19E64, symBinAddr: 0x10001A714, symSize: 0x14 }
  - { offsetInCU: 0x15D573, offset: 0x15D573, size: 0x8, addend: 0x0, symName: __ZNK5Eigen8internal16binary_evaluatorINS_13CwiseBinaryOpINS0_22scalar_conj_product_opIddEEKNS_9TransposeIKNS_5BlockIKNS6_IKNS_6MatrixIdLin1ELin1ELi0ELin1ELin1EEELi1ELin1ELb0EEELi1ELin1ELb1EEEEEKNS6_IS9_Lin1ELi1ELb1EEEEENS0_10IndexBasedESJ_ddE5coeffEll, symObjAddr: 0x19E78, symBinAddr: 0x10001A728, symSize: 0x7C }
  - { offsetInCU: 0x15D5B7, offset: 0x15D5B7, size: 0x8, addend: 0x0, symName: __ZNK5Eigen8internal16binary_evaluatorINS_13CwiseBinaryOpINS0_22scalar_conj_product_opIddEEKNS_9TransposeIKNS_5BlockIKNS6_IKNS_6MatrixIdLin1ELin1ELi0ELin1ELin1EEELi1ELin1ELb0EEELi1ELin1ELb1EEEEEKNS6_IS9_Lin1ELi1ELb1EEEEENS0_10IndexBasedESJ_ddE4Data4funcEv, symObjAddr: 0x19EF4, symBinAddr: 0x10001A7A4, symSize: 0x14 }
  - { offsetInCU: 0x15D5DD, offset: 0x15D5DD, size: 0x8, addend: 0x0, symName: __ZNK5Eigen8internal15unary_evaluatorINS_9TransposeIKNS_5BlockIKNS3_IKNS_6MatrixIdLin1ELin1ELi0ELin1ELin1EEELi1ELin1ELb0EEELi1ELin1ELb1EEEEENS0_10IndexBasedEdE5coeffEll, symObjAddr: 0x19F08, symBinAddr: 0x10001A7B8, symSize: 0x34 }
  - { offsetInCU: 0x15D621, offset: 0x15D621, size: 0x8, addend: 0x0, symName: __ZNK5Eigen8internal17mapbase_evaluatorINS_5BlockIKNS2_IKNS_6MatrixIdLin1ELin1ELi0ELin1ELin1EEELi1ELin1ELb0EEELi1ELin1ELb1EEENS3_IdLi1ELin1ELi1ELi1ELin1EEEE5coeffEll, symObjAddr: 0x19F3C, symBinAddr: 0x10001A7EC, symSize: 0x78 }
  - { offsetInCU: 0x15D665, offset: 0x15D665, size: 0x8, addend: 0x0, symName: __ZNK5Eigen8internal17mapbase_evaluatorINS_5BlockIKNS2_IKNS_6MatrixIdLin1ELin1ELi0ELin1ELin1EEELi1ELin1ELb0EEELi1ELin1ELb1EEENS3_IdLi1ELin1ELi1ELi1ELin1EEEE9colStrideEv, symObjAddr: 0x19FB4, symBinAddr: 0x10001A864, symSize: 0x28 }
  - { offsetInCU: 0x15D68B, offset: 0x15D68B, size: 0x8, addend: 0x0, symName: __ZNK5Eigen8internal17mapbase_evaluatorINS_5BlockIKNS2_IKNS_6MatrixIdLin1ELin1ELi0ELin1ELin1EEELi1ELin1ELb0EEELi1ELin1ELb1EEENS3_IdLi1ELin1ELi1ELi1ELin1EEEE9rowStrideEv, symObjAddr: 0x19FDC, symBinAddr: 0x10001A88C, symSize: 0x20 }
  - { offsetInCU: 0x15D6B1, offset: 0x15D6B1, size: 0x8, addend: 0x0, symName: __ZN5Eigen8internal15redux_evaluatorINS_13CwiseBinaryOpINS0_22scalar_conj_product_opIddEEKNS_9TransposeIKNS_5BlockIKNS6_IKNS_6MatrixIdLin1ELin1ELi0ELin1ELin1EEELi1ELin1ELb0EEELi1ELin1ELb1EEEEEKNS6_IS9_Lin1ELi1ELb1EEEEEED2Ev, symObjAddr: 0x19FFC, symBinAddr: 0x10001A8AC, symSize: 0x2C }
  - { offsetInCU: 0x15D6DE, offset: 0x15D6DE, size: 0x8, addend: 0x0, symName: __ZN5Eigen8internal9evaluatorINS_13CwiseBinaryOpINS0_22scalar_conj_product_opIddEEKNS_9TransposeIKNS_5BlockIKNS6_IKNS_6MatrixIdLin1ELin1ELi0ELin1ELin1EEELi1ELin1ELb0EEELi1ELin1ELb1EEEEEKNS6_IS9_Lin1ELi1ELb1EEEEEED2Ev, symObjAddr: 0x1A028, symBinAddr: 0x10001A8D8, symSize: 0x2C }
  - { offsetInCU: 0x15D70B, offset: 0x15D70B, size: 0x8, addend: 0x0, symName: __ZN5Eigen8internal16binary_evaluatorINS_13CwiseBinaryOpINS0_22scalar_conj_product_opIddEEKNS_9TransposeIKNS_5BlockIKNS6_IKNS_6MatrixIdLin1ELin1ELi0ELin1ELin1EEELi1ELin1ELb0EEELi1ELin1ELb1EEEEEKNS6_IS9_Lin1ELi1ELb1EEEEENS0_10IndexBasedESJ_ddED2Ev, symObjAddr: 0x1A054, symBinAddr: 0x10001A904, symSize: 0x34 }
  - { offsetInCU: 0x15D737, offset: 0x15D737, size: 0x8, addend: 0x0, symName: __ZN5Eigen8internal16binary_evaluatorINS_13CwiseBinaryOpINS0_22scalar_conj_product_opIddEEKNS_9TransposeIKNS_5BlockIKNS6_IKNS_6MatrixIdLin1ELin1ELi0ELin1ELin1EEELi1ELin1ELb0EEELi1ELin1ELb1EEEEEKNS6_IS9_Lin1ELi1ELb1EEEEENS0_10IndexBasedESJ_ddE4DataD1Ev, symObjAddr: 0x1A088, symBinAddr: 0x10001A938, symSize: 0x2C }
  - { offsetInCU: 0x15D764, offset: 0x15D764, size: 0x8, addend: 0x0, symName: __ZN5Eigen8internal16binary_evaluatorINS_13CwiseBinaryOpINS0_22scalar_conj_product_opIddEEKNS_9TransposeIKNS_5BlockIKNS6_IKNS_6MatrixIdLin1ELin1ELi0ELin1ELin1EEELi1ELin1ELb0EEELi1ELin1ELb1EEEEEKNS6_IS9_Lin1ELi1ELb1EEEEENS0_10IndexBasedESJ_ddE4DataD2Ev, symObjAddr: 0x1A0B4, symBinAddr: 0x10001A964, symSize: 0x3C }
  - { offsetInCU: 0x15D791, offset: 0x15D791, size: 0x8, addend: 0x0, symName: __ZNK5Eigen15DenseCoeffsBaseINS_5BlockINS_6MatrixIdLin1ELin1ELi0ELin1ELin1EEELi1ELin1ELb0EEELi3EE9colStrideEv, symObjAddr: 0x1A0F0, symBinAddr: 0x10001A9A0, symSize: 0x24 }
  - { offsetInCU: 0x15D7B7, offset: 0x15D7B7, size: 0x8, addend: 0x0, symName: __ZNK5Eigen15DenseCoeffsBaseINS_5BlockINS_6MatrixIdLin1ELin1ELi0ELin1ELin1EEELi1ELin1ELb0EEELi3EE9rowStrideEv, symObjAddr: 0x1A114, symBinAddr: 0x10001A9C4, symSize: 0x24 }
  - { offsetInCU: 0x15D7DD, offset: 0x15D7DD, size: 0x8, addend: 0x0, symName: __ZNK5Eigen15DenseCoeffsBaseINS_5BlockINS_6MatrixIdLin1ELin1ELi0ELin1ELin1EEELi1ELin1ELb0EEELi3EE11innerStrideEv, symObjAddr: 0x1A138, symBinAddr: 0x10001A9E8, symSize: 0x38 }
  - { offsetInCU: 0x15D803, offset: 0x15D803, size: 0x8, addend: 0x0, symName: __ZNK5Eigen9EigenBaseINS_5BlockINS_6MatrixIdLin1ELin1ELi0ELin1ELin1EEELi1ELin1ELb0EEEE7derivedEv, symObjAddr: 0x1A170, symBinAddr: 0x10001AA20, symSize: 0x14 }
  - { offsetInCU: 0x15D829, offset: 0x15D829, size: 0x8, addend: 0x0, symName: __ZNK5Eigen8internal15BlockImpl_denseINS_6MatrixIdLin1ELin1ELi0ELin1ELin1EEELi1ELin1ELb0ELb1EE11innerStrideEv, symObjAddr: 0x1A184, symBinAddr: 0x10001AA34, symSize: 0x28 }
  - { offsetInCU: 0x15D84F, offset: 0x15D84F, size: 0x8, addend: 0x0, symName: __ZNK5Eigen15DenseCoeffsBaseINS_5BlockINS_6MatrixIdLin1ELin1ELi0ELin1ELin1EEELi1ELin1ELb0EEELi3EE11outerStrideEv, symObjAddr: 0x1A1AC, symBinAddr: 0x10001AA5C, symSize: 0x28 }
  - { offsetInCU: 0x15D875, offset: 0x15D875, size: 0x8, addend: 0x0, symName: __ZNK5Eigen8internal15BlockImpl_denseINS_6MatrixIdLin1ELin1ELi0ELin1ELin1EEELi1ELin1ELb0ELb1EE11outerStrideEv, symObjAddr: 0x1A1D4, symBinAddr: 0x10001AA84, symSize: 0x28 }
  - { offsetInCU: 0x15D89B, offset: 0x15D89B, size: 0x8, addend: 0x0, symName: __ZN5Eigen9TransposeINS_5BlockINS_6MatrixIdLin1ELin1ELi0ELin1ELin1EEELi1ELin1ELb0EEEEC1ERS4_, symObjAddr: 0x1A1FC, symBinAddr: 0x10001AAAC, symSize: 0x34 }
  - { offsetInCU: 0x15D8FF, offset: 0x15D8FF, size: 0x8, addend: 0x0, symName: __ZNK5Eigen9DenseBaseINS_6MatrixIdLin1ELin1ELi0ELin1ELin1EEEE9transposeEv, symObjAddr: 0x1A6FC, symBinAddr: 0x10001AFAC, symSize: 0x34 }
  - { offsetInCU: 0x15D927, offset: 0x15D927, size: 0x8, addend: 0x0, symName: __ZN5Eigen9TransposeINS_5BlockINS_6MatrixIdLin1ELin1ELi0ELin1ELin1EEELi1ELin1ELb0EEEEC2ERS4_, symObjAddr: 0x1A730, symBinAddr: 0x10001AFE0, symSize: 0x40 }
  - { offsetInCU: 0x15D95F, offset: 0x15D95F, size: 0x8, addend: 0x0, symName: __ZN5Eigen13TransposeImplINS_5BlockINS_6MatrixIdLin1ELin1ELi0ELin1ELin1EEELi1ELin1ELb0EEENS_5DenseEEC2Ev, symObjAddr: 0x1A770, symBinAddr: 0x10001B020, symSize: 0x2C }
  - { offsetInCU: 0x15D989, offset: 0x15D989, size: 0x8, addend: 0x0, symName: __ZN5Eigen10MatrixBaseINS_9TransposeINS_5BlockINS_6MatrixIdLin1ELin1ELi0ELin1ELin1EEELi1ELin1ELb0EEEEEEC2Ev, symObjAddr: 0x1A79C, symBinAddr: 0x10001B04C, symSize: 0x2C }
  - { offsetInCU: 0x15D9B3, offset: 0x15D9B3, size: 0x8, addend: 0x0, symName: __ZN5Eigen9DenseBaseINS_9TransposeINS_5BlockINS_6MatrixIdLin1ELin1ELi0ELin1ELin1EEELi1ELin1ELb0EEEEEEC2Ev, symObjAddr: 0x1A7C8, symBinAddr: 0x10001B078, symSize: 0x14 }
  - { offsetInCU: 0x15D9DD, offset: 0x15D9DD, size: 0x8, addend: 0x0, symName: __ZN5Eigen8internal11blas_traitsINS_9TransposeIKNS_6MatrixIdLin1ELin1ELi0ELin1ELin1EEEEEE7extractERKS6_, symObjAddr: 0x1A7DC, symBinAddr: 0x10001B08C, symSize: 0x38 }
  - { offsetInCU: 0x15DA01, offset: 0x15DA01, size: 0x8, addend: 0x0, symName: __ZN5Eigen8internal11blas_traitsINS_9TransposeIKNS_5BlockIKNS_6MatrixIdLin1ELin1ELi0ELin1ELin1EEELi1ELin1ELb0EEEEEE7extractERKS9_, symObjAddr: 0x1A814, symBinAddr: 0x10001B0C4, symSize: 0x38 }
  - { offsetInCU: 0x15DA25, offset: 0x15DA25, size: 0x8, addend: 0x0, symName: __ZNK5Eigen9EigenBaseINS_9TransposeIKNS_5BlockIKNS_6MatrixIdLin1ELin1ELi0ELin1ELin1EEELi1ELin1ELb0EEEEEE4sizeEv, symObjAddr: 0x1A84C, symBinAddr: 0x10001B0FC, symSize: 0x44 }
  - { offsetInCU: 0x15DA50, offset: 0x15DA50, size: 0x8, addend: 0x0, symName: __ZN5Eigen8internal21gemv_static_vector_ifIdLin1ELin1ELb1EE4dataEv, symObjAddr: 0x1A890, symBinAddr: 0x10001B140, symSize: 0x14 }
  - { offsetInCU: 0x15DA8A, offset: 0x15DA8A, size: 0x8, addend: 0x0, symName: __ZN5Eigen8internal28aligned_stack_memory_handlerIdEC1EPdmb, symObjAddr: 0x1A8A4, symBinAddr: 0x10001B154, symSize: 0x50 }
  - { offsetInCU: 0x15DAE1, offset: 0x15DAE1, size: 0x8, addend: 0x0, symName: __ZN5Eigen6StrideILi0ELi0EEC1Ev, symObjAddr: 0x1A8F4, symBinAddr: 0x10001B1A4, symSize: 0x2C }
  - { offsetInCU: 0x15DB0B, offset: 0x15DB0B, size: 0x8, addend: 0x0, symName: __ZN5Eigen3MapINS_6MatrixIdLin1ELi1ELi0ELin1ELi1EEELi0ENS_6StrideILi0ELi0EEEEC1EPdlRKS4_, symObjAddr: 0x1A920, symBinAddr: 0x10001B1D0, symSize: 0x44 }
  - { offsetInCU: 0x15DB5F, offset: 0x15DB5F, size: 0x8, addend: 0x0, symName: __ZN5Eigen3MapINS_6MatrixIdLin1ELi1ELi0ELin1ELi1EEELi0ENS_6StrideILi0ELi0EEEEaSINS_9TransposeIKNS_5BlockIKNS1_IdLin1ELin1ELi0ELin1ELin1EEELi1ELin1ELb0EEEEEEERS5_RKNS_9DenseBaseIT_EE, symObjAddr: 0x1A964, symBinAddr: 0x10001B214, symSize: 0x40 }
  - { offsetInCU: 0x15DBDD, offset: 0x15DBDD, size: 0x8, addend: 0x0, symName: __ZNK5Eigen9TransposeIKNS_6MatrixIdLin1ELin1ELi0ELin1ELin1EEEE4rowsEv, symObjAddr: 0x1C148, symBinAddr: 0x10001C9F8, symSize: 0x28 }
  - { offsetInCU: 0x15DC03, offset: 0x15DC03, size: 0x8, addend: 0x0, symName: __ZNK5Eigen9TransposeIKNS_6MatrixIdLin1ELin1ELi0ELin1ELin1EEEE4colsEv, symObjAddr: 0x1C170, symBinAddr: 0x10001CA20, symSize: 0x28 }
  - { offsetInCU: 0x15DC29, offset: 0x15DC29, size: 0x8, addend: 0x0, symName: __ZNK5Eigen13TransposeImplIKNS_6MatrixIdLin1ELin1ELi0ELin1ELin1EEENS_5DenseEE4dataEv, symObjAddr: 0x1C198, symBinAddr: 0x10001CA48, symSize: 0x2C }
  - { offsetInCU: 0x15DC4F, offset: 0x15DC4F, size: 0x8, addend: 0x0, symName: __ZNK5Eigen13TransposeImplIKNS_6MatrixIdLin1ELin1ELi0ELin1ELin1EEENS_5DenseEE11outerStrideEv, symObjAddr: 0x1C1C4, symBinAddr: 0x10001CA74, symSize: 0x2C }
  - { offsetInCU: 0x15DC75, offset: 0x15DC75, size: 0x8, addend: 0x0, symName: __ZN5Eigen13TransposeImplINS_5BlockINS_6MatrixIdLin1ELin1ELi0ELin1ELin1EEELi1ELin1ELb0EEENS_5DenseEE4dataEv, symObjAddr: 0x1C1F0, symBinAddr: 0x10001CAA0, symSize: 0x2C }
  - { offsetInCU: 0x15DC9B, offset: 0x15DC9B, size: 0x8, addend: 0x0, symName: __ZN5Eigen9DenseBaseINS_9TransposeINS_5BlockINS_6MatrixIdLin1ELin1ELi0ELin1ELin1EEELi1ELin1ELb0EEEEEE3colEl, symObjAddr: 0x1C21C, symBinAddr: 0x10001CACC, symSize: 0x3C }
  - { offsetInCU: 0x15DCD0, offset: 0x15DCD0, size: 0x8, addend: 0x0, symName: __ZNK5Eigen8internal15BlockImpl_denseINS_9TransposeINS_5BlockINS_6MatrixIdLin1ELin1ELi0ELin1ELin1EEELi1ELin1ELb0EEEEELin1ELi1ELb1ELb1EE11innerStrideEv, symObjAddr: 0x1C258, symBinAddr: 0x10001CB08, symSize: 0x38 }
  - { offsetInCU: 0x15DCF6, offset: 0x15DCF6, size: 0x8, addend: 0x0, symName: __ZN5Eigen8internal28aligned_stack_memory_handlerIdED1Ev, symObjAddr: 0x1C290, symBinAddr: 0x10001CB40, symSize: 0x2C }
  - { offsetInCU: 0x15DD20, offset: 0x15DD20, size: 0x8, addend: 0x0, symName: __ZNK5Eigen9TransposeIKNS_6MatrixIdLin1ELin1ELi0ELin1ELin1EEEE16nestedExpressionEv, symObjAddr: 0x1C2BC, symBinAddr: 0x10001CB6C, symSize: 0x18 }
  - { offsetInCU: 0x15DD46, offset: 0x15DD46, size: 0x8, addend: 0x0, symName: __ZN5Eigen9TransposeIKNS_6MatrixIdLin1ELin1ELi0ELin1ELin1EEEEC1ERS3_, symObjAddr: 0x1C2D4, symBinAddr: 0x10001CB84, symSize: 0x34 }
  - { offsetInCU: 0x15DD7E, offset: 0x15DD7E, size: 0x8, addend: 0x0, symName: __ZN5Eigen9TransposeIKNS_6MatrixIdLin1ELin1ELi0ELin1ELin1EEEEC2ERS3_, symObjAddr: 0x1C308, symBinAddr: 0x10001CBB8, symSize: 0x38 }
  - { offsetInCU: 0x15DDB6, offset: 0x15DDB6, size: 0x8, addend: 0x0, symName: __ZN5Eigen13TransposeImplIKNS_6MatrixIdLin1ELin1ELi0ELin1ELin1EEENS_5DenseEEC2Ev, symObjAddr: 0x1C340, symBinAddr: 0x10001CBF0, symSize: 0x2C }
  - { offsetInCU: 0x15DDE0, offset: 0x15DDE0, size: 0x8, addend: 0x0, symName: __ZN5Eigen10MatrixBaseINS_9TransposeIKNS_6MatrixIdLin1ELin1ELi0ELin1ELin1EEEEEEC2Ev, symObjAddr: 0x1C36C, symBinAddr: 0x10001CC1C, symSize: 0x2C }
  - { offsetInCU: 0x15DE0A, offset: 0x15DE0A, size: 0x8, addend: 0x0, symName: __ZN5Eigen9DenseBaseINS_9TransposeIKNS_6MatrixIdLin1ELin1ELi0ELin1ELin1EEEEEEC2Ev, symObjAddr: 0x1C398, symBinAddr: 0x10001CC48, symSize: 0x14 }
  - { offsetInCU: 0x15DE34, offset: 0x15DE34, size: 0x8, addend: 0x0, symName: __ZN5Eigen8internal11blas_traitsINS_5BlockIKNS_6MatrixIdLin1ELin1ELi0ELin1ELin1EEELi1ELin1ELb0EEEE7extractERKS6_, symObjAddr: 0x1C3AC, symBinAddr: 0x10001CC5C, symSize: 0x14 }
  - { offsetInCU: 0x15DE58, offset: 0x15DE58, size: 0x8, addend: 0x0, symName: __ZN5Eigen8internal11blas_traitsINS_9TransposeIKNS_6MatrixIdLin1ELin1ELi0ELin1ELin1EEEEEE19extractScalarFactorERKS6_, symObjAddr: 0x1C3C0, symBinAddr: 0x10001CC70, symSize: 0x28 }
  - { offsetInCU: 0x15DE7C, offset: 0x15DE7C, size: 0x8, addend: 0x0, symName: __ZN5Eigen8internal11blas_traitsINS_9TransposeIKNS_5BlockIKNS_6MatrixIdLin1ELin1ELi0ELin1ELin1EEELi1ELin1ELb0EEEEEE19extractScalarFactorERKS9_, symObjAddr: 0x1C3E8, symBinAddr: 0x10001CC98, symSize: 0x28 }
  - { offsetInCU: 0x15DEA0, offset: 0x15DEA0, size: 0x8, addend: 0x0, symName: __ZN5Eigen8internal11blas_traitsINS_5BlockIKNS_6MatrixIdLin1ELin1ELi0ELin1ELin1EEELi1ELin1ELb0EEEE19extractScalarFactorERKS6_, symObjAddr: 0x1C410, symBinAddr: 0x10001CCC0, symSize: 0x14 }
  - { offsetInCU: 0x15DEC0, offset: 0x15DEC0, size: 0x8, addend: 0x0, symName: __ZNK5Eigen9EigenBaseINS_9TransposeIKNS_5BlockIKNS_6MatrixIdLin1ELin1ELi0ELin1ELin1EEELi1ELin1ELb0EEEEEE4rowsEv, symObjAddr: 0x1C424, symBinAddr: 0x10001CCD4, symSize: 0x28 }
  - { offsetInCU: 0x15DEE6, offset: 0x15DEE6, size: 0x8, addend: 0x0, symName: __ZNK5Eigen9EigenBaseINS_9TransposeIKNS_5BlockIKNS_6MatrixIdLin1ELin1ELi0ELin1ELin1EEELi1ELin1ELb0EEEEEE4colsEv, symObjAddr: 0x1C44C, symBinAddr: 0x10001CCFC, symSize: 0x28 }
  - { offsetInCU: 0x15DF0C, offset: 0x15DF0C, size: 0x8, addend: 0x0, symName: __ZN5Eigen8internal28aligned_stack_memory_handlerIdEC2EPdmb, symObjAddr: 0x1C474, symBinAddr: 0x10001CD24, symSize: 0x5C }
  - { offsetInCU: 0x15DF63, offset: 0x15DF63, size: 0x8, addend: 0x0, symName: __ZN5Eigen8internal11noncopyableC2Ev, symObjAddr: 0x1C4D0, symBinAddr: 0x10001CD80, symSize: 0x14 }
  - { offsetInCU: 0x15DF8D, offset: 0x15DF8D, size: 0x8, addend: 0x0, symName: __ZN5Eigen6StrideILi0ELi0EEC2Ev, symObjAddr: 0x1C4E4, symBinAddr: 0x10001CD94, symSize: 0x44 }
  - { offsetInCU: 0x15DFB7, offset: 0x15DFB7, size: 0x8, addend: 0x0, symName: __ZN5Eigen3MapINS_6MatrixIdLin1ELi1ELi0ELin1ELi1EEELi0ENS_6StrideILi0ELi0EEEEC2EPdlRKS4_, symObjAddr: 0x1C528, symBinAddr: 0x10001CDD8, symSize: 0x60 }
  - { offsetInCU: 0x15E00B, offset: 0x15E00B, size: 0x8, addend: 0x0, symName: __ZN5Eigen3MapINS_6MatrixIdLin1ELi1ELi0ELin1ELi1EEELi0ENS_6StrideILi0ELi0EEEE20cast_to_pointer_typeEPd, symObjAddr: 0x1C588, symBinAddr: 0x10001CE38, symSize: 0x18 }
  - { offsetInCU: 0x15E03F, offset: 0x15E03F, size: 0x8, addend: 0x0, symName: __ZN5Eigen7MapBaseINS_3MapINS_6MatrixIdLin1ELi1ELi0ELin1ELi1EEELi0ENS_6StrideILi0ELi0EEEEELi1EEC2EPdl, symObjAddr: 0x1C5A0, symBinAddr: 0x10001CE50, symSize: 0x3C }
  - { offsetInCU: 0x15E087, offset: 0x15E087, size: 0x8, addend: 0x0, symName: __ZN5Eigen6StrideILi0ELi0EEC1ERKS1_, symObjAddr: 0x1C5DC, symBinAddr: 0x10001CE8C, symSize: 0x34 }
  - { offsetInCU: 0x15E0BF, offset: 0x15E0BF, size: 0x8, addend: 0x0, symName: __ZN5Eigen7MapBaseINS_3MapINS_6MatrixIdLin1ELi1ELi0ELin1ELi1EEELi0ENS_6StrideILi0ELi0EEEEELi0EEC2EPdl, symObjAddr: 0x1C610, symBinAddr: 0x10001CEC0, symSize: 0x120 }
  - { offsetInCU: 0x15E105, offset: 0x15E105, size: 0x8, addend: 0x0, symName: __ZN5Eigen10MatrixBaseINS_3MapINS_6MatrixIdLin1ELi1ELi0ELin1ELi1EEELi0ENS_6StrideILi0ELi0EEEEEEC2Ev, symObjAddr: 0x1C730, symBinAddr: 0x10001CFE0, symSize: 0x2C }
  - { offsetInCU: 0x15E12F, offset: 0x15E12F, size: 0x8, addend: 0x0, symName: __ZNK5Eigen7MapBaseINS_3MapINS_6MatrixIdLin1ELi1ELi0ELin1ELi1EEELi0ENS_6StrideILi0ELi0EEEEELi0EE11checkSanityIS6_EEvNS_8internal9enable_ifIXeqsr8internal6traitsIT_EE9AlignmentLi0EEPvE4typeE, symObjAddr: 0x1C75C, symBinAddr: 0x10001D00C, symSize: 0x14 }
  - { offsetInCU: 0x15E169, offset: 0x15E169, size: 0x8, addend: 0x0, symName: __ZN5Eigen9DenseBaseINS_3MapINS_6MatrixIdLin1ELi1ELi0ELin1ELi1EEELi0ENS_6StrideILi0ELi0EEEEEEC2Ev, symObjAddr: 0x1C770, symBinAddr: 0x10001D020, symSize: 0x14 }
  - { offsetInCU: 0x15E193, offset: 0x15E193, size: 0x8, addend: 0x0, symName: __ZN5Eigen6StrideILi0ELi0EEC2ERKS1_, symObjAddr: 0x1C784, symBinAddr: 0x10001D034, symSize: 0x58 }
  - { offsetInCU: 0x15E1CB, offset: 0x15E1CB, size: 0x8, addend: 0x0, symName: __ZNK5Eigen6StrideILi0ELi0EE5outerEv, symObjAddr: 0x1C7DC, symBinAddr: 0x10001D08C, symSize: 0x20 }
  - { offsetInCU: 0x15E1F1, offset: 0x15E1F1, size: 0x8, addend: 0x0, symName: __ZNK5Eigen6StrideILi0ELi0EE5innerEv, symObjAddr: 0x1C7FC, symBinAddr: 0x10001D0AC, symSize: 0x20 }
  - { offsetInCU: 0x15E217, offset: 0x15E217, size: 0x8, addend: 0x0, symName: __ZN5Eigen8internal19variable_if_dynamicIlLi0EE5valueEv, symObjAddr: 0x1C81C, symBinAddr: 0x10001D0CC, symSize: 0x8 }
  - { offsetInCU: 0x15E22B, offset: 0x15E22B, size: 0x8, addend: 0x0, symName: __ZN5Eigen10MatrixBaseINS_3MapINS_6MatrixIdLin1ELi1ELi0ELin1ELi1EEELi0ENS_6StrideILi0ELi0EEEEEEaSINS_9TransposeIKNS_5BlockIKNS2_IdLin1ELin1ELi0ELin1ELin1EEELi1ELin1ELb0EEEEEEERS6_RKNS_9DenseBaseIT_EE, symObjAddr: 0x1C824, symBinAddr: 0x10001D0D4, symSize: 0x4C }
  - { offsetInCU: 0x15E26A, offset: 0x15E26A, size: 0x8, addend: 0x0, symName: __ZN5Eigen9EigenBaseINS_3MapINS_6MatrixIdLin1ELi1ELi0ELin1ELi1EEELi0ENS_6StrideILi0ELi0EEEEEE7derivedEv, symObjAddr: 0x1C8C0, symBinAddr: 0x10001D170, symSize: 0x14 }
  - { offsetInCU: 0x15E290, offset: 0x15E290, size: 0x8, addend: 0x0, symName: __ZN5Eigen8internal10AssignmentINS_3MapINS_6MatrixIdLin1ELi1ELi0ELin1ELi1EEELi0ENS_6StrideILi0ELi0EEEEENS_9TransposeIKNS_5BlockIKNS3_IdLin1ELin1ELi0ELin1ELin1EEELi1ELin1ELb0EEEEENS0_9assign_opIddEENS0_11Dense2DenseEvE3runERS7_RKSE_RKSG_, symObjAddr: 0x1C948, symBinAddr: 0x10001D1F8, symSize: 0x40 }
  - { offsetInCU: 0x15E2D2, offset: 0x15E2D2, size: 0x8, addend: 0x0, symName: __ZN5Eigen8internal9evaluatorINS_9TransposeIKNS_5BlockIKNS_6MatrixIdLin1ELin1ELi0ELin1ELin1EEELi1ELin1ELb0EEEEEEC1ERKS9_, symObjAddr: 0x1CA7C, symBinAddr: 0x10001D32C, symSize: 0x34 }
  - { offsetInCU: 0x15E319, offset: 0x15E319, size: 0x8, addend: 0x0, symName: __ZN5Eigen8internal9evaluatorINS_3MapINS_6MatrixIdLin1ELi1ELi0ELin1ELi1EEELi0ENS_6StrideILi0ELi0EEEEEEC1ERKS7_, symObjAddr: 0x1CBA8, symBinAddr: 0x10001D458, symSize: 0x34 }
  - { offsetInCU: 0x15E352, offset: 0x15E352, size: 0x8, addend: 0x0, symName: __ZNK5Eigen9EigenBaseINS_3MapINS_6MatrixIdLin1ELi1ELi0ELin1ELi1EEELi0ENS_6StrideILi0ELi0EEEEEE18const_cast_derivedEv, symObjAddr: 0x1CBDC, symBinAddr: 0x10001D48C, symSize: 0x14 }
  - { offsetInCU: 0x15E3A5, offset: 0x15E3A5, size: 0x8, addend: 0x0, symName: __ZN5Eigen8internal31generic_dense_assignment_kernelINS0_9evaluatorINS_3MapINS_6MatrixIdLin1ELi1ELi0ELin1ELi1EEELi0ENS_6StrideILi0ELi0EEEEEEENS2_INS_9TransposeIKNS_5BlockIKNS4_IdLin1ELin1ELi0ELin1ELin1EEELi1ELin1ELb0EEEEEEENS0_9assign_opIddEELi0EEC1ERS9_RKSH_RKSJ_RS8_, symObjAddr: 0x1CBF0, symBinAddr: 0x10001D4A0, symSize: 0x4C }
  - { offsetInCU: 0x15E410, offset: 0x15E410, size: 0x8, addend: 0x0, symName: __ZN5Eigen8internal21dense_assignment_loopINS0_31generic_dense_assignment_kernelINS0_9evaluatorINS_3MapINS_6MatrixIdLin1ELi1ELi0ELin1ELi1EEELi0ENS_6StrideILi0ELi0EEEEEEENS3_INS_9TransposeIKNS_5BlockIKNS5_IdLin1ELin1ELi0ELin1ELin1EEELi1ELin1ELb0EEEEEEENS0_9assign_opIddEELi0EEELi1ELi0EE3runERSL_, symObjAddr: 0x1CC3C, symBinAddr: 0x10001D4EC, symSize: 0x68 }
  - { offsetInCU: 0x15E460, offset: 0x15E460, size: 0x8, addend: 0x0, symName: __ZN5Eigen8internal9evaluatorINS_3MapINS_6MatrixIdLin1ELi1ELi0ELin1ELi1EEELi0ENS_6StrideILi0ELi0EEEEEED1Ev, symObjAddr: 0x1CCA4, symBinAddr: 0x10001D554, symSize: 0x2C }
  - { offsetInCU: 0x15E48D, offset: 0x15E48D, size: 0x8, addend: 0x0, symName: __ZN5Eigen8internal9evaluatorINS_9TransposeIKNS_5BlockIKNS_6MatrixIdLin1ELin1ELi0ELin1ELin1EEELi1ELin1ELb0EEEEEED1Ev, symObjAddr: 0x1CCD0, symBinAddr: 0x10001D580, symSize: 0x2C }
  - { offsetInCU: 0x15E4B9, offset: 0x15E4B9, size: 0x8, addend: 0x0, symName: __ZNK5Eigen7MapBaseINS_3MapINS_6MatrixIdLin1ELi1ELi0ELin1ELi1EEELi0ENS_6StrideILi0ELi0EEEEELi0EE4rowsEv, symObjAddr: 0x1CCFC, symBinAddr: 0x10001D5AC, symSize: 0x28 }
  - { offsetInCU: 0x15E4DF, offset: 0x15E4DF, size: 0x8, addend: 0x0, symName: __ZNK5Eigen7MapBaseINS_3MapINS_6MatrixIdLin1ELi1ELi0ELin1ELi1EEELi0ENS_6StrideILi0ELi0EEEEELi0EE4colsEv, symObjAddr: 0x1CD24, symBinAddr: 0x10001D5D4, symSize: 0x20 }
  - { offsetInCU: 0x15E505, offset: 0x15E505, size: 0x8, addend: 0x0, symName: __ZN5Eigen9DenseBaseINS_3MapINS_6MatrixIdLin1ELi1ELi0ELin1ELi1EEELi0ENS_6StrideILi0ELi0EEEEEE6resizeEll, symObjAddr: 0x1CD44, symBinAddr: 0x10001D5F4, symSize: 0xBC }
  - { offsetInCU: 0x15E549, offset: 0x15E549, size: 0x8, addend: 0x0, symName: __ZNK5Eigen9EigenBaseINS_3MapINS_6MatrixIdLin1ELi1ELi0ELin1ELi1EEELi0ENS_6StrideILi0ELi0EEEEEE4rowsEv, symObjAddr: 0x1CE00, symBinAddr: 0x10001D6B0, symSize: 0x38 }
  - { offsetInCU: 0x15E56F, offset: 0x15E56F, size: 0x8, addend: 0x0, symName: __ZNK5Eigen9EigenBaseINS_3MapINS_6MatrixIdLin1ELi1ELi0ELin1ELi1EEELi0ENS_6StrideILi0ELi0EEEEEE4colsEv, symObjAddr: 0x1CE38, symBinAddr: 0x10001D6E8, symSize: 0x28 }
  - { offsetInCU: 0x15E595, offset: 0x15E595, size: 0x8, addend: 0x0, symName: __ZNK5Eigen9EigenBaseINS_3MapINS_6MatrixIdLin1ELi1ELi0ELin1ELi1EEELi0ENS_6StrideILi0ELi0EEEEEE7derivedEv, symObjAddr: 0x1CE60, symBinAddr: 0x10001D710, symSize: 0x14 }
  - { offsetInCU: 0x15E5BB, offset: 0x15E5BB, size: 0x8, addend: 0x0, symName: __ZN5Eigen8internal9evaluatorINS_3MapINS_6MatrixIdLin1ELi1ELi0ELin1ELi1EEELi0ENS_6StrideILi0ELi0EEEEEEC2ERKS7_, symObjAddr: 0x1CE74, symBinAddr: 0x10001D724, symSize: 0x34 }
  - { offsetInCU: 0x15E5F4, offset: 0x15E5F4, size: 0x8, addend: 0x0, symName: __ZN5Eigen8internal17mapbase_evaluatorINS_3MapINS_6MatrixIdLin1ELi1ELi0ELin1ELi1EEELi0ENS_6StrideILi0ELi0EEEEES4_EC2ERKS7_, symObjAddr: 0x1CEA8, symBinAddr: 0x10001D758, symSize: 0xC0 }
  - { offsetInCU: 0x15E62D, offset: 0x15E62D, size: 0x8, addend: 0x0, symName: __ZN5Eigen8internal14evaluator_baseINS_3MapINS_6MatrixIdLin1ELi1ELi0ELin1ELi1EEELi0ENS_6StrideILi0ELi0EEEEEEC2Ev, symObjAddr: 0x1CF68, symBinAddr: 0x10001D818, symSize: 0x14 }
  - { offsetInCU: 0x15E657, offset: 0x15E657, size: 0x8, addend: 0x0, symName: __ZNK5Eigen7MapBaseINS_3MapINS_6MatrixIdLin1ELi1ELi0ELin1ELi1EEELi0ENS_6StrideILi0ELi0EEEEELi1EE4dataEv, symObjAddr: 0x1CF7C, symBinAddr: 0x10001D82C, symSize: 0x18 }
  - { offsetInCU: 0x15E67D, offset: 0x15E67D, size: 0x8, addend: 0x0, symName: __ZNK5Eigen3MapINS_6MatrixIdLin1ELi1ELi0ELin1ELi1EEELi0ENS_6StrideILi0ELi0EEEE11innerStrideEv, symObjAddr: 0x1CF94, symBinAddr: 0x10001D844, symSize: 0x14 }
  - { offsetInCU: 0x15E6A3, offset: 0x15E6A3, size: 0x8, addend: 0x0, symName: __ZNK5Eigen3MapINS_6MatrixIdLin1ELi1ELi0ELin1ELi1EEELi0ENS_6StrideILi0ELi0EEEE11outerStrideEv, symObjAddr: 0x1CFA8, symBinAddr: 0x10001D858, symSize: 0x44 }
  - { offsetInCU: 0x15E6C9, offset: 0x15E6C9, size: 0x8, addend: 0x0, symName: __ZN5Eigen8internal14evaluator_baseINS_3MapINS_6MatrixIdLin1ELi1ELi0ELin1ELi1EEELi0ENS_6StrideILi0ELi0EEEEEED2Ev, symObjAddr: 0x1CFEC, symBinAddr: 0x10001D89C, symSize: 0x14 }
  - { offsetInCU: 0x15E6F3, offset: 0x15E6F3, size: 0x8, addend: 0x0, symName: __ZNK5Eigen9EigenBaseINS_3MapINS_6MatrixIdLin1ELi1ELi0ELin1ELi1EEELi0ENS_6StrideILi0ELi0EEEEEE4sizeEv, symObjAddr: 0x1D000, symBinAddr: 0x10001D8B0, symSize: 0x44 }
  - { offsetInCU: 0x15E719, offset: 0x15E719, size: 0x8, addend: 0x0, symName: __ZN5Eigen8internal31generic_dense_assignment_kernelINS0_9evaluatorINS_3MapINS_6MatrixIdLin1ELi1ELi0ELin1ELi1EEELi0ENS_6StrideILi0ELi0EEEEEEENS2_INS_9TransposeIKNS_5BlockIKNS4_IdLin1ELin1ELi0ELin1ELin1EEELi1ELin1ELb0EEEEEEENS0_9assign_opIddEELi0EEC2ERS9_RKSH_RKSJ_RS8_, symObjAddr: 0x1D044, symBinAddr: 0x10001D8F4, symSize: 0x44 }
  - { offsetInCU: 0x15E77F, offset: 0x15E77F, size: 0x8, addend: 0x0, symName: __ZNK5Eigen8internal31generic_dense_assignment_kernelINS0_9evaluatorINS_3MapINS_6MatrixIdLin1ELi1ELi0ELin1ELi1EEELi0ENS_6StrideILi0ELi0EEEEEEENS2_INS_9TransposeIKNS_5BlockIKNS4_IdLin1ELin1ELi0ELin1ELin1EEELi1ELin1ELb0EEEEEEENS0_9assign_opIddEELi0EE4sizeEv, symObjAddr: 0x1D088, symBinAddr: 0x10001D938, symSize: 0x28 }
  - { offsetInCU: 0x15E7A5, offset: 0x15E7A5, size: 0x8, addend: 0x0, symName: __ZN5Eigen8internal31generic_dense_assignment_kernelINS0_9evaluatorINS_3MapINS_6MatrixIdLin1ELi1ELi0ELin1ELi1EEELi0ENS_6StrideILi0ELi0EEEEEEENS2_INS_9TransposeIKNS_5BlockIKNS4_IdLin1ELin1ELi0ELin1ELin1EEELi1ELin1ELb0EEEEEEENS0_9assign_opIddEELi0EE11assignCoeffEl, symObjAddr: 0x1D0B0, symBinAddr: 0x10001D960, symSize: 0x64 }
  - { offsetInCU: 0x15E7DA, offset: 0x15E7DA, size: 0x8, addend: 0x0, symName: __ZN5Eigen8internal17mapbase_evaluatorINS_3MapINS_6MatrixIdLin1ELi1ELi0ELin1ELi1EEELi0ENS_6StrideILi0ELi0EEEEES4_E8coeffRefEl, symObjAddr: 0x1D114, symBinAddr: 0x10001D9C4, symSize: 0x48 }
  - { offsetInCU: 0x15E80F, offset: 0x15E80F, size: 0x8, addend: 0x0, symName: __ZNK5Eigen8internal15unary_evaluatorINS_9TransposeIKNS_5BlockIKNS_6MatrixIdLin1ELin1ELi0ELin1ELin1EEELi1ELin1ELb0EEEEENS0_10IndexBasedEdE5coeffEl, symObjAddr: 0x1D15C, symBinAddr: 0x10001DA0C, symSize: 0x2C }
  - { offsetInCU: 0x15E844, offset: 0x15E844, size: 0x8, addend: 0x0, symName: __ZNK5Eigen8internal17mapbase_evaluatorINS_5BlockIKNS_6MatrixIdLin1ELin1ELi0ELin1ELin1EEELi1ELin1ELb0EEENS3_IdLi1ELin1ELi1ELi1ELin1EEEE5coeffEl, symObjAddr: 0x1D188, symBinAddr: 0x10001DA38, symSize: 0x4C }
  - { offsetInCU: 0x15E879, offset: 0x15E879, size: 0x8, addend: 0x0, symName: __ZN5Eigen8internal9evaluatorINS_3MapINS_6MatrixIdLin1ELi1ELi0ELin1ELi1EEELi0ENS_6StrideILi0ELi0EEEEEED2Ev, symObjAddr: 0x1D1D4, symBinAddr: 0x10001DA84, symSize: 0x2C }
  - { offsetInCU: 0x15E8A6, offset: 0x15E8A6, size: 0x8, addend: 0x0, symName: __ZN5Eigen8internal17mapbase_evaluatorINS_3MapINS_6MatrixIdLin1ELi1ELi0ELin1ELi1EEELi0ENS_6StrideILi0ELi0EEEEES4_ED2Ev, symObjAddr: 0x1D200, symBinAddr: 0x10001DAB0, symSize: 0x2C }
  - { offsetInCU: 0x15E8D3, offset: 0x15E8D3, size: 0x8, addend: 0x0, symName: __ZNK5Eigen8internal16blas_data_mapperIKdlLi1ELi0ELi1EE6strideEv, symObjAddr: 0x1D22C, symBinAddr: 0x10001DADC, symSize: 0x18 }
  - { offsetInCU: 0x15E8F9, offset: 0x15E8F9, size: 0x8, addend: 0x0, symName: __ZNK5Eigen9EigenBaseINS_9TransposeIKNS_6MatrixIdLin1ELin1ELi0ELin1ELin1EEEEEE7derivedEv, symObjAddr: 0x1D294, symBinAddr: 0x10001DB44, symSize: 0x14 }
  - { offsetInCU: 0x15E91F, offset: 0x15E91F, size: 0x8, addend: 0x0, symName: __ZN5Eigen9EigenBaseINS_9TransposeINS_5BlockINS_6MatrixIdLin1ELin1ELi0ELin1ELin1EEELi1ELin1ELb0EEEEEE7derivedEv, symObjAddr: 0x1D2A8, symBinAddr: 0x10001DB58, symSize: 0x14 }
  - { offsetInCU: 0x15E945, offset: 0x15E945, size: 0x8, addend: 0x0, symName: __ZN5Eigen9TransposeINS_5BlockINS_6MatrixIdLin1ELin1ELi0ELin1ELin1EEELi1ELin1ELb0EEEE16nestedExpressionEv, symObjAddr: 0x1D2BC, symBinAddr: 0x10001DB6C, symSize: 0x14 }
  - { offsetInCU: 0x15E96B, offset: 0x15E96B, size: 0x8, addend: 0x0, symName: __ZN5Eigen7MapBaseINS_5BlockINS_6MatrixIdLin1ELin1ELi0ELin1ELin1EEELi1ELin1ELb0EEELi1EE4dataEv, symObjAddr: 0x1D2D0, symBinAddr: 0x10001DB80, symSize: 0x18 }
  - { offsetInCU: 0x15E991, offset: 0x15E991, size: 0x8, addend: 0x0, symName: __ZN5Eigen5BlockINS_9TransposeINS0_INS_6MatrixIdLin1ELin1ELi0ELin1ELin1EEELi1ELin1ELb0EEEEELin1ELi1ELb1EEC1ERS5_l, symObjAddr: 0x1D2E8, symBinAddr: 0x10001DB98, symSize: 0x3C }
  - { offsetInCU: 0x15E9D7, offset: 0x15E9D7, size: 0x8, addend: 0x0, symName: __ZN5Eigen5BlockINS_9TransposeINS0_INS_6MatrixIdLin1ELin1ELi0ELin1ELin1EEELi1ELin1ELb0EEEEELin1ELi1ELb1EEC2ERS5_l, symObjAddr: 0x1D324, symBinAddr: 0x10001DBD4, symSize: 0xAC }
  - { offsetInCU: 0x15EA1D, offset: 0x15EA1D, size: 0x8, addend: 0x0, symName: __ZN5Eigen9BlockImplINS_9TransposeINS_5BlockINS_6MatrixIdLin1ELin1ELi0ELin1ELin1EEELi1ELin1ELb0EEEEELin1ELi1ELb1ENS_5DenseEEC2ERS6_l, symObjAddr: 0x1D3D0, symBinAddr: 0x10001DC80, symSize: 0x3C }
  - { offsetInCU: 0x15EA63, offset: 0x15EA63, size: 0x8, addend: 0x0, symName: __ZNK5Eigen9TransposeINS_5BlockINS_6MatrixIdLin1ELin1ELi0ELin1ELin1EEELi1ELin1ELb0EEEE4colsEv, symObjAddr: 0x1D40C, symBinAddr: 0x10001DCBC, symSize: 0x24 }
  - { offsetInCU: 0x15EA89, offset: 0x15EA89, size: 0x8, addend: 0x0, symName: __ZN5Eigen8internal15BlockImpl_denseINS_9TransposeINS_5BlockINS_6MatrixIdLin1ELin1ELi0ELin1ELin1EEELi1ELin1ELb0EEEEELin1ELi1ELb1ELb1EEC2ERS7_l, symObjAddr: 0x1D430, symBinAddr: 0x10001DCE0, symSize: 0xB8 }
  - { offsetInCU: 0x15EAD1, offset: 0x15EAD1, size: 0x8, addend: 0x0, symName: __ZNK5Eigen13TransposeImplINS_5BlockINS_6MatrixIdLin1ELin1ELi0ELin1ELin1EEELi1ELin1ELb0EEENS_5DenseEE11outerStrideEv, symObjAddr: 0x1D4E8, symBinAddr: 0x10001DD98, symSize: 0x2C }
  - { offsetInCU: 0x15EAF7, offset: 0x15EAF7, size: 0x8, addend: 0x0, symName: __ZNK5Eigen9TransposeINS_5BlockINS_6MatrixIdLin1ELin1ELi0ELin1ELin1EEELi1ELin1ELb0EEEE4rowsEv, symObjAddr: 0x1D514, symBinAddr: 0x10001DDC4, symSize: 0x24 }
  - { offsetInCU: 0x15EB1D, offset: 0x15EB1D, size: 0x8, addend: 0x0, symName: __ZN5Eigen7MapBaseINS_5BlockINS_9TransposeINS1_INS_6MatrixIdLin1ELin1ELi0ELin1ELin1EEELi1ELin1ELb0EEEEELin1ELi1ELb1EEELi1EEC2EPdll, symObjAddr: 0x1D538, symBinAddr: 0x10001DDE8, symSize: 0x44 }
  - { offsetInCU: 0x15EB74, offset: 0x15EB74, size: 0x8, addend: 0x0, symName: __ZN5Eigen8internal15BlockImpl_denseINS_9TransposeINS_5BlockINS_6MatrixIdLin1ELin1ELi0ELin1ELin1EEELi1ELin1ELb0EEEEELin1ELi1ELb1ELb1EE4initEv, symObjAddr: 0x1D57C, symBinAddr: 0x10001DE2C, symSize: 0x34 }
  - { offsetInCU: 0x15EB9A, offset: 0x15EB9A, size: 0x8, addend: 0x0, symName: __ZNK5Eigen9EigenBaseINS_9TransposeINS_5BlockINS_6MatrixIdLin1ELin1ELi0ELin1ELin1EEELi1ELin1ELb0EEEEEE7derivedEv, symObjAddr: 0x1D5B0, symBinAddr: 0x10001DE60, symSize: 0x14 }
  - { offsetInCU: 0x15EBC0, offset: 0x15EBC0, size: 0x8, addend: 0x0, symName: __ZNK5Eigen9TransposeINS_5BlockINS_6MatrixIdLin1ELin1ELi0ELin1ELin1EEELi1ELin1ELb0EEEE16nestedExpressionEv, symObjAddr: 0x1D5C4, symBinAddr: 0x10001DE74, symSize: 0x14 }
  - { offsetInCU: 0x15EBE6, offset: 0x15EBE6, size: 0x8, addend: 0x0, symName: __ZNK5Eigen7MapBaseINS_5BlockINS_6MatrixIdLin1ELin1ELi0ELin1ELin1EEELi1ELin1ELb0EEELi0EE4colsEv, symObjAddr: 0x1D5D8, symBinAddr: 0x10001DE88, symSize: 0x28 }
  - { offsetInCU: 0x15EC0C, offset: 0x15EC0C, size: 0x8, addend: 0x0, symName: __ZN5Eigen7MapBaseINS_5BlockINS_9TransposeINS1_INS_6MatrixIdLin1ELin1ELi0ELin1ELin1EEELi1ELin1ELb0EEEEELin1ELi1ELb1EEELi0EEC2EPdll, symObjAddr: 0x1D600, symBinAddr: 0x10001DEB0, symSize: 0x11C }
  - { offsetInCU: 0x15EC60, offset: 0x15EC60, size: 0x8, addend: 0x0, symName: __ZN5Eigen10MatrixBaseINS_5BlockINS_9TransposeINS1_INS_6MatrixIdLin1ELin1ELi0ELin1ELin1EEELi1ELin1ELb0EEEEELin1ELi1ELb1EEEEC2Ev, symObjAddr: 0x1D71C, symBinAddr: 0x10001DFCC, symSize: 0x2C }
  - { offsetInCU: 0x15EC8A, offset: 0x15EC8A, size: 0x8, addend: 0x0, symName: __ZNK5Eigen7MapBaseINS_5BlockINS_9TransposeINS1_INS_6MatrixIdLin1ELin1ELi0ELin1ELin1EEELi1ELin1ELb0EEEEELin1ELi1ELb1EEELi0EE11checkSanityIS7_EEvNS_8internal9enable_ifIXeqsr8internal6traitsIT_EE9AlignmentLi0EEPvE4typeE, symObjAddr: 0x1D748, symBinAddr: 0x10001DFF8, symSize: 0x14 }
  - { offsetInCU: 0x15ECC4, offset: 0x15ECC4, size: 0x8, addend: 0x0, symName: __ZN5Eigen9DenseBaseINS_5BlockINS_9TransposeINS1_INS_6MatrixIdLin1ELin1ELi0ELin1ELin1EEELi1ELin1ELb0EEEEELin1ELi1ELb1EEEEC2Ev, symObjAddr: 0x1D75C, symBinAddr: 0x10001E00C, symSize: 0x14 }
  - { offsetInCU: 0x15ECEE, offset: 0x15ECEE, size: 0x8, addend: 0x0, symName: __ZNK5Eigen7MapBaseINS_5BlockINS_6MatrixIdLin1ELin1ELi0ELin1ELin1EEELi1ELin1ELb0EEELi0EE4rowsEv, symObjAddr: 0x1D770, symBinAddr: 0x10001E020, symSize: 0x20 }
  - { offsetInCU: 0x15ED14, offset: 0x15ED14, size: 0x8, addend: 0x0, symName: __ZNK5Eigen13TransposeImplINS_5BlockINS_6MatrixIdLin1ELin1ELi0ELin1ELin1EEELi1ELin1ELb0EEENS_5DenseEE11innerStrideEv, symObjAddr: 0x1D790, symBinAddr: 0x10001E040, symSize: 0x2C }
  - { offsetInCU: 0x15ED3A, offset: 0x15ED3A, size: 0x8, addend: 0x0, symName: __ZN5Eigen8internal28aligned_stack_memory_handlerIdED2Ev, symObjAddr: 0x1D7BC, symBinAddr: 0x10001E06C, symSize: 0x5C }
  - { offsetInCU: 0x15ED64, offset: 0x15ED64, size: 0x8, addend: 0x0, symName: __ZN5Eigen8internal11noncopyableD2Ev, symObjAddr: 0x1D818, symBinAddr: 0x10001E0C8, symSize: 0x14 }
  - { offsetInCU: 0x15ED8E, offset: 0x15ED8E, size: 0x8, addend: 0x0, symName: __ZN5Eigen8internal19gemm_blocking_spaceILi0EddLin1ELin1ELin1ELi1ELb0EEC2Ellllb, symObjAddr: 0x1D82C, symBinAddr: 0x10001E0DC, symSize: 0xDC }
  - { offsetInCU: 0x15EE20, offset: 0x15EE20, size: 0x8, addend: 0x0, symName: __ZN5Eigen8internal15level3_blockingIddEC2Ev, symObjAddr: 0x1D908, symBinAddr: 0x10001E1B8, symSize: 0x28 }
  - { offsetInCU: 0x15EE4A, offset: 0x15EE4A, size: 0x8, addend: 0x0, symName: __ZN5Eigen8internal10CacheSizesC1Ev, symObjAddr: 0x1E32C, symBinAddr: 0x10001EBDC, symSize: 0x2C }
  - { offsetInCU: 0x15EE74, offset: 0x15EE74, size: 0x8, addend: 0x0, symName: __ZN5Eigen8internal10CacheSizesC2Ev, symObjAddr: 0x1E358, symBinAddr: 0x10001EC08, symSize: 0x88 }
  - { offsetInCU: 0x15EED6, offset: 0x15EED6, size: 0x8, addend: 0x0, symName: __ZNK5Eigen8internal12gemm_functorIdlNS0_29general_matrix_matrix_productIldLi0ELb0EdLi0ELb0ELi0ELi1EEENS_6MatrixIdLin1ELin1ELi0ELin1ELin1EEES5_S5_NS0_19gemm_blocking_spaceILi0EddLin1ELin1ELin1ELi1ELb0EEEEclEllllPNS0_16GemmParallelInfoIlEE, symObjAddr: 0x1E4D8, symBinAddr: 0x10001ED88, symSize: 0x158 }
  - { offsetInCU: 0x15F057, offset: 0x15F057, size: 0x8, addend: 0x0, symName: __ZN5Eigen8internal29general_matrix_matrix_productIldLi0ELb0EdLi0ELb0ELi0ELi1EE3runElllPKdlS4_lPdlldRNS0_15level3_blockingIddEEPNS0_16GemmParallelInfoIlEE, symObjAddr: 0x1E630, symBinAddr: 0x10001EEE0, symSize: 0xBAC }
  - { offsetInCU: 0x15F770, offset: 0x15F770, size: 0x8, addend: 0x0, symName: __ZNK5Eigen15PlainObjectBaseINS_6MatrixIdLin1ELin1ELi0ELin1ELin1EEEE8coeffRefEll, symObjAddr: 0x1F1DC, symBinAddr: 0x10001FA8C, symSize: 0x6C }
  - { offsetInCU: 0x15F7B2, offset: 0x15F7B2, size: 0x8, addend: 0x0, symName: __ZNK5Eigen8internal15level3_blockingIddE2kcEv, symObjAddr: 0x1F248, symBinAddr: 0x10001FAF8, symSize: 0x18 }
  - { offsetInCU: 0x15F7D8, offset: 0x15F7D8, size: 0x8, addend: 0x0, symName: __ZNK5Eigen8internal15level3_blockingIddE2mcEv, symObjAddr: 0x1F260, symBinAddr: 0x10001FB10, symSize: 0x18 }
  - { offsetInCU: 0x15F7FE, offset: 0x15F7FE, size: 0x8, addend: 0x0, symName: __ZNK5Eigen8internal15level3_blockingIddE2ncEv, symObjAddr: 0x1F278, symBinAddr: 0x10001FB28, symSize: 0x18 }
  - { offsetInCU: 0x15F824, offset: 0x15F824, size: 0x8, addend: 0x0, symName: __ZN5Eigen8internal15level3_blockingIddE6blockAEv, symObjAddr: 0x1F2A0, symBinAddr: 0x10001FB50, symSize: 0x18 }
  - { offsetInCU: 0x15F84A, offset: 0x15F84A, size: 0x8, addend: 0x0, symName: __ZN5Eigen8internal15level3_blockingIddE6blockBEv, symObjAddr: 0x1F2B8, symBinAddr: 0x10001FB68, symSize: 0x18 }
  - { offsetInCU: 0x15F965, offset: 0x15F965, size: 0x8, addend: 0x0, symName: __ZN5Eigen8internal13gemm_pack_rhsIdlNS0_22const_blas_data_mapperIdlLi0EEELi4ELi0ELb0ELb0EEclEPdRKS3_llll, symObjAddr: 0x1FA0C, symBinAddr: 0x1000202BC, symSize: 0x710 }
  - { offsetInCU: 0x1600DA, offset: 0x1600DA, size: 0x8, addend: 0x0, symName: __ZNK5Eigen8internal7conj_ifILb0EEclIdEERKT_S6_, symObjAddr: 0x25524, symBinAddr: 0x100025DD4, symSize: 0x18 }
  - { offsetInCU: 0x160117, offset: 0x160117, size: 0x8, addend: 0x0, symName: __ZN5Eigen8internal11gebp_traitsIddLb0ELb0ELi0ELi0EE7initAccER19__simd128_float64_t, symObjAddr: 0x25554, symBinAddr: 0x100025E04, symSize: 0x38 }
  - { offsetInCU: 0x160156, offset: 0x160156, size: 0x8, addend: 0x0, symName: __ZNK5Eigen8internal11gebp_traitsIddLb0ELb0ELi0ELi0EE7loadLhsI19__simd128_float64_tEEvPKdRT_, symObjAddr: 0x2558C, symBinAddr: 0x100025E3C, symSize: 0x34 }
  - { offsetInCU: 0x1601D5, offset: 0x1601D5, size: 0x8, addend: 0x0, symName: __ZNK5Eigen8internal11gebp_traitsIddLb0ELb0ELi4ELi0EE7loadRhsEPKdRNS2_11RhsPacketx4E, symObjAddr: 0x255C0, symBinAddr: 0x100025E70, symSize: 0x58 }
  - { offsetInCU: 0x160252, offset: 0x160252, size: 0x8, addend: 0x0, symName: __ZNK5Eigen8internal11gebp_traitsIddLb0ELb0ELi4ELi0EE4maddERK19__simd128_float64_tRKNS2_11RhsPacketx4ERS3_RdRKNS0_8FixedIntILi0EEE, symObjAddr: 0x25618, symBinAddr: 0x100025EC8, symSize: 0x44 }
  - { offsetInCU: 0x1602B8, offset: 0x1602B8, size: 0x8, addend: 0x0, symName: __ZNK5Eigen8internal11gebp_traitsIddLb0ELb0ELi4ELi0EE9updateRhsEPKdRNS2_11RhsPacketx4E, symObjAddr: 0x2565C, symBinAddr: 0x100025F0C, symSize: 0x18 }
  - { offsetInCU: 0x1602F4, offset: 0x1602F4, size: 0x8, addend: 0x0, symName: __ZNK5Eigen8internal11gebp_traitsIddLb0ELb0ELi4ELi0EE4maddERK19__simd128_float64_tRKNS2_11RhsPacketx4ERS3_RdRKNS0_8FixedIntILi1EEE, symObjAddr: 0x25674, symBinAddr: 0x100025F24, symSize: 0x44 }
  - { offsetInCU: 0x16035A, offset: 0x16035A, size: 0x8, addend: 0x0, symName: __ZNK5Eigen8internal11gebp_traitsIddLb0ELb0ELi4ELi0EE4maddERK19__simd128_float64_tRKNS2_11RhsPacketx4ERS3_RdRKNS0_8FixedIntILi2EEE, symObjAddr: 0x256B8, symBinAddr: 0x100025F68, symSize: 0x44 }
  - { offsetInCU: 0x1603C0, offset: 0x1603C0, size: 0x8, addend: 0x0, symName: __ZNK5Eigen8internal11gebp_traitsIddLb0ELb0ELi4ELi0EE4maddERK19__simd128_float64_tRKNS2_11RhsPacketx4ERS3_RdRKNS0_8FixedIntILi3EEE, symObjAddr: 0x256FC, symBinAddr: 0x100025FAC, symSize: 0x44 }
  - { offsetInCU: 0x160426, offset: 0x160426, size: 0x8, addend: 0x0, symName: __ZNK5Eigen8internal11gebp_traitsIddLb0ELb0ELi0ELi0EE3accERK19__simd128_float64_tS5_RS3_, symObjAddr: 0x25740, symBinAddr: 0x100025FF0, symSize: 0x40 }
  - { offsetInCU: 0x160479, offset: 0x160479, size: 0x8, addend: 0x0, symName: __ZNK5Eigen8internal11gebp_traitsIddLb0ELb0ELi4ELi0EE7loadRhsEPKdRd, symObjAddr: 0x25780, symBinAddr: 0x100026030, symSize: 0x28 }
  - { offsetInCU: 0x1604BB, offset: 0x1604BB, size: 0x8, addend: 0x0, symName: __ZNK5Eigen8internal11gebp_traitsIddLb0ELb0ELi4ELi0EE4maddERK19__simd128_float64_tRKdRS3_RdRKNS0_8FixedIntILi0EEE, symObjAddr: 0x257A8, symBinAddr: 0x100026058, symSize: 0xA4 }
  - { offsetInCU: 0x160530, offset: 0x160530, size: 0x8, addend: 0x0, symName: __ZN5Eigen8internal22lhs_process_one_packetILi4ELl2ELl1Eddd19__simd128_float64_tS2_dS2_NS0_11gebp_traitsIddLb0ELb0ELi4ELi0EEENS0_16BlasLinearMapperIdlLi0ELi1EEENS0_16blas_data_mapperIdlLi0ELi0ELi1EEEEclERKS8_PKdSD_dllllllilllll, symObjAddr: 0x2584C, symBinAddr: 0x1000260FC, symSize: 0x1134 }
  - { offsetInCU: 0x16119E, offset: 0x16119E, size: 0x8, addend: 0x0, symName: __ZNK5Eigen8internal11conj_helperIddLb0ELb0EE5pmaddERKdS4_S4_, symObjAddr: 0x26980, symBinAddr: 0x100027230, symSize: 0x54 }
  - { offsetInCU: 0x1611EE, offset: 0x1611EE, size: 0x8, addend: 0x0, symName: __ZNK5Eigen8internal11gebp_traitsIddLb0ELb0ELi4ELi0EE11madd_helperILi0EEEvRK19__simd128_float64_tRKNS2_11RhsPacketx4ERS4_, symObjAddr: 0x269D4, symBinAddr: 0x100027284, symSize: 0x68 }
  - { offsetInCU: 0x161293, offset: 0x161293, size: 0x8, addend: 0x0, symName: __ZNK5Eigen8internal11gebp_traitsIddLb0ELb0ELi4ELi0EE11madd_helperILi1EEEvRK19__simd128_float64_tRKNS2_11RhsPacketx4ERS4_, symObjAddr: 0x26A3C, symBinAddr: 0x1000272EC, symSize: 0x68 }
  - { offsetInCU: 0x161338, offset: 0x161338, size: 0x8, addend: 0x0, symName: __ZNK5Eigen8internal11gebp_traitsIddLb0ELb0ELi4ELi0EE11madd_helperILi2EEEvRK19__simd128_float64_tRKNS2_11RhsPacketx4ERS4_, symObjAddr: 0x26AA4, symBinAddr: 0x100027354, symSize: 0x68 }
  - { offsetInCU: 0x1613DD, offset: 0x1613DD, size: 0x8, addend: 0x0, symName: __ZNK5Eigen8internal11gebp_traitsIddLb0ELb0ELi4ELi0EE11madd_helperILi3EEEvRK19__simd128_float64_tRKNS2_11RhsPacketx4ERS4_, symObjAddr: 0x26B0C, symBinAddr: 0x1000273BC, symSize: 0x68 }
  - { offsetInCU: 0x161482, offset: 0x161482, size: 0x8, addend: 0x0, symName: __ZN5Eigen8internal22lhs_process_one_packetILi4ELl2ELl1Eddd19__simd128_float64_tS2_dS2_NS0_11gebp_traitsIddLb0ELb0ELi4ELi0EEENS0_16BlasLinearMapperIdlLi0ELi1EEENS0_16blas_data_mapperIdlLi0ELi0ELi1EEEE17peeled_kc_onestepElPKdSB_S4_PS2_PNS4_11RhsPacketx4EPdSC_SC_SC_SC_, symObjAddr: 0x26B74, symBinAddr: 0x100027424, symSize: 0x124 }
  - { offsetInCU: 0x16154D, offset: 0x16154D, size: 0x8, addend: 0x0, symName: __ZNK5Eigen8internal11gebp_traitsIddLb0ELb0ELi0ELi0EE16loadLhsUnalignedI19__simd128_float64_tEEvPKdRT_, symObjAddr: 0x26C98, symBinAddr: 0x100027548, symSize: 0x34 }
  - { offsetInCU: 0x16159A, offset: 0x16159A, size: 0x8, addend: 0x0, symName: __ZN5Eigen8internal12gemm_functorIdlNS0_29general_matrix_matrix_productIldLi0ELb0EdLi0ELb0ELi0ELi1EEENS_6MatrixIdLin1ELin1ELi0ELin1ELin1EEES5_S5_NS0_19gemm_blocking_spaceILi0EddLin1ELin1ELin1ELi1ELb0EEEEC2ERKS5_SA_RS5_RKdRS7_, symObjAddr: 0x26D34, symBinAddr: 0x1000275E4, symSize: 0x54 }
  - { offsetInCU: 0x16160A, offset: 0x16160A, size: 0x8, addend: 0x0, symName: __ZN5Eigen8internal19gemm_blocking_spaceILi0EddLin1ELin1ELin1ELi1ELb0EED2Ev, symObjAddr: 0x26D88, symBinAddr: 0x100027638, symSize: 0x50 }
  - { offsetInCU: 0x161634, offset: 0x161634, size: 0x8, addend: 0x0, symName: __ZN5Eigen8internal9evaluatorINS_9TransposeIKNS_6MatrixIdLin1ELin1ELi0ELin1ELin1EEEEEEC2ERKS6_, symObjAddr: 0x26E60, symBinAddr: 0x100027710, symSize: 0x34 }
  - { offsetInCU: 0x16166C, offset: 0x16166C, size: 0x8, addend: 0x0, symName: __ZN5Eigen8internal15unary_evaluatorINS_9TransposeIKNS_6MatrixIdLin1ELin1ELi0ELin1ELin1EEEEENS0_10IndexBasedEdEC2ERKS6_, symObjAddr: 0x26E94, symBinAddr: 0x100027744, symSize: 0x6C }
  - { offsetInCU: 0x1616A5, offset: 0x1616A5, size: 0x8, addend: 0x0, symName: __ZN5Eigen8internal14evaluator_baseINS_9TransposeIKNS_6MatrixIdLin1ELin1ELi0ELin1ELin1EEEEEEC2Ev, symObjAddr: 0x26F00, symBinAddr: 0x1000277B0, symSize: 0x14 }
  - { offsetInCU: 0x1616CF, offset: 0x1616CF, size: 0x8, addend: 0x0, symName: __ZN5Eigen8internal14evaluator_baseINS_9TransposeIKNS_6MatrixIdLin1ELin1ELi0ELin1ELin1EEEEEED2Ev, symObjAddr: 0x26F14, symBinAddr: 0x1000277C4, symSize: 0x14 }
  - { offsetInCU: 0x1616F9, offset: 0x1616F9, size: 0x8, addend: 0x0, symName: __ZN5Eigen8internal9evaluatorINS_9TransposeIKNS_6MatrixIdLin1ELin1ELi0ELin1ELin1EEEEEED2Ev, symObjAddr: 0x26F28, symBinAddr: 0x1000277D8, symSize: 0x2C }
  - { offsetInCU: 0x161725, offset: 0x161725, size: 0x8, addend: 0x0, symName: __ZN5Eigen8internal15unary_evaluatorINS_9TransposeIKNS_6MatrixIdLin1ELin1ELi0ELin1ELin1EEEEENS0_10IndexBasedEdED2Ev, symObjAddr: 0x26F54, symBinAddr: 0x100027804, symSize: 0x34 }
  - { offsetInCU: 0x161751, offset: 0x161751, size: 0x8, addend: 0x0, symName: __ZNK5Eigen7ProductINS0_INS_6MatrixIdLin1ELin1ELi0ELin1ELin1EEES2_Li0EEENS_9TransposeIKS2_EELi1EE4rowsEv, symObjAddr: 0x26F88, symBinAddr: 0x100027838, symSize: 0x24 }
